Archive member included because of file (symbol)

./../../../../../../Atmel_lib/BitCloud_MEGARF_1_14_0/BitCloud/lib/libHAL_AtmlStk600_Atmega128rfa1_8Mhz_Gcc.a(halDelay.o)
                              Coordinator_Stk600_Atmega128rfa1_8Mhz_Gcc/Obj/buttons.o (HAL_Delay)
./../../../../../../Atmel_lib/BitCloud_MEGARF_1_14_0/BitCloud/lib/libHAL_AtmlStk600_Atmega128rfa1_8Mhz_Gcc.a(halW1.o)
                              ./../../../../../../Atmel_lib/BitCloud_MEGARF_1_14_0/BitCloud/lib/libHAL_AtmlStk600_Atmega128rfa1_8Mhz_Gcc.a(halDelay.o) (__delay_us)
./../../../../../../Atmel_lib/BitCloud_MEGARF_1_14_0/BitCloud/lib/libHAL_AtmlStk600_Atmega128rfa1_8Mhz_Gcc.a(appTimer.o)
                              Coordinator_Stk600_Atmega128rfa1_8Mhz_Gcc/Obj/WSNCoord.o (HAL_StartAppTimer)
./../../../../../../Atmel_lib/BitCloud_MEGARF_1_14_0/BitCloud/lib/libHAL_AtmlStk600_Atmega128rfa1_8Mhz_Gcc.a(usart.o)
                              Coordinator_Stk600_Atmega128rfa1_8Mhz_Gcc/Obj/WSNUARTManager.o (HAL_ReadUsart)
./../../../../../../Atmel_lib/BitCloud_MEGARF_1_14_0/BitCloud/lib/libHAL_AtmlStk600_Atmega128rfa1_8Mhz_Gcc.a(irq.o)
                              Coordinator_Stk600_Atmega128rfa1_8Mhz_Gcc/Obj/buttons.o (HAL_RegisterIrq)
./../../../../../../Atmel_lib/BitCloud_MEGARF_1_14_0/BitCloud/lib/libHAL_AtmlStk600_Atmega128rfa1_8Mhz_Gcc.a(eeprom.o)
                              Coordinator_Stk600_Atmega128rfa1_8Mhz_Gcc/Obj/pdsWriteData.o (HAL_ReadEeprom)
./../../../../../../Atmel_lib/BitCloud_MEGARF_1_14_0/BitCloud/lib/libHAL_AtmlStk600_Atmega128rfa1_8Mhz_Gcc.a(timer.o)
                              ./../../../../../../Atmel_lib/BitCloud_MEGARF_1_14_0/BitCloud/lib/libHAL_AtmlStk600_Atmega128rfa1_8Mhz_Gcc.a(appTimer.o) (halAddTimer)
./../../../../../../Atmel_lib/BitCloud_MEGARF_1_14_0/BitCloud/lib/libHAL_AtmlStk600_Atmega128rfa1_8Mhz_Gcc.a(halSleepTimerClock.o)
                              ./../../../../../../Atmel_lib/BitCloud_MEGARF_1_14_0/BitCloud/lib/libHAL_AtmlStk600_Atmega128rfa1_8Mhz_Gcc.a(appTimer.o) (halGetTimeOfSleepTimer)
./../../../../../../Atmel_lib/BitCloud_MEGARF_1_14_0/BitCloud/lib/libHAL_AtmlStk600_Atmega128rfa1_8Mhz_Gcc.a(halAppClock.o)
                              ./../../../../../../Atmel_lib/BitCloud_MEGARF_1_14_0/BitCloud/lib/libHAL_AtmlStk600_Atmega128rfa1_8Mhz_Gcc.a(appTimer.o) (halGetTimeOfAppTimer)
./../../../../../../Atmel_lib/BitCloud_MEGARF_1_14_0/BitCloud/lib/libHAL_AtmlStk600_Atmega128rfa1_8Mhz_Gcc.a(halUsart.o)
                              ./../../../../../../Atmel_lib/BitCloud_MEGARF_1_14_0/BitCloud/lib/libHAL_AtmlStk600_Atmega128rfa1_8Mhz_Gcc.a(usart.o) (halSetUsartConfig)
./../../../../../../Atmel_lib/BitCloud_MEGARF_1_14_0/BitCloud/lib/libHAL_AtmlStk600_Atmega128rfa1_8Mhz_Gcc.a(halIrq.o)
                              ./../../../../../../Atmel_lib/BitCloud_MEGARF_1_14_0/BitCloud/lib/libHAL_AtmlStk600_Atmega128rfa1_8Mhz_Gcc.a(irq.o) (halSetIrqConfig)
./../../../../../../Atmel_lib/BitCloud_MEGARF_1_14_0/BitCloud/lib/libHAL_AtmlStk600_Atmega128rfa1_8Mhz_Gcc.a(halEeprom.o)
                              ./../../../../../../Atmel_lib/BitCloud_MEGARF_1_14_0/BitCloud/lib/libHAL_AtmlStk600_Atmega128rfa1_8Mhz_Gcc.a(eeprom.o) (halEepromWrite)
./../../../../../../Atmel_lib/BitCloud_MEGARF_1_14_0/BitCloud/lib/libHAL_AtmlStk600_Atmega128rfa1_8Mhz_Gcc.a(halSleep.o)
                              ./../../../../../../Atmel_lib/BitCloud_MEGARF_1_14_0/BitCloud/lib/libHAL_AtmlStk600_Atmega128rfa1_8Mhz_Gcc.a(halSleepTimerClock.o) (halPowerOn)
./../../../../../../Atmel_lib/BitCloud_MEGARF_1_14_0/BitCloud/lib/libHAL_AtmlStk600_Atmega128rfa1_8Mhz_Gcc.a(calibration.o)
                              ./../../../../../../Atmel_lib/BitCloud_MEGARF_1_14_0/BitCloud/lib/libHAL_AtmlStk600_Atmega128rfa1_8Mhz_Gcc.a(halSleep.o) (halStartingCalibrate)
./../../../../../../Atmel_lib/BitCloud_MEGARF_1_14_0/BitCloud/lib/libHAL_AtmlStk600_Atmega128rfa1_8Mhz_Gcc.a(halCalibration.o)
                              ./../../../../../../Atmel_lib/BitCloud_MEGARF_1_14_0/BitCloud/lib/libHAL_AtmlStk600_Atmega128rfa1_8Mhz_Gcc.a(calibration.o) (halMeasurement)
./../../../../../../Atmel_lib/BitCloud_MEGARF_1_14_0/BitCloud/lib/libHAL_AtmlStk600_Atmega128rfa1_8Mhz_Gcc.a(halTaskManager.o)
                              ./../../../../../../Atmel_lib/BitCloud_MEGARF_1_14_0/BitCloud/lib/libHAL_AtmlStk600_Atmega128rfa1_8Mhz_Gcc.a(halAppClock.o) (halTaskFlags4)
./../../../../../../Atmel_lib/BitCloud_MEGARF_1_14_0/BitCloud/lib/libHAL_AtmlStk600_Atmega128rfa1_8Mhz_Gcc.a(i2cPacket.o)
                              ./../../../../../../Atmel_lib/BitCloud_MEGARF_1_14_0/BitCloud/lib/libHAL_AtmlStk600_Atmega128rfa1_8Mhz_Gcc.a(halTaskManager.o) (halSig2WireSerialHandler)
./../../../../../../Atmel_lib/BitCloud_MEGARF_1_14_0/BitCloud/lib/libHAL_AtmlStk600_Atmega128rfa1_8Mhz_Gcc.a(adc.o)
                              ./../../../../../../Atmel_lib/BitCloud_MEGARF_1_14_0/BitCloud/lib/libHAL_AtmlStk600_Atmega128rfa1_8Mhz_Gcc.a(halTaskManager.o) (halSigAdcHandler)
./../../../../../../Atmel_lib/BitCloud_MEGARF_1_14_0/BitCloud/lib/libHAL_AtmlStk600_Atmega128rfa1_8Mhz_Gcc.a(spi.o)
                              ./../../../../../../Atmel_lib/BitCloud_MEGARF_1_14_0/BitCloud/lib/libHAL_AtmlStk600_Atmega128rfa1_8Mhz_Gcc.a(halTaskManager.o) (halSpiRxByteComplete)
./../../../../../../Atmel_lib/BitCloud_MEGARF_1_14_0/BitCloud/lib/libHAL_AtmlStk600_Atmega128rfa1_8Mhz_Gcc.a(sleep.o)
                              ./../../../../../../Atmel_lib/BitCloud_MEGARF_1_14_0/BitCloud/lib/libHAL_AtmlStk600_Atmega128rfa1_8Mhz_Gcc.a(halSleepTimerClock.o) (halSleepControl)
./../../../../../../Atmel_lib/BitCloud_MEGARF_1_14_0/BitCloud/lib/libHAL_AtmlStk600_Atmega128rfa1_8Mhz_Gcc.a(halSecurityModule.o)
                              ./../../../../../../Atmel_lib/BitCloud_MEGARF_1_14_0/BitCloud/lib/libHAL_AtmlStk600_Atmega128rfa1_8Mhz_Gcc.a(halTaskManager.o) (halSmRequestHandler)
./../../../../../../Atmel_lib/BitCloud_MEGARF_1_14_0/BitCloud/lib/libHAL_AtmlStk600_Atmega128rfa1_8Mhz_Gcc.a(halClkCtrl.o)
                              ./../../../../../../Atmel_lib/BitCloud_MEGARF_1_14_0/BitCloud/lib/libHAL_AtmlStk600_Atmega128rfa1_8Mhz_Gcc.a(calibration.o) (halGetClockSource)
./../../../../../../Atmel_lib/BitCloud_MEGARF_1_14_0/BitCloud/lib/libHAL_AtmlStk600_Atmega128rfa1_8Mhz_Gcc.a(halTwi.o)
                              ./../../../../../../Atmel_lib/BitCloud_MEGARF_1_14_0/BitCloud/lib/libHAL_AtmlStk600_Atmega128rfa1_8Mhz_Gcc.a(i2cPacket.o) (halInitI2c)
./../../../../../../Atmel_lib/BitCloud_MEGARF_1_14_0/BitCloud/lib/libHAL_AtmlStk600_Atmega128rfa1_8Mhz_Gcc.a(halAdc.o)
                              ./../../../../../../Atmel_lib/BitCloud_MEGARF_1_14_0/BitCloud/lib/libHAL_AtmlStk600_Atmega128rfa1_8Mhz_Gcc.a(adc.o) (halOpenAdc)
./../../../../../../Atmel_lib/BitCloud_MEGARF_1_14_0/BitCloud/lib/libHAL_AtmlStk600_Atmega128rfa1_8Mhz_Gcc.a(halSpi.o)
                              ./../../../../../../Atmel_lib/BitCloud_MEGARF_1_14_0/BitCloud/lib/libHAL_AtmlStk600_Atmega128rfa1_8Mhz_Gcc.a(spi.o) (halSetUsartSpiConfig)
./../../../../../../Atmel_lib/BitCloud_MEGARF_1_14_0/BitCloud/lib/libHAL_AtmlStk600_Atmega128rfa1_8Mhz_Gcc.a(sleepTimer.o)
                              ./../../../../../../Atmel_lib/BitCloud_MEGARF_1_14_0/BitCloud/lib/libHAL_AtmlStk600_Atmega128rfa1_8Mhz_Gcc.a(sleep.o) (HAL_StartSleepTimer)
./../../../../../../Atmel_lib/BitCloud_MEGARF_1_14_0/BitCloud/lib/libBc_Coordinator_Atmega128rfa1_Atmega128rfa1_Gcc.a(aps.o)
                              Coordinator_Stk600_Atmega128rfa1_8Mhz_Gcc/Obj/WSNMessageSender.o (APS_DataReq)
./../../../../../../Atmel_lib/BitCloud_MEGARF_1_14_0/BitCloud/lib/libBc_Coordinator_Atmega128rfa1_Atmega128rfa1_Gcc.a(macenvPib.o)
                              ./../../../../../../Atmel_lib/BitCloud_MEGARF_1_14_0/BitCloud/lib/libBc_Coordinator_Atmega128rfa1_Atmega128rfa1_Gcc.a(aps.o) (MAC_GetExtAddr)
./../../../../../../Atmel_lib/BitCloud_MEGARF_1_14_0/BitCloud/lib/libBc_Coordinator_Atmega128rfa1_Atmega128rfa1_Gcc.a(nwk.o)
                              ./../../../../../../Atmel_lib/BitCloud_MEGARF_1_14_0/BitCloud/lib/libBc_Coordinator_Atmega128rfa1_Atmega128rfa1_Gcc.a(aps.o) (NWK_GetShortAddr)
./../../../../../../Atmel_lib/BitCloud_MEGARF_1_14_0/BitCloud/lib/libBc_Coordinator_Atmega128rfa1_Atmega128rfa1_Gcc.a(phyRxTxIndicator.o)
                              ./../../../../../../Atmel_lib/BitCloud_MEGARF_1_14_0/BitCloud/lib/libHAL_AtmlStk600_Atmega128rfa1_8Mhz_Gcc.a(halSleep.o) (phyRxTxSwitcherOn)
./../../../../../../Atmel_lib/BitCloud_MEGARF_1_14_0/BitCloud/lib/libBc_Coordinator_Atmega128rfa1_Atmega128rfa1_Gcc.a(phyStateMachine.o)
                              ./../../../../../../Atmel_lib/BitCloud_MEGARF_1_14_0/BitCloud/lib/libBc_Coordinator_Atmega128rfa1_Atmega128rfa1_Gcc.a(phyRxTxIndicator.o) (__wasRequest)
./../../../../../../Atmel_lib/BitCloud_MEGARF_1_14_0/BitCloud/lib/libBc_Coordinator_Atmega128rfa1_Atmega128rfa1_Gcc.a(queue.o)
                              Coordinator_Stk600_Atmega128rfa1_8Mhz_Gcc/Obj/WSNMessageSender.o (deleteHeadQueueElem)
./../../../../../../Atmel_lib/BitCloud_MEGARF_1_14_0/BitCloud/lib/libBc_Coordinator_Atmega128rfa1_Atmega128rfa1_Gcc.a(sysDuplicateTable.o)
                              ./../../../../../../Atmel_lib/BitCloud_MEGARF_1_14_0/BitCloud/lib/libBc_Coordinator_Atmega128rfa1_Atmega128rfa1_Gcc.a(aps.o) (SYS_DuplicateTableReset)
./../../../../../../Atmel_lib/BitCloud_MEGARF_1_14_0/BitCloud/lib/libBc_Coordinator_Atmega128rfa1_Atmega128rfa1_Gcc.a(sysEvents.o)
                              Coordinator_Stk600_Atmega128rfa1_8Mhz_Gcc/Obj/pdsWriteData.o (SYS_PostEvent)
./../../../../../../Atmel_lib/BitCloud_MEGARF_1_14_0/BitCloud/lib/libBc_Coordinator_Atmega128rfa1_Atmega128rfa1_Gcc.a(sysTimer.o)
                              ./../../../../../../Atmel_lib/BitCloud_MEGARF_1_14_0/BitCloud/lib/libBc_Coordinator_Atmega128rfa1_Atmega128rfa1_Gcc.a(aps.o) (SYS_StartTimer)
./../../../../../../Atmel_lib/BitCloud_MEGARF_1_14_0/BitCloud/lib/libBc_Coordinator_Atmega128rfa1_Atmega128rfa1_Gcc.a(taskManager.o)
                              Coordinator_Stk600_Atmega128rfa1_8Mhz_Gcc/Obj/WSNDemoApp.o (SYS_RunTask)
./../../../../../../Atmel_lib/BitCloud_MEGARF_1_14_0/BitCloud/lib/libBc_Coordinator_Atmega128rfa1_Atmega128rfa1_Gcc.a(zdo.o)
                              ./../../../../../../Atmel_lib/BitCloud_MEGARF_1_14_0/BitCloud/lib/libBc_Coordinator_Atmega128rfa1_Atmega128rfa1_Gcc.a(nwk.o) (NWK_JoinInd)
./../../../../../../Atmel_lib/BitCloud_MEGARF_1_14_0/BitCloud/lib/libBc_Coordinator_Atmega128rfa1_Atmega128rfa1_Gcc.a(bcSysSleep.o)
                              ./../../../../../../Atmel_lib/BitCloud_MEGARF_1_14_0/BitCloud/lib/libBc_Coordinator_Atmega128rfa1_Atmega128rfa1_Gcc.a(zdo.o) (SYS_Sleep)
./../../../../../../Atmel_lib/BitCloud_MEGARF_1_14_0/BitCloud/lib/libBc_Coordinator_Atmega128rfa1_Atmega128rfa1_Gcc.a(macMem.o)
                              ./../../../../../../Atmel_lib/BitCloud_MEGARF_1_14_0/BitCloud/lib/libBc_Coordinator_Atmega128rfa1_Atmega128rfa1_Gcc.a(phyRxTxIndicator.o) (macMem)
./../../../../../../Atmel_lib/BitCloud_MEGARF_1_14_0/BitCloud/lib/libBc_Coordinator_Atmega128rfa1_Atmega128rfa1_Gcc.a(machwdManager.o)
                              ./../../../../../../Atmel_lib/BitCloud_MEGARF_1_14_0/BitCloud/lib/libBc_Coordinator_Atmega128rfa1_Atmega128rfa1_Gcc.a(zdo.o) (RF_RandomReq)
./../../../../../../Atmel_lib/BitCloud_MEGARF_1_14_0/BitCloud/lib/libBc_Coordinator_Atmega128rfa1_Atmega128rfa1_Gcc.a(machwdRegAccessHandler.o)
                              ./../../../../../../Atmel_lib/BitCloud_MEGARF_1_14_0/BitCloud/lib/libBc_Coordinator_Atmega128rfa1_Atmega128rfa1_Gcc.a(machwdManager.o) (machwdRegAccessReqHandler)
./../../../../../../Atmel_lib/BitCloud_MEGARF_1_14_0/BitCloud/lib/libBc_Coordinator_Atmega128rfa1_Atmega128rfa1_Gcc.a(machwdResetHandler.o)
                              ./../../../../../../Atmel_lib/BitCloud_MEGARF_1_14_0/BitCloud/lib/libBc_Coordinator_Atmega128rfa1_Atmega128rfa1_Gcc.a(machwdManager.o) (machwdReset)
./../../../../../../Atmel_lib/BitCloud_MEGARF_1_14_0/BitCloud/lib/libBc_Coordinator_Atmega128rfa1_Atmega128rfa1_Gcc.a(machwdRndHandler.o)
                              ./../../../../../../Atmel_lib/BitCloud_MEGARF_1_14_0/BitCloud/lib/libBc_Coordinator_Atmega128rfa1_Atmega128rfa1_Gcc.a(machwdManager.o) (machwdRndReqHandler)
./../../../../../../Atmel_lib/BitCloud_MEGARF_1_14_0/BitCloud/lib/libBc_Coordinator_Atmega128rfa1_Atmega128rfa1_Gcc.a(machwdRxBuffer.o)
                              ./../../../../../../Atmel_lib/BitCloud_MEGARF_1_14_0/BitCloud/lib/libBc_Coordinator_Atmega128rfa1_Atmega128rfa1_Gcc.a(machwdResetHandler.o) (machwdResetRxBuffer)
./../../../../../../Atmel_lib/BitCloud_MEGARF_1_14_0/BitCloud/lib/libBc_Coordinator_Atmega128rfa1_Atmega128rfa1_Gcc.a(machwdRxFrameHandler.o)
                              ./../../../../../../Atmel_lib/BitCloud_MEGARF_1_14_0/BitCloud/lib/libBc_Coordinator_Atmega128rfa1_Atmega128rfa1_Gcc.a(machwdManager.o) (machwdRxFrameTaskHandler)
./../../../../../../Atmel_lib/BitCloud_MEGARF_1_14_0/BitCloud/lib/libBc_Coordinator_Atmega128rfa1_Atmega128rfa1_Gcc.a(machwdSetHandler.o)
                              ./../../../../../../Atmel_lib/BitCloud_MEGARF_1_14_0/BitCloud/lib/libBc_Coordinator_Atmega128rfa1_Atmega128rfa1_Gcc.a(machwdManager.o) (machwdSetReqHandler)
./../../../../../../Atmel_lib/BitCloud_MEGARF_1_14_0/BitCloud/lib/libBc_Coordinator_Atmega128rfa1_Atmega128rfa1_Gcc.a(machwdTrxCtrl.o)
                              ./../../../../../../Atmel_lib/BitCloud_MEGARF_1_14_0/BitCloud/lib/libBc_Coordinator_Atmega128rfa1_Atmega128rfa1_Gcc.a(machwdSetHandler.o) (machwdSendTrxCmd)
./../../../../../../Atmel_lib/BitCloud_MEGARF_1_14_0/BitCloud/lib/libBc_Coordinator_Atmega128rfa1_Atmega128rfa1_Gcc.a(machwdTrxHandler.o)
                              ./../../../../../../Atmel_lib/BitCloud_MEGARF_1_14_0/BitCloud/lib/libBc_Coordinator_Atmega128rfa1_Atmega128rfa1_Gcc.a(machwdManager.o) (machwdTrxReqHandler)
./../../../../../../Atmel_lib/BitCloud_MEGARF_1_14_0/BitCloud/lib/libBc_Coordinator_Atmega128rfa1_Atmega128rfa1_Gcc.a(machwdTxFrameHandler.o)
                              ./../../../../../../Atmel_lib/BitCloud_MEGARF_1_14_0/BitCloud/lib/libBc_Coordinator_Atmega128rfa1_Atmega128rfa1_Gcc.a(machwdManager.o) (machwdTxFrameReqHandler)
./../../../../../../Atmel_lib/BitCloud_MEGARF_1_14_0/BitCloud/lib/libBc_Coordinator_Atmega128rfa1_Atmega128rfa1_Gcc.a(machwiManager.o)
                              ./../../../../../../Atmel_lib/BitCloud_MEGARF_1_14_0/BitCloud/lib/libBc_Coordinator_Atmega128rfa1_Atmega128rfa1_Gcc.a(taskManager.o) (MAC_HWI_TaskHandler)
./../../../../../../Atmel_lib/BitCloud_MEGARF_1_14_0/BitCloud/lib/libBc_Coordinator_Atmega128rfa1_Atmega128rfa1_Gcc.a(machwiOrphanHandler.o)
                              ./../../../../../../Atmel_lib/BitCloud_MEGARF_1_14_0/BitCloud/lib/libBc_Coordinator_Atmega128rfa1_Atmega128rfa1_Gcc.a(machwiManager.o) (machwiOrphanRespHandler)
./../../../../../../Atmel_lib/BitCloud_MEGARF_1_14_0/BitCloud/lib/libBc_Coordinator_Atmega128rfa1_Atmega128rfa1_Gcc.a(machwiPanServer.o)
                              ./../../../../../../Atmel_lib/BitCloud_MEGARF_1_14_0/BitCloud/lib/libBc_Coordinator_Atmega128rfa1_Atmega128rfa1_Gcc.a(machwdRxFrameHandler.o) (MACHWD_DataInd)
./../../../../../../Atmel_lib/BitCloud_MEGARF_1_14_0/BitCloud/lib/libBc_Coordinator_Atmega128rfa1_Atmega128rfa1_Gcc.a(machwiPollHandler.o)
                              ./../../../../../../Atmel_lib/BitCloud_MEGARF_1_14_0/BitCloud/lib/libBc_Coordinator_Atmega128rfa1_Atmega128rfa1_Gcc.a(machwiPanServer.o) (machwiPollInd)
./../../../../../../Atmel_lib/BitCloud_MEGARF_1_14_0/BitCloud/lib/libBc_Coordinator_Atmega128rfa1_Atmega128rfa1_Gcc.a(machwiPurgeHandler.o)
                              ./../../../../../../Atmel_lib/BitCloud_MEGARF_1_14_0/BitCloud/lib/libBc_Coordinator_Atmega128rfa1_Atmega128rfa1_Gcc.a(machwiManager.o) (machwiPurgeReqHandler)
./../../../../../../Atmel_lib/BitCloud_MEGARF_1_14_0/BitCloud/lib/libBc_Coordinator_Atmega128rfa1_Atmega128rfa1_Gcc.a(machwiResetHandler.o)
                              ./../../../../../../Atmel_lib/BitCloud_MEGARF_1_14_0/BitCloud/lib/libBc_Coordinator_Atmega128rfa1_Atmega128rfa1_Gcc.a(machwiManager.o) (machwiResetReqHandler)
./../../../../../../Atmel_lib/BitCloud_MEGARF_1_14_0/BitCloud/lib/libBc_Coordinator_Atmega128rfa1_Atmega128rfa1_Gcc.a(machwiRxEnableHandler.o)
                              ./../../../../../../Atmel_lib/BitCloud_MEGARF_1_14_0/BitCloud/lib/libBc_Coordinator_Atmega128rfa1_Atmega128rfa1_Gcc.a(machwiManager.o) (machwiRxEnableReqHandler)
./../../../../../../Atmel_lib/BitCloud_MEGARF_1_14_0/BitCloud/lib/libBc_Coordinator_Atmega128rfa1_Atmega128rfa1_Gcc.a(machwiScanHandler.o)
                              ./../../../../../../Atmel_lib/BitCloud_MEGARF_1_14_0/BitCloud/lib/libBc_Coordinator_Atmega128rfa1_Atmega128rfa1_Gcc.a(machwiManager.o) (machwiScanReqHandler)
./../../../../../../Atmel_lib/BitCloud_MEGARF_1_14_0/BitCloud/lib/libBc_Coordinator_Atmega128rfa1_Atmega128rfa1_Gcc.a(machwiSetGetHandler.o)
                              ./../../../../../../Atmel_lib/BitCloud_MEGARF_1_14_0/BitCloud/lib/libBc_Coordinator_Atmega128rfa1_Atmega128rfa1_Gcc.a(machwiManager.o) (machwiGetReqHandler)
./../../../../../../Atmel_lib/BitCloud_MEGARF_1_14_0/BitCloud/lib/libBc_Coordinator_Atmega128rfa1_Atmega128rfa1_Gcc.a(machwiStartHandler.o)
                              ./../../../../../../Atmel_lib/BitCloud_MEGARF_1_14_0/BitCloud/lib/libBc_Coordinator_Atmega128rfa1_Atmega128rfa1_Gcc.a(machwiManager.o) (machwiStartReqHandler)
./../../../../../../Atmel_lib/BitCloud_MEGARF_1_14_0/BitCloud/lib/libBc_Coordinator_Atmega128rfa1_Atmega128rfa1_Gcc.a(machwiSwitchRxCtrl.o)
                              ./../../../../../../Atmel_lib/BitCloud_MEGARF_1_14_0/BitCloud/lib/libBc_Coordinator_Atmega128rfa1_Atmega128rfa1_Gcc.a(machwiPollHandler.o) (machwiSwitchRxAccordToRxOnWhenIdle)
./../../../../../../Atmel_lib/BitCloud_MEGARF_1_14_0/BitCloud/lib/libBc_Coordinator_Atmega128rfa1_Atmega128rfa1_Gcc.a(machwiTransactionHandler.o)
                              ./../../../../../../Atmel_lib/BitCloud_MEGARF_1_14_0/BitCloud/lib/libBc_Coordinator_Atmega128rfa1_Atmega128rfa1_Gcc.a(machwiResetHandler.o) (machwiResetTransactionHandler)
./../../../../../../Atmel_lib/BitCloud_MEGARF_1_14_0/BitCloud/lib/libBc_Coordinator_Atmega128rfa1_Atmega128rfa1_Gcc.a(machwiTransactionQueue.o)
                              ./../../../../../../Atmel_lib/BitCloud_MEGARF_1_14_0/BitCloud/lib/libBc_Coordinator_Atmega128rfa1_Atmega128rfa1_Gcc.a(machwiManager.o) (machwiGetActivatedTransactionFromQueue)
./../../../../../../Atmel_lib/BitCloud_MEGARF_1_14_0/BitCloud/lib/libBc_Coordinator_Atmega128rfa1_Atmega128rfa1_Gcc.a(phyInit.o)
                              ./../../../../../../Atmel_lib/BitCloud_MEGARF_1_14_0/BitCloud/lib/libBc_Coordinator_Atmega128rfa1_Atmega128rfa1_Gcc.a(taskManager.o) (RF_Init)
./../../../../../../Atmel_lib/BitCloud_MEGARF_1_14_0/BitCloud/lib/libBc_Coordinator_Atmega128rfa1_Atmega128rfa1_Gcc.a(phyRegAccess.o)
                              ./../../../../../../Atmel_lib/BitCloud_MEGARF_1_14_0/BitCloud/lib/libBc_Coordinator_Atmega128rfa1_Atmega128rfa1_Gcc.a(machwdRegAccessHandler.o) (PHY_RegWriteReq)
./../../../../../../Atmel_lib/BitCloud_MEGARF_1_14_0/BitCloud/lib/libBc_Coordinator_Atmega128rfa1_Atmega128rfa1_Gcc.a(phyReset.o)
                              ./../../../../../../Atmel_lib/BitCloud_MEGARF_1_14_0/BitCloud/lib/libBc_Coordinator_Atmega128rfa1_Atmega128rfa1_Gcc.a(machwdResetHandler.o) (PHY_Reset)
./../../../../../../Atmel_lib/BitCloud_MEGARF_1_14_0/BitCloud/lib/libBc_Coordinator_Atmega128rfa1_Atmega128rfa1_Gcc.a(phyRfIrqDispatcher.o)
                              ./../../../../../../Atmel_lib/BitCloud_MEGARF_1_14_0/BitCloud/lib/libBc_Coordinator_Atmega128rfa1_Atmega128rfa1_Gcc.a(phyRegAccess.o) (phyRestoreRfIrqMask)
./../../../../../../Atmel_lib/BitCloud_MEGARF_1_14_0/BitCloud/lib/libBc_Coordinator_Atmega128rfa1_Atmega128rfa1_Gcc.a(phyRnd.o)
                              ./../../../../../../Atmel_lib/BitCloud_MEGARF_1_14_0/BitCloud/lib/libBc_Coordinator_Atmega128rfa1_Atmega128rfa1_Gcc.a(machwdRndHandler.o) (PHY_RndReq)
./../../../../../../Atmel_lib/BitCloud_MEGARF_1_14_0/BitCloud/lib/libBc_Coordinator_Atmega128rfa1_Atmega128rfa1_Gcc.a(phyRxFrame.o)
                              ./../../../../../../Atmel_lib/BitCloud_MEGARF_1_14_0/BitCloud/lib/libBc_Coordinator_Atmega128rfa1_Atmega128rfa1_Gcc.a(machwdRxFrameHandler.o) (PHY_DownloadFrame)
./../../../../../../Atmel_lib/BitCloud_MEGARF_1_14_0/BitCloud/lib/libBc_Coordinator_Atmega128rfa1_Atmega128rfa1_Gcc.a(phySet.o)
                              ./../../../../../../Atmel_lib/BitCloud_MEGARF_1_14_0/BitCloud/lib/libBc_Coordinator_Atmega128rfa1_Atmega128rfa1_Gcc.a(machwdResetHandler.o) (PHY_SetReq)
./../../../../../../Atmel_lib/BitCloud_MEGARF_1_14_0/BitCloud/lib/libBc_Coordinator_Atmega128rfa1_Atmega128rfa1_Gcc.a(phySetTrxState.o)
                              ./../../../../../../Atmel_lib/BitCloud_MEGARF_1_14_0/BitCloud/lib/libBc_Coordinator_Atmega128rfa1_Atmega128rfa1_Gcc.a(machwdTrxCtrl.o) (PHY_SetTrxStateReq)
./../../../../../../Atmel_lib/BitCloud_MEGARF_1_14_0/BitCloud/lib/libBc_Coordinator_Atmega128rfa1_Atmega128rfa1_Gcc.a(phyTxFrame.o)
                              ./../../../../../../Atmel_lib/BitCloud_MEGARF_1_14_0/BitCloud/lib/libBc_Coordinator_Atmega128rfa1_Atmega128rfa1_Gcc.a(machwdTxFrameHandler.o) (PHY_DataReq)
./../../../../../../Atmel_lib/BitCloud_MEGARF_1_14_0/BitCloud/lib/libBc_Coordinator_Atmega128rfa1_Atmega128rfa1_Gcc.a(machwdCalibHandler.o)
                              ./../../../../../../Atmel_lib/BitCloud_MEGARF_1_14_0/BitCloud/lib/libBc_Coordinator_Atmega128rfa1_Atmega128rfa1_Gcc.a(machwdManager.o) (machwdCalibReqHandler)
./../../../../../../Atmel_lib/BitCloud_MEGARF_1_14_0/BitCloud/lib/libBc_Coordinator_Atmega128rfa1_Atmega128rfa1_Gcc.a(machwdEdHandler.o)
                              ./../../../../../../Atmel_lib/BitCloud_MEGARF_1_14_0/BitCloud/lib/libBc_Coordinator_Atmega128rfa1_Atmega128rfa1_Gcc.a(machwdManager.o) (machwdEdReqHandler)
./../../../../../../Atmel_lib/BitCloud_MEGARF_1_14_0/BitCloud/lib/libBc_Coordinator_Atmega128rfa1_Atmega128rfa1_Gcc.a(machwdFrameRoutine.o)
                              ./../../../../../../Atmel_lib/BitCloud_MEGARF_1_14_0/BitCloud/lib/libBc_Coordinator_Atmega128rfa1_Atmega128rfa1_Gcc.a(machwdRxFrameHandler.o) (machwdParseFrame)
./../../../../../../Atmel_lib/BitCloud_MEGARF_1_14_0/BitCloud/lib/libBc_Coordinator_Atmega128rfa1_Atmega128rfa1_Gcc.a(machwdHandlerCtrl.o)
                              ./../../../../../../Atmel_lib/BitCloud_MEGARF_1_14_0/BitCloud/lib/libBc_Coordinator_Atmega128rfa1_Atmega128rfa1_Gcc.a(machwdManager.o) (machwdGetHandlerId)
./../../../../../../Atmel_lib/BitCloud_MEGARF_1_14_0/BitCloud/lib/libBc_Coordinator_Atmega128rfa1_Atmega128rfa1_Gcc.a(machwiAssociateHandler.o)
                              ./../../../../../../Atmel_lib/BitCloud_MEGARF_1_14_0/BitCloud/lib/libBc_Coordinator_Atmega128rfa1_Atmega128rfa1_Gcc.a(machwiResetHandler.o) (machwiResetAssociateHandler)
./../../../../../../Atmel_lib/BitCloud_MEGARF_1_14_0/BitCloud/lib/libBc_Coordinator_Atmega128rfa1_Atmega128rfa1_Gcc.a(machwiBeaconHandler.o)
                              ./../../../../../../Atmel_lib/BitCloud_MEGARF_1_14_0/BitCloud/lib/libBc_Coordinator_Atmega128rfa1_Atmega128rfa1_Gcc.a(machwiManager.o) (machwiSendBeacon)
./../../../../../../Atmel_lib/BitCloud_MEGARF_1_14_0/BitCloud/lib/libBc_Coordinator_Atmega128rfa1_Atmega128rfa1_Gcc.a(machwiDataHandler.o)
                              ./../../../../../../Atmel_lib/BitCloud_MEGARF_1_14_0/BitCloud/lib/libBc_Coordinator_Atmega128rfa1_Atmega128rfa1_Gcc.a(machwiOrphanHandler.o) (machwiConvertmachwdDataConfirmTypes)
./../../../../../../Atmel_lib/BitCloud_MEGARF_1_14_0/BitCloud/lib/libBc_Coordinator_Atmega128rfa1_Atmega128rfa1_Gcc.a(machwiTransactionHash.o)
                              ./../../../../../../Atmel_lib/BitCloud_MEGARF_1_14_0/BitCloud/lib/libBc_Coordinator_Atmega128rfa1_Atmega128rfa1_Gcc.a(machwiTransactionQueue.o) (machwiTransctionHashInsert)
./../../../../../../Atmel_lib/BitCloud_MEGARF_1_14_0/BitCloud/lib/libBc_Coordinator_Atmega128rfa1_Atmega128rfa1_Gcc.a(phyCalib.o)
                              ./../../../../../../Atmel_lib/BitCloud_MEGARF_1_14_0/BitCloud/lib/libBc_Coordinator_Atmega128rfa1_Atmega128rfa1_Gcc.a(machwdCalibHandler.o) (PHY_CalibReq)
./../../../../../../Atmel_lib/BitCloud_MEGARF_1_14_0/BitCloud/lib/libBc_Coordinator_Atmega128rfa1_Atmega128rfa1_Gcc.a(phyEd.o)
                              ./../../../../../../Atmel_lib/BitCloud_MEGARF_1_14_0/BitCloud/lib/libBc_Coordinator_Atmega128rfa1_Atmega128rfa1_Gcc.a(machwdEdHandler.o) (PHY_EdReq)
./../../../../../../Atmel_lib/BitCloud_MEGARF_1_14_0/BitCloud/lib/libBc_Coordinator_Atmega128rfa1_Atmega128rfa1_Gcc.a(phyRtimerIrqDispatcher.o)
                              ./../../../../../../Atmel_lib/BitCloud_MEGARF_1_14_0/BitCloud/lib/libBc_Coordinator_Atmega128rfa1_Atmega128rfa1_Gcc.a(phyRxFrame.o) (phySetRTimerSource)
./../../../../../../Atmel_lib/BitCloud_MEGARF_1_14_0/BitCloud/lib/libHAL_AtmlStk600_Atmega128rfa1_8Mhz_Gcc.a(halInit.o)
                              ./../../../../../../Atmel_lib/BitCloud_MEGARF_1_14_0/BitCloud/lib/libBc_Coordinator_Atmega128rfa1_Atmega128rfa1_Gcc.a(taskManager.o) (HAL_Init)
./../../../../../../Atmel_lib/BitCloud_MEGARF_1_14_0/BitCloud/lib/libHAL_AtmlStk600_Atmega128rfa1_8Mhz_Gcc.a(halRfCtrl.o)
                              ./../../../../../../Atmel_lib/BitCloud_MEGARF_1_14_0/BitCloud/lib/libBc_Coordinator_Atmega128rfa1_Atmega128rfa1_Gcc.a(phyInit.o) (HAL_EnableRxTxSwitcher)
./../../../../../../Atmel_lib/BitCloud_MEGARF_1_14_0/BitCloud/lib/libHAL_AtmlStk600_Atmega128rfa1_8Mhz_Gcc.a(halUid.o)
                              ./../../../../../../Atmel_lib/BitCloud_MEGARF_1_14_0/BitCloud/lib/libHAL_AtmlStk600_Atmega128rfa1_8Mhz_Gcc.a(halInit.o) (halReadUid)
./../../../../../../Atmel_lib/BitCloud_MEGARF_1_14_0/BitCloud/lib/libHAL_AtmlStk600_Atmega128rfa1_8Mhz_Gcc.a(halMacIsr.o)
                              ./../../../../../../Atmel_lib/BitCloud_MEGARF_1_14_0/BitCloud/lib/libBc_Coordinator_Atmega128rfa1_Atmega128rfa1_Gcc.a(phyInit.o) (HAL_InitMacIsr)
c:/program files (x86)/atmel/avr tools/avr toolchain/bin/../lib/gcc/avr/4.5.1/avr51\libgcc.a(_mulsi3.o)
                              ./../../../../../../Atmel_lib/BitCloud_MEGARF_1_14_0/BitCloud/lib/libHAL_AtmlStk600_Atmega128rfa1_8Mhz_Gcc.a(halSleepTimerClock.o) (__mulsi3)
c:/program files (x86)/atmel/avr tools/avr toolchain/bin/../lib/gcc/avr/4.5.1/avr51\libgcc.a(_udivmodqi4.o)
                              ./../../../../../../Atmel_lib/BitCloud_MEGARF_1_14_0/BitCloud/lib/libBc_Coordinator_Atmega128rfa1_Atmega128rfa1_Gcc.a(aps.o) (__udivmodqi4)
c:/program files (x86)/atmel/avr tools/avr toolchain/bin/../lib/gcc/avr/4.5.1/avr51\libgcc.a(_udivmodhi4.o)
                              Coordinator_Stk600_Atmega128rfa1_8Mhz_Gcc/Obj/pdsInit.o (__udivmodhi4)
c:/program files (x86)/atmel/avr tools/avr toolchain/bin/../lib/gcc/avr/4.5.1/avr51\libgcc.a(_udivmodsi4.o)
                              ./../../../../../../Atmel_lib/BitCloud_MEGARF_1_14_0/BitCloud/lib/libHAL_AtmlStk600_Atmega128rfa1_8Mhz_Gcc.a(sleepTimer.o) (__udivmodsi4)
c:/program files (x86)/atmel/avr tools/avr toolchain/bin/../lib/gcc/avr/4.5.1/avr51\libgcc.a(_prologue.o)
                              Coordinator_Stk600_Atmega128rfa1_8Mhz_Gcc/Obj/WSNCoord.o (__prologue_saves__)
c:/program files (x86)/atmel/avr tools/avr toolchain/bin/../lib/gcc/avr/4.5.1/avr51\libgcc.a(_epilogue.o)
                              Coordinator_Stk600_Atmega128rfa1_8Mhz_Gcc/Obj/WSNCoord.o (__epilogue_restores__)
c:/program files (x86)/atmel/avr tools/avr toolchain/bin/../lib/gcc/avr/4.5.1/avr51\libgcc.a(_exit.o)
                              c:/program files (x86)/atmel/avr tools/avr toolchain/bin/../lib/gcc/avr/4.5.1/../../../../avr/lib/avr51/crtm128rfa1.o (exit)
c:/program files (x86)/atmel/avr tools/avr toolchain/bin/../lib/gcc/avr/4.5.1/avr51\libgcc.a(_tablejump.o)
                              ./../../../../../../Atmel_lib/BitCloud_MEGARF_1_14_0/BitCloud/lib/libBc_Coordinator_Atmega128rfa1_Atmega128rfa1_Gcc.a(macenvPib.o) (__tablejump2__)
c:/program files (x86)/atmel/avr tools/avr toolchain/bin/../lib/gcc/avr/4.5.1/avr51\libgcc.a(_copy_data.o)
                              Coordinator_Stk600_Atmega128rfa1_8Mhz_Gcc/Obj/WSNDemoApp.o (__do_copy_data)
c:/program files (x86)/atmel/avr tools/avr toolchain/bin/../lib/gcc/avr/4.5.1/avr51\libgcc.a(_clear_bss.o)
                              Coordinator_Stk600_Atmega128rfa1_8Mhz_Gcc/Obj/WSNSensorManager.o (__do_clear_bss)
c:/program files (x86)/atmel/avr tools/avr toolchain/bin/../lib/gcc/avr/4.5.1/avr51\libgcc.a(_ashldi3.o)
                              ./../../../../../../Atmel_lib/BitCloud_MEGARF_1_14_0/BitCloud/lib/libHAL_AtmlStk600_Atmega128rfa1_8Mhz_Gcc.a(appTimer.o) (__ashldi3)
c:/program files (x86)/atmel/avr tools/avr toolchain/bin/../lib/gcc/avr/4.5.1/../../../../avr/lib/avr51\libc.a(rand.o)
                              ./../../../../../../Atmel_lib/BitCloud_MEGARF_1_14_0/BitCloud/lib/libBc_Coordinator_Atmega128rfa1_Atmega128rfa1_Gcc.a(aps.o) (rand)
c:/program files (x86)/atmel/avr tools/avr toolchain/bin/../lib/gcc/avr/4.5.1/../../../../avr/lib/avr51\libc.a(memcpy_P.o)
                              Coordinator_Stk600_Atmega128rfa1_8Mhz_Gcc/Obj/WSNDemoApp.o (memcpy_P)
c:/program files (x86)/atmel/avr tools/avr toolchain/bin/../lib/gcc/avr/4.5.1/../../../../avr/lib/avr51\libc.a(memcmp.o)
                              ./../../../../../../Atmel_lib/BitCloud_MEGARF_1_14_0/BitCloud/lib/libBc_Coordinator_Atmega128rfa1_Atmega128rfa1_Gcc.a(aps.o) (memcmp)
c:/program files (x86)/atmel/avr tools/avr toolchain/bin/../lib/gcc/avr/4.5.1/../../../../avr/lib/avr51\libc.a(memcpy.o)
                              Coordinator_Stk600_Atmega128rfa1_8Mhz_Gcc/Obj/configServer.o (memcpy)
c:/program files (x86)/atmel/avr tools/avr toolchain/bin/../lib/gcc/avr/4.5.1/../../../../avr/lib/avr51\libc.a(memmove.o)
                              ./../../../../../../Atmel_lib/BitCloud_MEGARF_1_14_0/BitCloud/lib/libBc_Coordinator_Atmega128rfa1_Atmega128rfa1_Gcc.a(nwk.o) (memmove)
c:/program files (x86)/atmel/avr tools/avr toolchain/bin/../lib/gcc/avr/4.5.1/../../../../avr/lib/avr51\libc.a(memset.o)
                              Coordinator_Stk600_Atmega128rfa1_8Mhz_Gcc/Obj/pdsMemAccess.o (memset)
c:/program files (x86)/atmel/avr tools/avr toolchain/bin/../lib/gcc/avr/4.5.1/avr51\libgcc.a(_divmodsi4.o)
                              c:/program files (x86)/atmel/avr tools/avr toolchain/bin/../lib/gcc/avr/4.5.1/../../../../avr/lib/avr51\libc.a(rand.o) (__divmodsi4)

Allocating common symbols
Common symbol       size              file

stackBuffers        0x815             Coordinator_Stk600_Atmega128rfa1_8Mhz_Gcc/Obj/csMem.o
readBatteryDataCallback
                    0x2               Coordinator_Stk600_Atmega128rfa1_8Mhz_Gcc/Obj/fakeBSP.o
csAIB               0x2               Coordinator_Stk600_Atmega128rfa1_8Mhz_Gcc/Obj/csMem.o
macMem              0x88              ./../../../../../../Atmel_lib/BitCloud_MEGARF_1_14_0/BitCloud/lib/libBc_Coordinator_Atmega128rfa1_Atmega128rfa1_Gcc.a(macMem.o)
extHandler          0x2               ./../../../../../../Atmel_lib/BitCloud_MEGARF_1_14_0/BitCloud/lib/libHAL_AtmlStk600_Atmega128rfa1_8Mhz_Gcc.a(halTaskManager.o)
nwkMem              0x10c             ./../../../../../../Atmel_lib/BitCloud_MEGARF_1_14_0/BitCloud/lib/libBc_Coordinator_Atmega128rfa1_Atmega128rfa1_Gcc.a(nwk.o)
csZIB               0x2f              Coordinator_Stk600_Atmega128rfa1_8Mhz_Gcc/Obj/csMem.o
csPIB               0x38              Coordinator_Stk600_Atmega128rfa1_8Mhz_Gcc/Obj/csMem.o
halEepromParams     0x6               ./../../../../../../Atmel_lib/BitCloud_MEGARF_1_14_0/BitCloud/lib/libHAL_AtmlStk600_Atmega128rfa1_8Mhz_Gcc.a(eeprom.o)
zdoMem              0x3ab             ./../../../../../../Atmel_lib/BitCloud_MEGARF_1_14_0/BitCloud/lib/libBc_Coordinator_Atmega128rfa1_Atmega128rfa1_Gcc.a(zdo.o)
readTemperatureDataCallback
                    0x2               Coordinator_Stk600_Atmega128rfa1_8Mhz_Gcc/Obj/fakeBSP.o
csSIB               0x3c              Coordinator_Stk600_Atmega128rfa1_8Mhz_Gcc/Obj/csMem.o
__energyLevel       0x1               ./../../../../../../Atmel_lib/BitCloud_MEGARF_1_14_0/BitCloud/lib/libBc_Coordinator_Atmega128rfa1_Atmega128rfa1_Gcc.a(machwdEdHandler.o)
apsMem              0xbc              ./../../../../../../Atmel_lib/BitCloud_MEGARF_1_14_0/BitCloud/lib/libBc_Coordinator_Atmega128rfa1_Atmega128rfa1_Gcc.a(aps.o)
rxSlaveBuffer       0xa               ./../../../../../../Atmel_lib/BitCloud_MEGARF_1_14_0/BitCloud/lib/libHAL_AtmlStk600_Atmega128rfa1_8Mhz_Gcc.a(halSpi.o)
txBuffer            0x21              ./../../../../../../Atmel_lib/BitCloud_MEGARF_1_14_0/BitCloud/lib/libBc_Coordinator_Atmega128rfa1_Atmega128rfa1_Gcc.a(machwdFrameRoutine.o)
__rtimer            0x5               ./../../../../../../Atmel_lib/BitCloud_MEGARF_1_14_0/BitCloud/lib/libHAL_AtmlStk600_Atmega128rfa1_8Mhz_Gcc.a(halMacIsr.o)
pdsMem              0x2e              Coordinator_Stk600_Atmega128rfa1_8Mhz_Gcc/Obj/pdsMem.o
__necessaryPhyTrxState
                    0x1               ./../../../../../../Atmel_lib/BitCloud_MEGARF_1_14_0/BitCloud/lib/libBc_Coordinator_Atmega128rfa1_Atmega128rfa1_Gcc.a(phySetTrxState.o)
__sourceHandler     0x1               ./../../../../../../Atmel_lib/BitCloud_MEGARF_1_14_0/BitCloud/lib/libBc_Coordinator_Atmega128rfa1_Atmega128rfa1_Gcc.a(machwdTrxCtrl.o)
readLightDataCallback
                    0x2               Coordinator_Stk600_Atmega128rfa1_8Mhz_Gcc/Obj/fakeBSP.o
halEepromDone       0x2               ./../../../../../../Atmel_lib/BitCloud_MEGARF_1_14_0/BitCloud/lib/libHAL_AtmlStk600_Atmega128rfa1_8Mhz_Gcc.a(eeprom.o)
csNIB               0x86              Coordinator_Stk600_Atmega128rfa1_8Mhz_Gcc/Obj/csMem.o

Discarded input sections

 .data          0x00000000        0x0 c:/program files (x86)/atmel/avr tools/avr toolchain/bin/../lib/gcc/avr/4.5.1/../../../../avr/lib/avr51/crtm128rfa1.o
 .bss           0x00000000        0x0 c:/program files (x86)/atmel/avr tools/avr toolchain/bin/../lib/gcc/avr/4.5.1/../../../../avr/lib/avr51/crtm128rfa1.o
 .init9         0x00000000        0x8 c:/program files (x86)/atmel/avr tools/avr toolchain/bin/../lib/gcc/avr/4.5.1/../../../../avr/lib/avr51/crtm128rfa1.o
 .text          0x00000000        0x0 Coordinator_Stk600_Atmega128rfa1_8Mhz_Gcc/Obj/WSNSensorManager.o
 .data          0x00000000        0x0 Coordinator_Stk600_Atmega128rfa1_8Mhz_Gcc/Obj/WSNSensorManager.o
 .text          0x00000000        0x0 Coordinator_Stk600_Atmega128rfa1_8Mhz_Gcc/Obj/WSNVisualizer.o
 .data          0x00000000        0x0 Coordinator_Stk600_Atmega128rfa1_8Mhz_Gcc/Obj/WSNVisualizer.o
 .bss           0x00000000        0x0 Coordinator_Stk600_Atmega128rfa1_8Mhz_Gcc/Obj/WSNVisualizer.o
 .text.visualizeSleep
                0x00000000        0x6 Coordinator_Stk600_Atmega128rfa1_8Mhz_Gcc/Obj/WSNVisualizer.o
 .text          0x00000000        0x0 Coordinator_Stk600_Atmega128rfa1_8Mhz_Gcc/Obj/WSNEndDevice.o
 .data          0x00000000        0x0 Coordinator_Stk600_Atmega128rfa1_8Mhz_Gcc/Obj/WSNEndDevice.o
 .bss           0x00000000        0x0 Coordinator_Stk600_Atmega128rfa1_8Mhz_Gcc/Obj/WSNEndDevice.o
 .text          0x00000000        0x0 Coordinator_Stk600_Atmega128rfa1_8Mhz_Gcc/Obj/WSNCoord.o
 .data          0x00000000        0x0 Coordinator_Stk600_Atmega128rfa1_8Mhz_Gcc/Obj/WSNCoord.o
 .text          0x00000000        0x0 Coordinator_Stk600_Atmega128rfa1_8Mhz_Gcc/Obj/WSNMessageSender.o
 .data          0x00000000        0x0 Coordinator_Stk600_Atmega128rfa1_8Mhz_Gcc/Obj/WSNMessageSender.o
 .text.appIsTxQueueFree
                0x00000000       0x36 Coordinator_Stk600_Atmega128rfa1_8Mhz_Gcc/Obj/WSNMessageSender.o
 .text          0x00000000        0x0 Coordinator_Stk600_Atmega128rfa1_8Mhz_Gcc/Obj/WSNCommandHandler.o
 .data          0x00000000        0x0 Coordinator_Stk600_Atmega128rfa1_8Mhz_Gcc/Obj/WSNCommandHandler.o
 .text.appIsCmdQueueFree
                0x00000000       0x24 Coordinator_Stk600_Atmega128rfa1_8Mhz_Gcc/Obj/WSNCommandHandler.o
 .text          0x00000000        0x0 Coordinator_Stk600_Atmega128rfa1_8Mhz_Gcc/Obj/WSNRouter.o
 .data          0x00000000        0x0 Coordinator_Stk600_Atmega128rfa1_8Mhz_Gcc/Obj/WSNRouter.o
 .bss           0x00000000        0x0 Coordinator_Stk600_Atmega128rfa1_8Mhz_Gcc/Obj/WSNRouter.o
 .text          0x00000000        0x0 Coordinator_Stk600_Atmega128rfa1_8Mhz_Gcc/Obj/WSNDemoApp.o
 .text.appLeaveNetwork
                0x00000000       0x14 Coordinator_Stk600_Atmega128rfa1_8Mhz_Gcc/Obj/WSNDemoApp.o
 .text.appIsSleepPermitted
                0x00000000       0x26 Coordinator_Stk600_Atmega128rfa1_8Mhz_Gcc/Obj/WSNDemoApp.o
 .text          0x00000000        0x0 Coordinator_Stk600_Atmega128rfa1_8Mhz_Gcc/Obj/WSNUARTManager.o
 .data          0x00000000        0x0 Coordinator_Stk600_Atmega128rfa1_8Mhz_Gcc/Obj/WSNUARTManager.o
 .text.appStopUsartManager
                0x00000000        0xa Coordinator_Stk600_Atmega128rfa1_8Mhz_Gcc/Obj/WSNUARTManager.o
 .text          0x00000000        0x0 Coordinator_Stk600_Atmega128rfa1_8Mhz_Gcc/Obj/pdsMem.o
 .data          0x00000000        0x0 Coordinator_Stk600_Atmega128rfa1_8Mhz_Gcc/Obj/pdsMem.o
 .bss           0x00000000        0x0 Coordinator_Stk600_Atmega128rfa1_8Mhz_Gcc/Obj/pdsMem.o
 .text          0x00000000        0x0 Coordinator_Stk600_Atmega128rfa1_8Mhz_Gcc/Obj/pdsWriteData.o
 .data          0x00000000        0x0 Coordinator_Stk600_Atmega128rfa1_8Mhz_Gcc/Obj/pdsWriteData.o
 .text.pdsUpdate
                0x00000000       0x98 Coordinator_Stk600_Atmega128rfa1_8Mhz_Gcc/Obj/pdsWriteData.o
 .text.pdsCorruptFiles
                0x00000000       0xa4 Coordinator_Stk600_Atmega128rfa1_8Mhz_Gcc/Obj/pdsWriteData.o
 .text          0x00000000        0x0 Coordinator_Stk600_Atmega128rfa1_8Mhz_Gcc/Obj/pdsDataServer.o
 .data          0x00000000        0x0 Coordinator_Stk600_Atmega128rfa1_8Mhz_Gcc/Obj/pdsDataServer.o
 .bss           0x00000000        0x0 Coordinator_Stk600_Atmega128rfa1_8Mhz_Gcc/Obj/pdsDataServer.o
 .text.PDS_Restore
                0x00000000       0x80 Coordinator_Stk600_Atmega128rfa1_8Mhz_Gcc/Obj/pdsDataServer.o
 .text.PDS_BlockingStore
                0x00000000       0x1a Coordinator_Stk600_Atmega128rfa1_8Mhz_Gcc/Obj/pdsDataServer.o
 .text.PDS_IsAbleToRestore
                0x00000000       0x44 Coordinator_Stk600_Atmega128rfa1_8Mhz_Gcc/Obj/pdsDataServer.o
 .text.PDS_IsAbleToStore
                0x00000000       0x2e Coordinator_Stk600_Atmega128rfa1_8Mhz_Gcc/Obj/pdsDataServer.o
 .text.PDS_ClearRestoredMemory
                0x00000000       0x3a Coordinator_Stk600_Atmega128rfa1_8Mhz_Gcc/Obj/pdsDataServer.o
 .text.PDS_ResetStorage
                0x00000000       0x54 Coordinator_Stk600_Atmega128rfa1_8Mhz_Gcc/Obj/pdsDataServer.o
 .text.PDS_FlushData
                0x00000000        0x6 Coordinator_Stk600_Atmega128rfa1_8Mhz_Gcc/Obj/pdsDataServer.o
 .text.PDS_ReadUserData
                0x00000000       0x6e Coordinator_Stk600_Atmega128rfa1_8Mhz_Gcc/Obj/pdsDataServer.o
 .text.PDS_WriteUserData
                0x00000000       0x6e Coordinator_Stk600_Atmega128rfa1_8Mhz_Gcc/Obj/pdsDataServer.o
 .text          0x00000000        0x0 Coordinator_Stk600_Atmega128rfa1_8Mhz_Gcc/Obj/pdsInit.o
 .data          0x00000000        0x0 Coordinator_Stk600_Atmega128rfa1_8Mhz_Gcc/Obj/pdsInit.o
 .bss           0x00000000        0x0 Coordinator_Stk600_Atmega128rfa1_8Mhz_Gcc/Obj/pdsInit.o
 .text          0x00000000        0x0 Coordinator_Stk600_Atmega128rfa1_8Mhz_Gcc/Obj/pdsTimer.o
 .data          0x00000000        0x0 Coordinator_Stk600_Atmega128rfa1_8Mhz_Gcc/Obj/pdsTimer.o
 .bss           0x00000000        0x0 Coordinator_Stk600_Atmega128rfa1_8Mhz_Gcc/Obj/pdsTimer.o
 .text.PDS_StoreByTimer
                0x00000000       0x5c Coordinator_Stk600_Atmega128rfa1_8Mhz_Gcc/Obj/pdsTimer.o
 .text.PDS_Stop
                0x00000000       0x1e Coordinator_Stk600_Atmega128rfa1_8Mhz_Gcc/Obj/pdsTimer.o
 .text.PDS_Run  0x00000000       0x1e Coordinator_Stk600_Atmega128rfa1_8Mhz_Gcc/Obj/pdsTimer.o
 .text          0x00000000        0x0 Coordinator_Stk600_Atmega128rfa1_8Mhz_Gcc/Obj/pdsEvents.o
 .data          0x00000000        0x8 Coordinator_Stk600_Atmega128rfa1_8Mhz_Gcc/Obj/pdsEvents.o
 .bss           0x00000000        0x0 Coordinator_Stk600_Atmega128rfa1_8Mhz_Gcc/Obj/pdsEvents.o
 .text.pdsObserver
                0x00000000       0x58 Coordinator_Stk600_Atmega128rfa1_8Mhz_Gcc/Obj/pdsEvents.o
 .text.PDS_StoreByEvents
                0x00000000       0xfc Coordinator_Stk600_Atmega128rfa1_8Mhz_Gcc/Obj/pdsEvents.o
 .progmem.data  0x00000000       0x39 Coordinator_Stk600_Atmega128rfa1_8Mhz_Gcc/Obj/pdsEvents.o
 .text          0x00000000        0x0 Coordinator_Stk600_Atmega128rfa1_8Mhz_Gcc/Obj/pdsMemAccess.o
 .data          0x00000000        0x0 Coordinator_Stk600_Atmega128rfa1_8Mhz_Gcc/Obj/pdsMemAccess.o
 .bss           0x00000000        0x0 Coordinator_Stk600_Atmega128rfa1_8Mhz_Gcc/Obj/pdsMemAccess.o
 .text.pdsGetDirectoryDescrRec
                0x00000000       0x66 Coordinator_Stk600_Atmega128rfa1_8Mhz_Gcc/Obj/pdsMemAccess.o
 .text          0x00000000        0x0 Coordinator_Stk600_Atmega128rfa1_8Mhz_Gcc/Obj/pdsCrcService.o
 .data          0x00000000        0x0 Coordinator_Stk600_Atmega128rfa1_8Mhz_Gcc/Obj/pdsCrcService.o
 .bss           0x00000000        0x0 Coordinator_Stk600_Atmega128rfa1_8Mhz_Gcc/Obj/pdsCrcService.o
 .text          0x00000000        0x0 Coordinator_Stk600_Atmega128rfa1_8Mhz_Gcc/Obj/fakeBSP.o
 .data          0x00000000        0x0 Coordinator_Stk600_Atmega128rfa1_8Mhz_Gcc/Obj/fakeBSP.o
 .bss           0x00000000        0x0 Coordinator_Stk600_Atmega128rfa1_8Mhz_Gcc/Obj/fakeBSP.o
 .text.BSP_ReadSliders
                0x00000000        0x4 Coordinator_Stk600_Atmega128rfa1_8Mhz_Gcc/Obj/fakeBSP.o
 .text.BSP_OpenJoystick
                0x00000000        0x4 Coordinator_Stk600_Atmega128rfa1_8Mhz_Gcc/Obj/fakeBSP.o
 .text.BSP_CloseJoystick
                0x00000000        0x4 Coordinator_Stk600_Atmega128rfa1_8Mhz_Gcc/Obj/fakeBSP.o
 .text.BSP_ReadJoystickState
                0x00000000        0x4 Coordinator_Stk600_Atmega128rfa1_8Mhz_Gcc/Obj/fakeBSP.o
 .text          0x00000000        0x0 Coordinator_Stk600_Atmega128rfa1_8Mhz_Gcc/Obj/buttons.o
 .data          0x00000000        0x0 Coordinator_Stk600_Atmega128rfa1_8Mhz_Gcc/Obj/buttons.o
 .text.GPIO_D0_read
                0x00000000        0x6 Coordinator_Stk600_Atmega128rfa1_8Mhz_Gcc/Obj/buttons.o
 .text.GPIO_D0_make_pullup
                0x00000000        0x4 Coordinator_Stk600_Atmega128rfa1_8Mhz_Gcc/Obj/buttons.o
 .text.GPIO_D1_read
                0x00000000        0x8 Coordinator_Stk600_Atmega128rfa1_8Mhz_Gcc/Obj/buttons.o
 .text.GPIO_D1_make_pullup
                0x00000000        0x4 Coordinator_Stk600_Atmega128rfa1_8Mhz_Gcc/Obj/buttons.o
 .text.GPIO_D5_read
                0x00000000        0x8 Coordinator_Stk600_Atmega128rfa1_8Mhz_Gcc/Obj/buttons.o
 .text.GPIO_D5_make_pullup
                0x00000000        0x4 Coordinator_Stk600_Atmega128rfa1_8Mhz_Gcc/Obj/buttons.o
 .text.bspAddButton
                0x00000000       0x48 Coordinator_Stk600_Atmega128rfa1_8Mhz_Gcc/Obj/buttons.o
 .text.bspKeysInterruptHandler
                0x00000000       0x9a Coordinator_Stk600_Atmega128rfa1_8Mhz_Gcc/Obj/buttons.o
 .text.BSP_OpenButtons
                0x00000000       0xec Coordinator_Stk600_Atmega128rfa1_8Mhz_Gcc/Obj/buttons.o
 .text.BSP_CloseButtons
                0x00000000       0x42 Coordinator_Stk600_Atmega128rfa1_8Mhz_Gcc/Obj/buttons.o
 .text.BSP_ReadButtonsState
                0x00000000       0x36 Coordinator_Stk600_Atmega128rfa1_8Mhz_Gcc/Obj/buttons.o
 .text          0x00000000        0x0 Coordinator_Stk600_Atmega128rfa1_8Mhz_Gcc/Obj/leds.o
 .data          0x00000000        0x0 Coordinator_Stk600_Atmega128rfa1_8Mhz_Gcc/Obj/leds.o
 .bss           0x00000000        0x0 Coordinator_Stk600_Atmega128rfa1_8Mhz_Gcc/Obj/leds.o
 .text.BSP_CloseLeds
                0x00000000       0x10 Coordinator_Stk600_Atmega128rfa1_8Mhz_Gcc/Obj/leds.o
 .text          0x00000000        0x0 Coordinator_Stk600_Atmega128rfa1_8Mhz_Gcc/Obj/bspTaskManager.o
 .data          0x00000000        0x0 Coordinator_Stk600_Atmega128rfa1_8Mhz_Gcc/Obj/bspTaskManager.o
 .text          0x00000000        0x0 Coordinator_Stk600_Atmega128rfa1_8Mhz_Gcc/Obj/csPersistentMem.o
 .data          0x00000000        0x0 Coordinator_Stk600_Atmega128rfa1_8Mhz_Gcc/Obj/csPersistentMem.o
 .bss           0x00000000        0x0 Coordinator_Stk600_Atmega128rfa1_8Mhz_Gcc/Obj/csPersistentMem.o
 .text          0x00000000        0x0 Coordinator_Stk600_Atmega128rfa1_8Mhz_Gcc/Obj/csMem.o
 .data          0x00000000        0x0 Coordinator_Stk600_Atmega128rfa1_8Mhz_Gcc/Obj/csMem.o
 .bss           0x00000000        0x0 Coordinator_Stk600_Atmega128rfa1_8Mhz_Gcc/Obj/csMem.o
 .text          0x00000000        0x0 Coordinator_Stk600_Atmega128rfa1_8Mhz_Gcc/Obj/configServer.o
 .data          0x00000000        0x0 Coordinator_Stk600_Atmega128rfa1_8Mhz_Gcc/Obj/configServer.o
 .bss           0x00000000        0x0 Coordinator_Stk600_Atmega128rfa1_8Mhz_Gcc/Obj/configServer.o
 .text.CS_PdsDefaultValue
                0x00000000       0xf4 Coordinator_Stk600_Atmega128rfa1_8Mhz_Gcc/Obj/configServer.o
 .text          0x00000000        0x0 ./../../../../../../Atmel_lib/BitCloud_MEGARF_1_14_0/BitCloud/lib/libHAL_AtmlStk600_Atmega128rfa1_8Mhz_Gcc.a(halDelay.o)
 .data          0x00000000        0x0 ./../../../../../../Atmel_lib/BitCloud_MEGARF_1_14_0/BitCloud/lib/libHAL_AtmlStk600_Atmega128rfa1_8Mhz_Gcc.a(halDelay.o)
 .bss           0x00000000        0x0 ./../../../../../../Atmel_lib/BitCloud_MEGARF_1_14_0/BitCloud/lib/libHAL_AtmlStk600_Atmega128rfa1_8Mhz_Gcc.a(halDelay.o)
 .data          0x00000000        0x0 ./../../../../../../Atmel_lib/BitCloud_MEGARF_1_14_0/BitCloud/lib/libHAL_AtmlStk600_Atmega128rfa1_8Mhz_Gcc.a(halW1.o)
 .bss           0x00000000        0x0 ./../../../../../../Atmel_lib/BitCloud_MEGARF_1_14_0/BitCloud/lib/libHAL_AtmlStk600_Atmega128rfa1_8Mhz_Gcc.a(halW1.o)
 .text          0x00000000        0x0 ./../../../../../../Atmel_lib/BitCloud_MEGARF_1_14_0/BitCloud/lib/libHAL_AtmlStk600_Atmega128rfa1_8Mhz_Gcc.a(appTimer.o)
 .data          0x00000000        0x0 ./../../../../../../Atmel_lib/BitCloud_MEGARF_1_14_0/BitCloud/lib/libHAL_AtmlStk600_Atmega128rfa1_8Mhz_Gcc.a(appTimer.o)
 .text          0x00000000        0x0 ./../../../../../../Atmel_lib/BitCloud_MEGARF_1_14_0/BitCloud/lib/libHAL_AtmlStk600_Atmega128rfa1_8Mhz_Gcc.a(usart.o)
 .text.HAL_EnableDtrWakeUp
                0x00000000       0x10 ./../../../../../../Atmel_lib/BitCloud_MEGARF_1_14_0/BitCloud/lib/libHAL_AtmlStk600_Atmega128rfa1_8Mhz_Gcc.a(usart.o)
 .text.HAL_DisableDtrWakeUp
                0x00000000        0x6 ./../../../../../../Atmel_lib/BitCloud_MEGARF_1_14_0/BitCloud/lib/libHAL_AtmlStk600_Atmega128rfa1_8Mhz_Gcc.a(usart.o)
 .text.HAL_IsTxEmpty
                0x00000000       0x6c ./../../../../../../Atmel_lib/BitCloud_MEGARF_1_14_0/BitCloud/lib/libHAL_AtmlStk600_Atmega128rfa1_8Mhz_Gcc.a(usart.o)
 .text.HAL_CloseUsart
                0x00000000       0x7e ./../../../../../../Atmel_lib/BitCloud_MEGARF_1_14_0/BitCloud/lib/libHAL_AtmlStk600_Atmega128rfa1_8Mhz_Gcc.a(usart.o)
 .text          0x00000000        0x0 ./../../../../../../Atmel_lib/BitCloud_MEGARF_1_14_0/BitCloud/lib/libHAL_AtmlStk600_Atmega128rfa1_8Mhz_Gcc.a(irq.o)
 .data          0x00000000        0x0 ./../../../../../../Atmel_lib/BitCloud_MEGARF_1_14_0/BitCloud/lib/libHAL_AtmlStk600_Atmega128rfa1_8Mhz_Gcc.a(irq.o)
 .bss           0x00000000        0x0 ./../../../../../../Atmel_lib/BitCloud_MEGARF_1_14_0/BitCloud/lib/libHAL_AtmlStk600_Atmega128rfa1_8Mhz_Gcc.a(irq.o)
 .text.HAL_RegisterIrq
                0x00000000       0x5a ./../../../../../../Atmel_lib/BitCloud_MEGARF_1_14_0/BitCloud/lib/libHAL_AtmlStk600_Atmega128rfa1_8Mhz_Gcc.a(irq.o)
 .text.HAL_EnableIrq
                0x00000000       0x3c ./../../../../../../Atmel_lib/BitCloud_MEGARF_1_14_0/BitCloud/lib/libHAL_AtmlStk600_Atmega128rfa1_8Mhz_Gcc.a(irq.o)
 .text.HAL_DisableIrq
                0x00000000       0x3e ./../../../../../../Atmel_lib/BitCloud_MEGARF_1_14_0/BitCloud/lib/libHAL_AtmlStk600_Atmega128rfa1_8Mhz_Gcc.a(irq.o)
 .text.HAL_UnregisterIrq
                0x00000000       0x50 ./../../../../../../Atmel_lib/BitCloud_MEGARF_1_14_0/BitCloud/lib/libHAL_AtmlStk600_Atmega128rfa1_8Mhz_Gcc.a(irq.o)
 .text          0x00000000        0x0 ./../../../../../../Atmel_lib/BitCloud_MEGARF_1_14_0/BitCloud/lib/libHAL_AtmlStk600_Atmega128rfa1_8Mhz_Gcc.a(eeprom.o)
 .data          0x00000000        0x0 ./../../../../../../Atmel_lib/BitCloud_MEGARF_1_14_0/BitCloud/lib/libHAL_AtmlStk600_Atmega128rfa1_8Mhz_Gcc.a(eeprom.o)
 .text          0x00000000        0x0 ./../../../../../../Atmel_lib/BitCloud_MEGARF_1_14_0/BitCloud/lib/libHAL_AtmlStk600_Atmega128rfa1_8Mhz_Gcc.a(timer.o)
 .data          0x00000000        0x0 ./../../../../../../Atmel_lib/BitCloud_MEGARF_1_14_0/BitCloud/lib/libHAL_AtmlStk600_Atmega128rfa1_8Mhz_Gcc.a(timer.o)
 .bss           0x00000000        0x0 ./../../../../../../Atmel_lib/BitCloud_MEGARF_1_14_0/BitCloud/lib/libHAL_AtmlStk600_Atmega128rfa1_8Mhz_Gcc.a(timer.o)
 .text          0x00000000        0x0 ./../../../../../../Atmel_lib/BitCloud_MEGARF_1_14_0/BitCloud/lib/libHAL_AtmlStk600_Atmega128rfa1_8Mhz_Gcc.a(halSleepTimerClock.o)
 .data          0x00000000        0x0 ./../../../../../../Atmel_lib/BitCloud_MEGARF_1_14_0/BitCloud/lib/libHAL_AtmlStk600_Atmega128rfa1_8Mhz_Gcc.a(halSleepTimerClock.o)
 .text          0x00000000        0x0 ./../../../../../../Atmel_lib/BitCloud_MEGARF_1_14_0/BitCloud/lib/libHAL_AtmlStk600_Atmega128rfa1_8Mhz_Gcc.a(halAppClock.o)
 .data          0x00000000        0x0 ./../../../../../../Atmel_lib/BitCloud_MEGARF_1_14_0/BitCloud/lib/libHAL_AtmlStk600_Atmega128rfa1_8Mhz_Gcc.a(halAppClock.o)
 .text.halGetSystemTimeUs
                0x00000000       0x58 ./../../../../../../Atmel_lib/BitCloud_MEGARF_1_14_0/BitCloud/lib/libHAL_AtmlStk600_Atmega128rfa1_8Mhz_Gcc.a(halAppClock.o)
 .text          0x00000000        0x0 ./../../../../../../Atmel_lib/BitCloud_MEGARF_1_14_0/BitCloud/lib/libHAL_AtmlStk600_Atmega128rfa1_8Mhz_Gcc.a(halUsart.o)
 .data          0x00000000        0x0 ./../../../../../../Atmel_lib/BitCloud_MEGARF_1_14_0/BitCloud/lib/libHAL_AtmlStk600_Atmega128rfa1_8Mhz_Gcc.a(halUsart.o)
 .bss           0x00000000        0x0 ./../../../../../../Atmel_lib/BitCloud_MEGARF_1_14_0/BitCloud/lib/libHAL_AtmlStk600_Atmega128rfa1_8Mhz_Gcc.a(halUsart.o)
 .text          0x00000000        0x0 ./../../../../../../Atmel_lib/BitCloud_MEGARF_1_14_0/BitCloud/lib/libHAL_AtmlStk600_Atmega128rfa1_8Mhz_Gcc.a(halIrq.o)
 .data          0x00000000        0x0 ./../../../../../../Atmel_lib/BitCloud_MEGARF_1_14_0/BitCloud/lib/libHAL_AtmlStk600_Atmega128rfa1_8Mhz_Gcc.a(halIrq.o)
 .text.halSetIrqConfig
                0x00000000       0xd0 ./../../../../../../Atmel_lib/BitCloud_MEGARF_1_14_0/BitCloud/lib/libHAL_AtmlStk600_Atmega128rfa1_8Mhz_Gcc.a(halIrq.o)
 .text.halClrIrqConfig
                0x00000000       0x7e ./../../../../../../Atmel_lib/BitCloud_MEGARF_1_14_0/BitCloud/lib/libHAL_AtmlStk600_Atmega128rfa1_8Mhz_Gcc.a(halIrq.o)
 .text          0x00000000        0x0 ./../../../../../../Atmel_lib/BitCloud_MEGARF_1_14_0/BitCloud/lib/libHAL_AtmlStk600_Atmega128rfa1_8Mhz_Gcc.a(halEeprom.o)
 .data          0x00000000        0x0 ./../../../../../../Atmel_lib/BitCloud_MEGARF_1_14_0/BitCloud/lib/libHAL_AtmlStk600_Atmega128rfa1_8Mhz_Gcc.a(halEeprom.o)
 .bss           0x00000000        0x0 ./../../../../../../Atmel_lib/BitCloud_MEGARF_1_14_0/BitCloud/lib/libHAL_AtmlStk600_Atmega128rfa1_8Mhz_Gcc.a(halEeprom.o)
 .text          0x00000000        0x0 ./../../../../../../Atmel_lib/BitCloud_MEGARF_1_14_0/BitCloud/lib/libHAL_AtmlStk600_Atmega128rfa1_8Mhz_Gcc.a(halSleep.o)
 .data          0x00000000        0x0 ./../../../../../../Atmel_lib/BitCloud_MEGARF_1_14_0/BitCloud/lib/libHAL_AtmlStk600_Atmega128rfa1_8Mhz_Gcc.a(halSleep.o)
 .text.HAL_IdleMode
                0x00000000        0xa ./../../../../../../Atmel_lib/BitCloud_MEGARF_1_14_0/BitCloud/lib/libHAL_AtmlStk600_Atmega128rfa1_8Mhz_Gcc.a(halSleep.o)
 .text          0x00000000        0x0 ./../../../../../../Atmel_lib/BitCloud_MEGARF_1_14_0/BitCloud/lib/libHAL_AtmlStk600_Atmega128rfa1_8Mhz_Gcc.a(calibration.o)
 .data          0x00000000        0x0 ./../../../../../../Atmel_lib/BitCloud_MEGARF_1_14_0/BitCloud/lib/libHAL_AtmlStk600_Atmega128rfa1_8Mhz_Gcc.a(calibration.o)
 .bss           0x00000000        0x0 ./../../../../../../Atmel_lib/BitCloud_MEGARF_1_14_0/BitCloud/lib/libHAL_AtmlStk600_Atmega128rfa1_8Mhz_Gcc.a(calibration.o)
 .data          0x00000000        0x0 ./../../../../../../Atmel_lib/BitCloud_MEGARF_1_14_0/BitCloud/lib/libHAL_AtmlStk600_Atmega128rfa1_8Mhz_Gcc.a(halCalibration.o)
 .bss           0x00000000        0x0 ./../../../../../../Atmel_lib/BitCloud_MEGARF_1_14_0/BitCloud/lib/libHAL_AtmlStk600_Atmega128rfa1_8Mhz_Gcc.a(halCalibration.o)
 .text          0x00000000        0x0 ./../../../../../../Atmel_lib/BitCloud_MEGARF_1_14_0/BitCloud/lib/libHAL_AtmlStk600_Atmega128rfa1_8Mhz_Gcc.a(halTaskManager.o)
 .data          0x00000000        0x0 ./../../../../../../Atmel_lib/BitCloud_MEGARF_1_14_0/BitCloud/lib/libHAL_AtmlStk600_Atmega128rfa1_8Mhz_Gcc.a(halTaskManager.o)
 .text          0x00000000        0x0 ./../../../../../../Atmel_lib/BitCloud_MEGARF_1_14_0/BitCloud/lib/libHAL_AtmlStk600_Atmega128rfa1_8Mhz_Gcc.a(i2cPacket.o)
 .data          0x00000000        0x0 ./../../../../../../Atmel_lib/BitCloud_MEGARF_1_14_0/BitCloud/lib/libHAL_AtmlStk600_Atmega128rfa1_8Mhz_Gcc.a(i2cPacket.o)
 .text.HAL_OpenI2cPacket
                0x00000000       0x40 ./../../../../../../Atmel_lib/BitCloud_MEGARF_1_14_0/BitCloud/lib/libHAL_AtmlStk600_Atmega128rfa1_8Mhz_Gcc.a(i2cPacket.o)
 .text.HAL_CloseI2cPacket
                0x00000000       0x32 ./../../../../../../Atmel_lib/BitCloud_MEGARF_1_14_0/BitCloud/lib/libHAL_AtmlStk600_Atmega128rfa1_8Mhz_Gcc.a(i2cPacket.o)
 .text.HAL_WriteI2cPacket
                0x00000000       0x52 ./../../../../../../Atmel_lib/BitCloud_MEGARF_1_14_0/BitCloud/lib/libHAL_AtmlStk600_Atmega128rfa1_8Mhz_Gcc.a(i2cPacket.o)
 .text.HAL_ReadI2cPacket
                0x00000000       0x52 ./../../../../../../Atmel_lib/BitCloud_MEGARF_1_14_0/BitCloud/lib/libHAL_AtmlStk600_Atmega128rfa1_8Mhz_Gcc.a(i2cPacket.o)
 .text          0x00000000        0x0 ./../../../../../../Atmel_lib/BitCloud_MEGARF_1_14_0/BitCloud/lib/libHAL_AtmlStk600_Atmega128rfa1_8Mhz_Gcc.a(adc.o)
 .data          0x00000000        0x0 ./../../../../../../Atmel_lib/BitCloud_MEGARF_1_14_0/BitCloud/lib/libHAL_AtmlStk600_Atmega128rfa1_8Mhz_Gcc.a(adc.o)
 .text.HAL_OpenAdc
                0x00000000       0x54 ./../../../../../../Atmel_lib/BitCloud_MEGARF_1_14_0/BitCloud/lib/libHAL_AtmlStk600_Atmega128rfa1_8Mhz_Gcc.a(adc.o)
 .text.HAL_ReadAdc
                0x00000000       0x2e ./../../../../../../Atmel_lib/BitCloud_MEGARF_1_14_0/BitCloud/lib/libHAL_AtmlStk600_Atmega128rfa1_8Mhz_Gcc.a(adc.o)
 .text.HAL_CloseAdc
                0x00000000       0x28 ./../../../../../../Atmel_lib/BitCloud_MEGARF_1_14_0/BitCloud/lib/libHAL_AtmlStk600_Atmega128rfa1_8Mhz_Gcc.a(adc.o)
 .text          0x00000000        0x0 ./../../../../../../Atmel_lib/BitCloud_MEGARF_1_14_0/BitCloud/lib/libHAL_AtmlStk600_Atmega128rfa1_8Mhz_Gcc.a(spi.o)
 .data          0x00000000        0x0 ./../../../../../../Atmel_lib/BitCloud_MEGARF_1_14_0/BitCloud/lib/libHAL_AtmlStk600_Atmega128rfa1_8Mhz_Gcc.a(spi.o)
 .bss           0x00000000        0x0 ./../../../../../../Atmel_lib/BitCloud_MEGARF_1_14_0/BitCloud/lib/libHAL_AtmlStk600_Atmega128rfa1_8Mhz_Gcc.a(spi.o)
 .text.isClosedPd
                0x00000000        0xc ./../../../../../../Atmel_lib/BitCloud_MEGARF_1_14_0/BitCloud/lib/libHAL_AtmlStk600_Atmega128rfa1_8Mhz_Gcc.a(spi.o)
 .text.isOpenedPd
                0x00000000        0xc ./../../../../../../Atmel_lib/BitCloud_MEGARF_1_14_0/BitCloud/lib/libHAL_AtmlStk600_Atmega128rfa1_8Mhz_Gcc.a(spi.o)
 .text.halCheckSpiDescriptor
                0x00000000       0x2a ./../../../../../../Atmel_lib/BitCloud_MEGARF_1_14_0/BitCloud/lib/libHAL_AtmlStk600_Atmega128rfa1_8Mhz_Gcc.a(spi.o)
 .text.halCheckUsartDescriptor
                0x00000000       0x5a ./../../../../../../Atmel_lib/BitCloud_MEGARF_1_14_0/BitCloud/lib/libHAL_AtmlStk600_Atmega128rfa1_8Mhz_Gcc.a(spi.o)
 .text.HAL_OpenSpi
                0x00000000       0x8c ./../../../../../../Atmel_lib/BitCloud_MEGARF_1_14_0/BitCloud/lib/libHAL_AtmlStk600_Atmega128rfa1_8Mhz_Gcc.a(spi.o)
 .text.HAL_CloseSpi
                0x00000000       0x64 ./../../../../../../Atmel_lib/BitCloud_MEGARF_1_14_0/BitCloud/lib/libHAL_AtmlStk600_Atmega128rfa1_8Mhz_Gcc.a(spi.o)
 .text.HAL_WriteSpi
                0x00000000      0x120 ./../../../../../../Atmel_lib/BitCloud_MEGARF_1_14_0/BitCloud/lib/libHAL_AtmlStk600_Atmega128rfa1_8Mhz_Gcc.a(spi.o)
 .text.HAL_ReadSpi
                0x00000000      0x146 ./../../../../../../Atmel_lib/BitCloud_MEGARF_1_14_0/BitCloud/lib/libHAL_AtmlStk600_Atmega128rfa1_8Mhz_Gcc.a(spi.o)
 .text          0x00000000        0x0 ./../../../../../../Atmel_lib/BitCloud_MEGARF_1_14_0/BitCloud/lib/libHAL_AtmlStk600_Atmega128rfa1_8Mhz_Gcc.a(sleep.o)
 .data          0x00000000        0x0 ./../../../../../../Atmel_lib/BitCloud_MEGARF_1_14_0/BitCloud/lib/libHAL_AtmlStk600_Atmega128rfa1_8Mhz_Gcc.a(sleep.o)
 .text          0x00000000        0x0 ./../../../../../../Atmel_lib/BitCloud_MEGARF_1_14_0/BitCloud/lib/libHAL_AtmlStk600_Atmega128rfa1_8Mhz_Gcc.a(halSecurityModule.o)
 .data          0x00000000        0x0 ./../../../../../../Atmel_lib/BitCloud_MEGARF_1_14_0/BitCloud/lib/libHAL_AtmlStk600_Atmega128rfa1_8Mhz_Gcc.a(halSecurityModule.o)
 .text.HAL_SmEncryptReq
                0x00000000       0x2e ./../../../../../../Atmel_lib/BitCloud_MEGARF_1_14_0/BitCloud/lib/libHAL_AtmlStk600_Atmega128rfa1_8Mhz_Gcc.a(halSecurityModule.o)
 .text          0x00000000        0x0 ./../../../../../../Atmel_lib/BitCloud_MEGARF_1_14_0/BitCloud/lib/libHAL_AtmlStk600_Atmega128rfa1_8Mhz_Gcc.a(halClkCtrl.o)
 .data          0x00000000        0x0 ./../../../../../../Atmel_lib/BitCloud_MEGARF_1_14_0/BitCloud/lib/libHAL_AtmlStk600_Atmega128rfa1_8Mhz_Gcc.a(halClkCtrl.o)
 .text.HAL_ReadFreq
                0x00000000        0xa ./../../../../../../Atmel_lib/BitCloud_MEGARF_1_14_0/BitCloud/lib/libHAL_AtmlStk600_Atmega128rfa1_8Mhz_Gcc.a(halClkCtrl.o)
 .text          0x00000000        0x0 ./../../../../../../Atmel_lib/BitCloud_MEGARF_1_14_0/BitCloud/lib/libHAL_AtmlStk600_Atmega128rfa1_8Mhz_Gcc.a(halTwi.o)
 .data          0x00000000        0x0 ./../../../../../../Atmel_lib/BitCloud_MEGARF_1_14_0/BitCloud/lib/libHAL_AtmlStk600_Atmega128rfa1_8Mhz_Gcc.a(halTwi.o)
 .bss           0x00000000        0x0 ./../../../../../../Atmel_lib/BitCloud_MEGARF_1_14_0/BitCloud/lib/libHAL_AtmlStk600_Atmega128rfa1_8Mhz_Gcc.a(halTwi.o)
 .text.halInitI2c
                0x00000000        0xe ./../../../../../../Atmel_lib/BitCloud_MEGARF_1_14_0/BitCloud/lib/libHAL_AtmlStk600_Atmega128rfa1_8Mhz_Gcc.a(halTwi.o)
 .text          0x00000000        0x0 ./../../../../../../Atmel_lib/BitCloud_MEGARF_1_14_0/BitCloud/lib/libHAL_AtmlStk600_Atmega128rfa1_8Mhz_Gcc.a(halAdc.o)
 .data          0x00000000        0x0 ./../../../../../../Atmel_lib/BitCloud_MEGARF_1_14_0/BitCloud/lib/libHAL_AtmlStk600_Atmega128rfa1_8Mhz_Gcc.a(halAdc.o)
 .bss           0x00000000        0x0 ./../../../../../../Atmel_lib/BitCloud_MEGARF_1_14_0/BitCloud/lib/libHAL_AtmlStk600_Atmega128rfa1_8Mhz_Gcc.a(halAdc.o)
 .text.halOpenAdc
                0x00000000       0x56 ./../../../../../../Atmel_lib/BitCloud_MEGARF_1_14_0/BitCloud/lib/libHAL_AtmlStk600_Atmega128rfa1_8Mhz_Gcc.a(halAdc.o)
 .text.halStartAdc
                0x00000000       0xa6 ./../../../../../../Atmel_lib/BitCloud_MEGARF_1_14_0/BitCloud/lib/libHAL_AtmlStk600_Atmega128rfa1_8Mhz_Gcc.a(halAdc.o)
 .text.halCloseAdc
                0x00000000        0xe ./../../../../../../Atmel_lib/BitCloud_MEGARF_1_14_0/BitCloud/lib/libHAL_AtmlStk600_Atmega128rfa1_8Mhz_Gcc.a(halAdc.o)
 .progmem.data  0x00000000        0x5 ./../../../../../../Atmel_lib/BitCloud_MEGARF_1_14_0/BitCloud/lib/libHAL_AtmlStk600_Atmega128rfa1_8Mhz_Gcc.a(halAdc.o)
 .text          0x00000000        0x0 ./../../../../../../Atmel_lib/BitCloud_MEGARF_1_14_0/BitCloud/lib/libHAL_AtmlStk600_Atmega128rfa1_8Mhz_Gcc.a(halSpi.o)
 .data          0x00000000        0x0 ./../../../../../../Atmel_lib/BitCloud_MEGARF_1_14_0/BitCloud/lib/libHAL_AtmlStk600_Atmega128rfa1_8Mhz_Gcc.a(halSpi.o)
 .text.halSetUsartSpiConfig
                0x00000000       0x98 ./../../../../../../Atmel_lib/BitCloud_MEGARF_1_14_0/BitCloud/lib/libHAL_AtmlStk600_Atmega128rfa1_8Mhz_Gcc.a(halSpi.o)
 .text.halClearUsartSpi
                0x00000000       0x16 ./../../../../../../Atmel_lib/BitCloud_MEGARF_1_14_0/BitCloud/lib/libHAL_AtmlStk600_Atmega128rfa1_8Mhz_Gcc.a(halSpi.o)
 .text.halSetSlaveSpiConfig
                0x00000000       0x58 ./../../../../../../Atmel_lib/BitCloud_MEGARF_1_14_0/BitCloud/lib/libHAL_AtmlStk600_Atmega128rfa1_8Mhz_Gcc.a(halSpi.o)
 .text.halSyncUsartSpiWriteData
                0x00000000       0x3c ./../../../../../../Atmel_lib/BitCloud_MEGARF_1_14_0/BitCloud/lib/libHAL_AtmlStk600_Atmega128rfa1_8Mhz_Gcc.a(halSpi.o)
 .text.halSyncUsartSpiReadData
                0x00000000       0x3c ./../../../../../../Atmel_lib/BitCloud_MEGARF_1_14_0/BitCloud/lib/libHAL_AtmlStk600_Atmega128rfa1_8Mhz_Gcc.a(halSpi.o)
 .text          0x00000000        0x0 ./../../../../../../Atmel_lib/BitCloud_MEGARF_1_14_0/BitCloud/lib/libHAL_AtmlStk600_Atmega128rfa1_8Mhz_Gcc.a(sleepTimer.o)
 .data          0x00000000        0x0 ./../../../../../../Atmel_lib/BitCloud_MEGARF_1_14_0/BitCloud/lib/libHAL_AtmlStk600_Atmega128rfa1_8Mhz_Gcc.a(sleepTimer.o)
 .bss           0x00000000        0x0 ./../../../../../../Atmel_lib/BitCloud_MEGARF_1_14_0/BitCloud/lib/libHAL_AtmlStk600_Atmega128rfa1_8Mhz_Gcc.a(sleepTimer.o)
 .text.HAL_StopSleepTimer
                0x00000000       0x24 ./../../../../../../Atmel_lib/BitCloud_MEGARF_1_14_0/BitCloud/lib/libHAL_AtmlStk600_Atmega128rfa1_8Mhz_Gcc.a(sleepTimer.o)
 .text          0x00000000        0x0 ./../../../../../../Atmel_lib/BitCloud_MEGARF_1_14_0/BitCloud/lib/libBc_Coordinator_Atmega128rfa1_Atmega128rfa1_Gcc.a(aps.o)
 .data          0x00000000        0x0 ./../../../../../../Atmel_lib/BitCloud_MEGARF_1_14_0/BitCloud/lib/libBc_Coordinator_Atmega128rfa1_Atmega128rfa1_Gcc.a(aps.o)
 .text.APS_DeactivateBindRecords
                0x00000000       0x5a ./../../../../../../Atmel_lib/BitCloud_MEGARF_1_14_0/BitCloud/lib/libBc_Coordinator_Atmega128rfa1_Atmega128rfa1_Gcc.a(aps.o)
 .text.APS_ActivateBindRecords
                0x00000000       0x5a ./../../../../../../Atmel_lib/BitCloud_MEGARF_1_14_0/BitCloud/lib/libBc_Coordinator_Atmega128rfa1_Atmega128rfa1_Gcc.a(aps.o)
 .text.APS_NextBindingEntry
                0x00000000       0x46 ./../../../../../../Atmel_lib/BitCloud_MEGARF_1_14_0/BitCloud/lib/libBc_Coordinator_Atmega128rfa1_Atmega128rfa1_Gcc.a(aps.o)
 .text.APS_UnregisterEndpointReq
                0x00000000       0x2c ./../../../../../../Atmel_lib/BitCloud_MEGARF_1_14_0/BitCloud/lib/libBc_Coordinator_Atmega128rfa1_Atmega128rfa1_Gcc.a(aps.o)
 .text.apsSetNoIndicationFlag
                0x00000000       0x42 ./../../../../../../Atmel_lib/BitCloud_MEGARF_1_14_0/BitCloud/lib/libBc_Coordinator_Atmega128rfa1_Atmega128rfa1_Gcc.a(aps.o)
 .text.APS_StopEndpointIndication
                0x00000000        0x8 ./../../../../../../Atmel_lib/BitCloud_MEGARF_1_14_0/BitCloud/lib/libBc_Coordinator_Atmega128rfa1_Atmega128rfa1_Gcc.a(aps.o)
 .text.APS_ResumeEndpointIndication
                0x00000000        0x8 ./../../../../../../Atmel_lib/BitCloud_MEGARF_1_14_0/BitCloud/lib/libBc_Coordinator_Atmega128rfa1_Atmega128rfa1_Gcc.a(aps.o)
 .text.APS_AddGroupReq
                0x00000000       0x22 ./../../../../../../Atmel_lib/BitCloud_MEGARF_1_14_0/BitCloud/lib/libBc_Coordinator_Atmega128rfa1_Atmega128rfa1_Gcc.a(aps.o)
 .text.APS_RemoveGroupReq
                0x00000000       0x22 ./../../../../../../Atmel_lib/BitCloud_MEGARF_1_14_0/BitCloud/lib/libBc_Coordinator_Atmega128rfa1_Atmega128rfa1_Gcc.a(aps.o)
 .text.APS_RemoveAllGroupsReq
                0x00000000       0x1e ./../../../../../../Atmel_lib/BitCloud_MEGARF_1_14_0/BitCloud/lib/libBc_Coordinator_Atmega128rfa1_Atmega128rfa1_Gcc.a(aps.o)
 .text.APS_IsStarted
                0x00000000       0x16 ./../../../../../../Atmel_lib/BitCloud_MEGARF_1_14_0/BitCloud/lib/libBc_Coordinator_Atmega128rfa1_Atmega128rfa1_Gcc.a(aps.o)
 .text          0x00000000        0x0 ./../../../../../../Atmel_lib/BitCloud_MEGARF_1_14_0/BitCloud/lib/libBc_Coordinator_Atmega128rfa1_Atmega128rfa1_Gcc.a(macenvPib.o)
 .data          0x00000000        0x0 ./../../../../../../Atmel_lib/BitCloud_MEGARF_1_14_0/BitCloud/lib/libBc_Coordinator_Atmega128rfa1_Atmega128rfa1_Gcc.a(macenvPib.o)
 .bss           0x00000000        0x0 ./../../../../../../Atmel_lib/BitCloud_MEGARF_1_14_0/BitCloud/lib/libBc_Coordinator_Atmega128rfa1_Atmega128rfa1_Gcc.a(macenvPib.o)
 .text          0x00000000        0x0 ./../../../../../../Atmel_lib/BitCloud_MEGARF_1_14_0/BitCloud/lib/libBc_Coordinator_Atmega128rfa1_Atmega128rfa1_Gcc.a(nwk.o)
 .bss           0x00000000       0x12 ./../../../../../../Atmel_lib/BitCloud_MEGARF_1_14_0/BitCloud/lib/libBc_Coordinator_Atmega128rfa1_Atmega128rfa1_Gcc.a(nwk.o)
 .text.nwkAddressMacSetConf
                0x00000000       0x5a ./../../../../../../Atmel_lib/BitCloud_MEGARF_1_14_0/BitCloud/lib/libBc_Coordinator_Atmega128rfa1_Atmega128rfa1_Gcc.a(nwk.o)
 .text.NWK_SetShortAddr
                0x00000000       0x52 ./../../../../../../Atmel_lib/BitCloud_MEGARF_1_14_0/BitCloud/lib/libBc_Coordinator_Atmega128rfa1_Atmega128rfa1_Gcc.a(nwk.o)
 .text.NWK_NetworkDiscoveryReq
                0x00000000       0x20 ./../../../../../../Atmel_lib/BitCloud_MEGARF_1_14_0/BitCloud/lib/libBc_Coordinator_Atmega128rfa1_Atmega128rfa1_Gcc.a(nwk.o)
 .text.NWK_AddGroup
                0x00000000       0x36 ./../../../../../../Atmel_lib/BitCloud_MEGARF_1_14_0/BitCloud/lib/libBc_Coordinator_Atmega128rfa1_Atmega128rfa1_Gcc.a(nwk.o)
 .text.NWK_RemoveGroup
                0x00000000       0x58 ./../../../../../../Atmel_lib/BitCloud_MEGARF_1_14_0/BitCloud/lib/libBc_Coordinator_Atmega128rfa1_Atmega128rfa1_Gcc.a(nwk.o)
 .text.NWK_RemoveAllGroups
                0x00000000       0x42 ./../../../../../../Atmel_lib/BitCloud_MEGARF_1_14_0/BitCloud/lib/libBc_Coordinator_Atmega128rfa1_Atmega128rfa1_Gcc.a(nwk.o)
 .text.NWK_GroupCapacity
                0x00000000       0x24 ./../../../../../../Atmel_lib/BitCloud_MEGARF_1_14_0/BitCloud/lib/libBc_Coordinator_Atmega128rfa1_Atmega128rfa1_Gcc.a(nwk.o)
 .text.NWK_NextGroup
                0x00000000       0x32 ./../../../../../../Atmel_lib/BitCloud_MEGARF_1_14_0/BitCloud/lib/libBc_Coordinator_Atmega128rfa1_Atmega128rfa1_Gcc.a(nwk.o)
 .text.NWK_GetUpdateId
                0x00000000        0x6 ./../../../../../../Atmel_lib/BitCloud_MEGARF_1_14_0/BitCloud/lib/libBc_Coordinator_Atmega128rfa1_Atmega128rfa1_Gcc.a(nwk.o)
 .text.NWK_SetSymLink
                0x00000000        0x6 ./../../../../../../Atmel_lib/BitCloud_MEGARF_1_14_0/BitCloud/lib/libBc_Coordinator_Atmega128rfa1_Atmega128rfa1_Gcc.a(nwk.o)
 .text.NWK_GetProtocolVersion
                0x00000000        0x6 ./../../../../../../Atmel_lib/BitCloud_MEGARF_1_14_0/BitCloud/lib/libBc_Coordinator_Atmega128rfa1_Atmega128rfa1_Gcc.a(nwk.o)
 .text.NWK_FindAnyRouteAtFirstTime
                0x00000000        0x6 ./../../../../../../Atmel_lib/BitCloud_MEGARF_1_14_0/BitCloud/lib/libBc_Coordinator_Atmega128rfa1_Atmega128rfa1_Gcc.a(nwk.o)
 .text.NWK_NextEDChild
                0x00000000       0x46 ./../../../../../../Atmel_lib/BitCloud_MEGARF_1_14_0/BitCloud/lib/libBc_Coordinator_Atmega128rfa1_Atmega128rfa1_Gcc.a(nwk.o)
 .text.NWK_SetRejoinPermit
                0x00000000        0xa ./../../../../../../Atmel_lib/BitCloud_MEGARF_1_14_0/BitCloud/lib/libBc_Coordinator_Atmega128rfa1_Atmega128rfa1_Gcc.a(nwk.o)
 .text.NWK_GetNextHop
                0x00000000       0x4c ./../../../../../../Atmel_lib/BitCloud_MEGARF_1_14_0/BitCloud/lib/libBc_Coordinator_Atmega128rfa1_Atmega128rfa1_Gcc.a(nwk.o)
 .text.NWK_SetFailRouteOrder
                0x00000000       0x10 ./../../../../../../Atmel_lib/BitCloud_MEGARF_1_14_0/BitCloud/lib/libBc_Coordinator_Atmega128rfa1_Atmega128rfa1_Gcc.a(nwk.o)
 .text          0x00000000        0x0 ./../../../../../../Atmel_lib/BitCloud_MEGARF_1_14_0/BitCloud/lib/libBc_Coordinator_Atmega128rfa1_Atmega128rfa1_Gcc.a(phyRxTxIndicator.o)
 .data          0x00000000        0x0 ./../../../../../../Atmel_lib/BitCloud_MEGARF_1_14_0/BitCloud/lib/libBc_Coordinator_Atmega128rfa1_Atmega128rfa1_Gcc.a(phyRxTxIndicator.o)
 .bss           0x00000000        0x0 ./../../../../../../Atmel_lib/BitCloud_MEGARF_1_14_0/BitCloud/lib/libBc_Coordinator_Atmega128rfa1_Atmega128rfa1_Gcc.a(phyRxTxIndicator.o)
 .text          0x00000000        0x0 ./../../../../../../Atmel_lib/BitCloud_MEGARF_1_14_0/BitCloud/lib/libBc_Coordinator_Atmega128rfa1_Atmega128rfa1_Gcc.a(phyStateMachine.o)
 .data          0x00000000        0x0 ./../../../../../../Atmel_lib/BitCloud_MEGARF_1_14_0/BitCloud/lib/libBc_Coordinator_Atmega128rfa1_Atmega128rfa1_Gcc.a(phyStateMachine.o)
 .text          0x00000000        0x0 ./../../../../../../Atmel_lib/BitCloud_MEGARF_1_14_0/BitCloud/lib/libBc_Coordinator_Atmega128rfa1_Atmega128rfa1_Gcc.a(queue.o)
 .data          0x00000000        0x0 ./../../../../../../Atmel_lib/BitCloud_MEGARF_1_14_0/BitCloud/lib/libBc_Coordinator_Atmega128rfa1_Atmega128rfa1_Gcc.a(queue.o)
 .bss           0x00000000        0x0 ./../../../../../../Atmel_lib/BitCloud_MEGARF_1_14_0/BitCloud/lib/libBc_Coordinator_Atmega128rfa1_Atmega128rfa1_Gcc.a(queue.o)
 .text          0x00000000        0x0 ./../../../../../../Atmel_lib/BitCloud_MEGARF_1_14_0/BitCloud/lib/libBc_Coordinator_Atmega128rfa1_Atmega128rfa1_Gcc.a(sysDuplicateTable.o)
 .data          0x00000000        0x0 ./../../../../../../Atmel_lib/BitCloud_MEGARF_1_14_0/BitCloud/lib/libBc_Coordinator_Atmega128rfa1_Atmega128rfa1_Gcc.a(sysDuplicateTable.o)
 .bss           0x00000000        0x0 ./../../../../../../Atmel_lib/BitCloud_MEGARF_1_14_0/BitCloud/lib/libBc_Coordinator_Atmega128rfa1_Atmega128rfa1_Gcc.a(sysDuplicateTable.o)
 .text          0x00000000        0x0 ./../../../../../../Atmel_lib/BitCloud_MEGARF_1_14_0/BitCloud/lib/libBc_Coordinator_Atmega128rfa1_Atmega128rfa1_Gcc.a(sysEvents.o)
 .data          0x00000000        0x0 ./../../../../../../Atmel_lib/BitCloud_MEGARF_1_14_0/BitCloud/lib/libBc_Coordinator_Atmega128rfa1_Atmega128rfa1_Gcc.a(sysEvents.o)
 .text.SYS_UnsubscribeFromEvent
                0x00000000       0x7c ./../../../../../../Atmel_lib/BitCloud_MEGARF_1_14_0/BitCloud/lib/libBc_Coordinator_Atmega128rfa1_Atmega128rfa1_Gcc.a(sysEvents.o)
 .text          0x00000000        0x0 ./../../../../../../Atmel_lib/BitCloud_MEGARF_1_14_0/BitCloud/lib/libBc_Coordinator_Atmega128rfa1_Atmega128rfa1_Gcc.a(sysTimer.o)
 .data          0x00000000        0x0 ./../../../../../../Atmel_lib/BitCloud_MEGARF_1_14_0/BitCloud/lib/libBc_Coordinator_Atmega128rfa1_Atmega128rfa1_Gcc.a(sysTimer.o)
 .bss           0x00000000        0x0 ./../../../../../../Atmel_lib/BitCloud_MEGARF_1_14_0/BitCloud/lib/libBc_Coordinator_Atmega128rfa1_Atmega128rfa1_Gcc.a(sysTimer.o)
 .text          0x00000000        0x0 ./../../../../../../Atmel_lib/BitCloud_MEGARF_1_14_0/BitCloud/lib/libBc_Coordinator_Atmega128rfa1_Atmega128rfa1_Gcc.a(taskManager.o)
 .text          0x00000000        0x0 ./../../../../../../Atmel_lib/BitCloud_MEGARF_1_14_0/BitCloud/lib/libBc_Coordinator_Atmega128rfa1_Atmega128rfa1_Gcc.a(zdo.o)
 .bss           0x00000000        0x0 ./../../../../../../Atmel_lib/BitCloud_MEGARF_1_14_0/BitCloud/lib/libBc_Coordinator_Atmega128rfa1_Atmega128rfa1_Gcc.a(zdo.o)
 .text.setTxPowerConf
                0x00000000       0x30 ./../../../../../../Atmel_lib/BitCloud_MEGARF_1_14_0/BitCloud/lib/libBc_Coordinator_Atmega128rfa1_Atmega128rfa1_Gcc.a(zdo.o)
 .text.zdoResetNetworkConf
                0x00000000       0x3c ./../../../../../../Atmel_lib/BitCloud_MEGARF_1_14_0/BitCloud/lib/libBc_Coordinator_Atmega128rfa1_Atmega128rfa1_Gcc.a(zdo.o)
 .text.ZDO_GetNwkStatus
                0x00000000       0x10 ./../../../../../../Atmel_lib/BitCloud_MEGARF_1_14_0/BitCloud/lib/libBc_Coordinator_Atmega128rfa1_Atmega128rfa1_Gcc.a(zdo.o)
 .text.ZDO_NotifyGeneral
                0x00000000        0x6 ./../../../../../../Atmel_lib/BitCloud_MEGARF_1_14_0/BitCloud/lib/libBc_Coordinator_Atmega128rfa1_Atmega128rfa1_Gcc.a(zdo.o)
 .text.ZDO_GetParentAddr
                0x00000000       0x62 ./../../../../../../Atmel_lib/BitCloud_MEGARF_1_14_0/BitCloud/lib/libBc_Coordinator_Atmega128rfa1_Atmega128rfa1_Gcc.a(zdo.o)
 .text.ZDO_GetChildrenAddr
                0x00000000       0xd0 ./../../../../../../Atmel_lib/BitCloud_MEGARF_1_14_0/BitCloud/lib/libBc_Coordinator_Atmega128rfa1_Atmega128rfa1_Gcc.a(zdo.o)
 .text.ZDO_SetTxPowerReq
                0x00000000       0x4c ./../../../../../../Atmel_lib/BitCloud_MEGARF_1_14_0/BitCloud/lib/libBc_Coordinator_Atmega128rfa1_Atmega128rfa1_Gcc.a(zdo.o)
 .text.ZDO_GetNeibAmount
                0x00000000       0x66 ./../../../../../../Atmel_lib/BitCloud_MEGARF_1_14_0/BitCloud/lib/libBc_Coordinator_Atmega128rfa1_Atmega128rfa1_Gcc.a(zdo.o)
 .text.ZDO_GetNeibTable
                0x00000000      0x176 ./../../../../../../Atmel_lib/BitCloud_MEGARF_1_14_0/BitCloud/lib/libBc_Coordinator_Atmega128rfa1_Atmega128rfa1_Gcc.a(zdo.o)
 .text.ZDO_SleepReq
                0x00000000       0x3a ./../../../../../../Atmel_lib/BitCloud_MEGARF_1_14_0/BitCloud/lib/libBc_Coordinator_Atmega128rfa1_Atmega128rfa1_Gcc.a(zdo.o)
 .text.ZDO_WakeUpReq
                0x00000000       0x1e ./../../../../../../Atmel_lib/BitCloud_MEGARF_1_14_0/BitCloud/lib/libBc_Coordinator_Atmega128rfa1_Atmega128rfa1_Gcc.a(zdo.o)
 .text.ZDO_SoftwareResetReq
                0x00000000       0x18 ./../../../../../../Atmel_lib/BitCloud_MEGARF_1_14_0/BitCloud/lib/libBc_Coordinator_Atmega128rfa1_Atmega128rfa1_Gcc.a(zdo.o)
 .text.ZDO_ResetNetworkReq
                0x00000000       0x2a ./../../../../../../Atmel_lib/BitCloud_MEGARF_1_14_0/BitCloud/lib/libBc_Coordinator_Atmega128rfa1_Atmega128rfa1_Gcc.a(zdo.o)
 .text.zdoAuthenticationStart
                0x00000000        0x2 ./../../../../../../Atmel_lib/BitCloud_MEGARF_1_14_0/BitCloud/lib/libBc_Coordinator_Atmega128rfa1_Atmega128rfa1_Gcc.a(zdo.o)
 .text.zdoAuthenticationConf
                0x00000000        0x2 ./../../../../../../Atmel_lib/BitCloud_MEGARF_1_14_0/BitCloud/lib/libBc_Coordinator_Atmega128rfa1_Atmega128rfa1_Gcc.a(zdo.o)
 .text.NWK_NwkStatusInd
                0x00000000       0xa6 ./../../../../../../Atmel_lib/BitCloud_MEGARF_1_14_0/BitCloud/lib/libBc_Coordinator_Atmega128rfa1_Atmega128rfa1_Gcc.a(zdo.o)
 .text          0x00000000        0x0 ./../../../../../../Atmel_lib/BitCloud_MEGARF_1_14_0/BitCloud/lib/libBc_Coordinator_Atmega128rfa1_Atmega128rfa1_Gcc.a(bcSysSleep.o)
 .data          0x00000000        0x0 ./../../../../../../Atmel_lib/BitCloud_MEGARF_1_14_0/BitCloud/lib/libBc_Coordinator_Atmega128rfa1_Atmega128rfa1_Gcc.a(bcSysSleep.o)
 .bss           0x00000000        0x0 ./../../../../../../Atmel_lib/BitCloud_MEGARF_1_14_0/BitCloud/lib/libBc_Coordinator_Atmega128rfa1_Atmega128rfa1_Gcc.a(bcSysSleep.o)
 .text          0x00000000        0x0 ./../../../../../../Atmel_lib/BitCloud_MEGARF_1_14_0/BitCloud/lib/libBc_Coordinator_Atmega128rfa1_Atmega128rfa1_Gcc.a(macMem.o)
 .data          0x00000000        0x0 ./../../../../../../Atmel_lib/BitCloud_MEGARF_1_14_0/BitCloud/lib/libBc_Coordinator_Atmega128rfa1_Atmega128rfa1_Gcc.a(macMem.o)
 .bss           0x00000000        0x0 ./../../../../../../Atmel_lib/BitCloud_MEGARF_1_14_0/BitCloud/lib/libBc_Coordinator_Atmega128rfa1_Atmega128rfa1_Gcc.a(macMem.o)
 .text          0x00000000        0x0 ./../../../../../../Atmel_lib/BitCloud_MEGARF_1_14_0/BitCloud/lib/libBc_Coordinator_Atmega128rfa1_Atmega128rfa1_Gcc.a(machwdManager.o)
 .data          0x00000000        0x0 ./../../../../../../Atmel_lib/BitCloud_MEGARF_1_14_0/BitCloud/lib/libBc_Coordinator_Atmega128rfa1_Atmega128rfa1_Gcc.a(machwdManager.o)
 .text.RF_RandomSeqReq
                0x00000000        0xc ./../../../../../../Atmel_lib/BitCloud_MEGARF_1_14_0/BitCloud/lib/libBc_Coordinator_Atmega128rfa1_Atmega128rfa1_Gcc.a(machwdManager.o)
 .text.RF_CalibrationReq
                0x00000000        0xc ./../../../../../../Atmel_lib/BitCloud_MEGARF_1_14_0/BitCloud/lib/libBc_Coordinator_Atmega128rfa1_Atmega128rfa1_Gcc.a(machwdManager.o)
 .text.RF_RegWriteReq
                0x00000000        0xc ./../../../../../../Atmel_lib/BitCloud_MEGARF_1_14_0/BitCloud/lib/libBc_Coordinator_Atmega128rfa1_Atmega128rfa1_Gcc.a(machwdManager.o)
 .text.RF_RegReadReq
                0x00000000        0xc ./../../../../../../Atmel_lib/BitCloud_MEGARF_1_14_0/BitCloud/lib/libBc_Coordinator_Atmega128rfa1_Atmega128rfa1_Gcc.a(machwdManager.o)
 .text          0x00000000        0x0 ./../../../../../../Atmel_lib/BitCloud_MEGARF_1_14_0/BitCloud/lib/libBc_Coordinator_Atmega128rfa1_Atmega128rfa1_Gcc.a(machwdRegAccessHandler.o)
 .data          0x00000000        0x0 ./../../../../../../Atmel_lib/BitCloud_MEGARF_1_14_0/BitCloud/lib/libBc_Coordinator_Atmega128rfa1_Atmega128rfa1_Gcc.a(machwdRegAccessHandler.o)
 .text.machwdResetRegAccessHandler
                0x00000000        0x6 ./../../../../../../Atmel_lib/BitCloud_MEGARF_1_14_0/BitCloud/lib/libBc_Coordinator_Atmega128rfa1_Atmega128rfa1_Gcc.a(machwdRegAccessHandler.o)
 .text          0x00000000        0x0 ./../../../../../../Atmel_lib/BitCloud_MEGARF_1_14_0/BitCloud/lib/libBc_Coordinator_Atmega128rfa1_Atmega128rfa1_Gcc.a(machwdResetHandler.o)
 .data          0x00000000        0x0 ./../../../../../../Atmel_lib/BitCloud_MEGARF_1_14_0/BitCloud/lib/libBc_Coordinator_Atmega128rfa1_Atmega128rfa1_Gcc.a(machwdResetHandler.o)
 .bss           0x00000000        0x0 ./../../../../../../Atmel_lib/BitCloud_MEGARF_1_14_0/BitCloud/lib/libBc_Coordinator_Atmega128rfa1_Atmega128rfa1_Gcc.a(machwdResetHandler.o)
 .text          0x00000000        0x0 ./../../../../../../Atmel_lib/BitCloud_MEGARF_1_14_0/BitCloud/lib/libBc_Coordinator_Atmega128rfa1_Atmega128rfa1_Gcc.a(machwdRndHandler.o)
 .data          0x00000000        0x0 ./../../../../../../Atmel_lib/BitCloud_MEGARF_1_14_0/BitCloud/lib/libBc_Coordinator_Atmega128rfa1_Atmega128rfa1_Gcc.a(machwdRndHandler.o)
 .text          0x00000000        0x0 ./../../../../../../Atmel_lib/BitCloud_MEGARF_1_14_0/BitCloud/lib/libBc_Coordinator_Atmega128rfa1_Atmega128rfa1_Gcc.a(machwdRxBuffer.o)
 .data          0x00000000        0x0 ./../../../../../../Atmel_lib/BitCloud_MEGARF_1_14_0/BitCloud/lib/libBc_Coordinator_Atmega128rfa1_Atmega128rfa1_Gcc.a(machwdRxBuffer.o)
 .bss           0x00000000        0x0 ./../../../../../../Atmel_lib/BitCloud_MEGARF_1_14_0/BitCloud/lib/libBc_Coordinator_Atmega128rfa1_Atmega128rfa1_Gcc.a(machwdRxBuffer.o)
 .text          0x00000000        0x0 ./../../../../../../Atmel_lib/BitCloud_MEGARF_1_14_0/BitCloud/lib/libBc_Coordinator_Atmega128rfa1_Atmega128rfa1_Gcc.a(machwdRxFrameHandler.o)
 .data          0x00000000        0x0 ./../../../../../../Atmel_lib/BitCloud_MEGARF_1_14_0/BitCloud/lib/libBc_Coordinator_Atmega128rfa1_Atmega128rfa1_Gcc.a(machwdRxFrameHandler.o)
 .bss           0x00000000        0x0 ./../../../../../../Atmel_lib/BitCloud_MEGARF_1_14_0/BitCloud/lib/libBc_Coordinator_Atmega128rfa1_Atmega128rfa1_Gcc.a(machwdRxFrameHandler.o)
 .text          0x00000000        0x0 ./../../../../../../Atmel_lib/BitCloud_MEGARF_1_14_0/BitCloud/lib/libBc_Coordinator_Atmega128rfa1_Atmega128rfa1_Gcc.a(machwdSetHandler.o)
 .data          0x00000000        0x0 ./../../../../../../Atmel_lib/BitCloud_MEGARF_1_14_0/BitCloud/lib/libBc_Coordinator_Atmega128rfa1_Atmega128rfa1_Gcc.a(machwdSetHandler.o)
 .text.machwdIsBeaconRxMode
                0x00000000        0x6 ./../../../../../../Atmel_lib/BitCloud_MEGARF_1_14_0/BitCloud/lib/libBc_Coordinator_Atmega128rfa1_Atmega128rfa1_Gcc.a(machwdSetHandler.o)
 .text          0x00000000        0x0 ./../../../../../../Atmel_lib/BitCloud_MEGARF_1_14_0/BitCloud/lib/libBc_Coordinator_Atmega128rfa1_Atmega128rfa1_Gcc.a(machwdTrxCtrl.o)
 .bss           0x00000000        0x0 ./../../../../../../Atmel_lib/BitCloud_MEGARF_1_14_0/BitCloud/lib/libBc_Coordinator_Atmega128rfa1_Atmega128rfa1_Gcc.a(machwdTrxCtrl.o)
 .text          0x00000000        0x0 ./../../../../../../Atmel_lib/BitCloud_MEGARF_1_14_0/BitCloud/lib/libBc_Coordinator_Atmega128rfa1_Atmega128rfa1_Gcc.a(machwdTrxHandler.o)
 .data          0x00000000        0x0 ./../../../../../../Atmel_lib/BitCloud_MEGARF_1_14_0/BitCloud/lib/libBc_Coordinator_Atmega128rfa1_Atmega128rfa1_Gcc.a(machwdTrxHandler.o)
 .text          0x00000000        0x0 ./../../../../../../Atmel_lib/BitCloud_MEGARF_1_14_0/BitCloud/lib/libBc_Coordinator_Atmega128rfa1_Atmega128rfa1_Gcc.a(machwdTxFrameHandler.o)
 .data          0x00000000        0x0 ./../../../../../../Atmel_lib/BitCloud_MEGARF_1_14_0/BitCloud/lib/libBc_Coordinator_Atmega128rfa1_Atmega128rfa1_Gcc.a(machwdTxFrameHandler.o)
 .text          0x00000000        0x0 ./../../../../../../Atmel_lib/BitCloud_MEGARF_1_14_0/BitCloud/lib/libBc_Coordinator_Atmega128rfa1_Atmega128rfa1_Gcc.a(machwiManager.o)
 .data          0x00000000        0x0 ./../../../../../../Atmel_lib/BitCloud_MEGARF_1_14_0/BitCloud/lib/libBc_Coordinator_Atmega128rfa1_Atmega128rfa1_Gcc.a(machwiManager.o)
 .bss           0x00000000        0x0 ./../../../../../../Atmel_lib/BitCloud_MEGARF_1_14_0/BitCloud/lib/libBc_Coordinator_Atmega128rfa1_Atmega128rfa1_Gcc.a(machwiManager.o)
 .text.MAC_AssociateReq
                0x00000000        0xc ./../../../../../../Atmel_lib/BitCloud_MEGARF_1_14_0/BitCloud/lib/libBc_Coordinator_Atmega128rfa1_Atmega128rfa1_Gcc.a(machwiManager.o)
 .text.MAC_OrphanResp
                0x00000000        0xc ./../../../../../../Atmel_lib/BitCloud_MEGARF_1_14_0/BitCloud/lib/libBc_Coordinator_Atmega128rfa1_Atmega128rfa1_Gcc.a(machwiManager.o)
 .text.MAC_GetReq
                0x00000000        0xc ./../../../../../../Atmel_lib/BitCloud_MEGARF_1_14_0/BitCloud/lib/libBc_Coordinator_Atmega128rfa1_Atmega128rfa1_Gcc.a(machwiManager.o)
 .text.MAC_PollReq
                0x00000000        0xc ./../../../../../../Atmel_lib/BitCloud_MEGARF_1_14_0/BitCloud/lib/libBc_Coordinator_Atmega128rfa1_Atmega128rfa1_Gcc.a(machwiManager.o)
 .text.MAC_PurgeReq
                0x00000000        0xc ./../../../../../../Atmel_lib/BitCloud_MEGARF_1_14_0/BitCloud/lib/libBc_Coordinator_Atmega128rfa1_Atmega128rfa1_Gcc.a(machwiManager.o)
 .text          0x00000000        0x0 ./../../../../../../Atmel_lib/BitCloud_MEGARF_1_14_0/BitCloud/lib/libBc_Coordinator_Atmega128rfa1_Atmega128rfa1_Gcc.a(machwiOrphanHandler.o)
 .data          0x00000000        0x0 ./../../../../../../Atmel_lib/BitCloud_MEGARF_1_14_0/BitCloud/lib/libBc_Coordinator_Atmega128rfa1_Atmega128rfa1_Gcc.a(machwiOrphanHandler.o)
 .bss           0x00000000        0x0 ./../../../../../../Atmel_lib/BitCloud_MEGARF_1_14_0/BitCloud/lib/libBc_Coordinator_Atmega128rfa1_Atmega128rfa1_Gcc.a(machwiOrphanHandler.o)
 .text          0x00000000        0x0 ./../../../../../../Atmel_lib/BitCloud_MEGARF_1_14_0/BitCloud/lib/libBc_Coordinator_Atmega128rfa1_Atmega128rfa1_Gcc.a(machwiPanServer.o)
 .data          0x00000000        0x0 ./../../../../../../Atmel_lib/BitCloud_MEGARF_1_14_0/BitCloud/lib/libBc_Coordinator_Atmega128rfa1_Atmega128rfa1_Gcc.a(machwiPanServer.o)
 .bss           0x00000000        0x0 ./../../../../../../Atmel_lib/BitCloud_MEGARF_1_14_0/BitCloud/lib/libBc_Coordinator_Atmega128rfa1_Atmega128rfa1_Gcc.a(machwiPanServer.o)
 .text          0x00000000        0x0 ./../../../../../../Atmel_lib/BitCloud_MEGARF_1_14_0/BitCloud/lib/libBc_Coordinator_Atmega128rfa1_Atmega128rfa1_Gcc.a(machwiPollHandler.o)
 .data          0x00000000        0x0 ./../../../../../../Atmel_lib/BitCloud_MEGARF_1_14_0/BitCloud/lib/libBc_Coordinator_Atmega128rfa1_Atmega128rfa1_Gcc.a(machwiPollHandler.o)
 .bss           0x00000000        0x0 ./../../../../../../Atmel_lib/BitCloud_MEGARF_1_14_0/BitCloud/lib/libBc_Coordinator_Atmega128rfa1_Atmega128rfa1_Gcc.a(machwiPollHandler.o)
 .text          0x00000000        0x0 ./../../../../../../Atmel_lib/BitCloud_MEGARF_1_14_0/BitCloud/lib/libBc_Coordinator_Atmega128rfa1_Atmega128rfa1_Gcc.a(machwiPurgeHandler.o)
 .data          0x00000000        0x0 ./../../../../../../Atmel_lib/BitCloud_MEGARF_1_14_0/BitCloud/lib/libBc_Coordinator_Atmega128rfa1_Atmega128rfa1_Gcc.a(machwiPurgeHandler.o)
 .bss           0x00000000        0x0 ./../../../../../../Atmel_lib/BitCloud_MEGARF_1_14_0/BitCloud/lib/libBc_Coordinator_Atmega128rfa1_Atmega128rfa1_Gcc.a(machwiPurgeHandler.o)
 .text          0x00000000        0x0 ./../../../../../../Atmel_lib/BitCloud_MEGARF_1_14_0/BitCloud/lib/libBc_Coordinator_Atmega128rfa1_Atmega128rfa1_Gcc.a(machwiResetHandler.o)
 .data          0x00000000        0x0 ./../../../../../../Atmel_lib/BitCloud_MEGARF_1_14_0/BitCloud/lib/libBc_Coordinator_Atmega128rfa1_Atmega128rfa1_Gcc.a(machwiResetHandler.o)
 .bss           0x00000000        0x0 ./../../../../../../Atmel_lib/BitCloud_MEGARF_1_14_0/BitCloud/lib/libBc_Coordinator_Atmega128rfa1_Atmega128rfa1_Gcc.a(machwiResetHandler.o)
 .text          0x00000000        0x0 ./../../../../../../Atmel_lib/BitCloud_MEGARF_1_14_0/BitCloud/lib/libBc_Coordinator_Atmega128rfa1_Atmega128rfa1_Gcc.a(machwiRxEnableHandler.o)
 .data          0x00000000        0x0 ./../../../../../../Atmel_lib/BitCloud_MEGARF_1_14_0/BitCloud/lib/libBc_Coordinator_Atmega128rfa1_Atmega128rfa1_Gcc.a(machwiRxEnableHandler.o)
 .bss           0x00000000        0x0 ./../../../../../../Atmel_lib/BitCloud_MEGARF_1_14_0/BitCloud/lib/libBc_Coordinator_Atmega128rfa1_Atmega128rfa1_Gcc.a(machwiRxEnableHandler.o)
 .text          0x00000000        0x0 ./../../../../../../Atmel_lib/BitCloud_MEGARF_1_14_0/BitCloud/lib/libBc_Coordinator_Atmega128rfa1_Atmega128rfa1_Gcc.a(machwiScanHandler.o)
 .data          0x00000000        0x0 ./../../../../../../Atmel_lib/BitCloud_MEGARF_1_14_0/BitCloud/lib/libBc_Coordinator_Atmega128rfa1_Atmega128rfa1_Gcc.a(machwiScanHandler.o)
 .text          0x00000000        0x0 ./../../../../../../Atmel_lib/BitCloud_MEGARF_1_14_0/BitCloud/lib/libBc_Coordinator_Atmega128rfa1_Atmega128rfa1_Gcc.a(machwiSetGetHandler.o)
 .bss           0x00000000        0x0 ./../../../../../../Atmel_lib/BitCloud_MEGARF_1_14_0/BitCloud/lib/libBc_Coordinator_Atmega128rfa1_Atmega128rfa1_Gcc.a(machwiSetGetHandler.o)
 .text          0x00000000        0x0 ./../../../../../../Atmel_lib/BitCloud_MEGARF_1_14_0/BitCloud/lib/libBc_Coordinator_Atmega128rfa1_Atmega128rfa1_Gcc.a(machwiStartHandler.o)
 .data          0x00000000        0x0 ./../../../../../../Atmel_lib/BitCloud_MEGARF_1_14_0/BitCloud/lib/libBc_Coordinator_Atmega128rfa1_Atmega128rfa1_Gcc.a(machwiStartHandler.o)
 .bss           0x00000000        0x0 ./../../../../../../Atmel_lib/BitCloud_MEGARF_1_14_0/BitCloud/lib/libBc_Coordinator_Atmega128rfa1_Atmega128rfa1_Gcc.a(machwiStartHandler.o)
 .text          0x00000000        0x0 ./../../../../../../Atmel_lib/BitCloud_MEGARF_1_14_0/BitCloud/lib/libBc_Coordinator_Atmega128rfa1_Atmega128rfa1_Gcc.a(machwiSwitchRxCtrl.o)
 .data          0x00000000        0x0 ./../../../../../../Atmel_lib/BitCloud_MEGARF_1_14_0/BitCloud/lib/libBc_Coordinator_Atmega128rfa1_Atmega128rfa1_Gcc.a(machwiSwitchRxCtrl.o)
 .bss           0x00000000        0x0 ./../../../../../../Atmel_lib/BitCloud_MEGARF_1_14_0/BitCloud/lib/libBc_Coordinator_Atmega128rfa1_Atmega128rfa1_Gcc.a(machwiSwitchRxCtrl.o)
 .text          0x00000000        0x0 ./../../../../../../Atmel_lib/BitCloud_MEGARF_1_14_0/BitCloud/lib/libBc_Coordinator_Atmega128rfa1_Atmega128rfa1_Gcc.a(machwiTransactionHandler.o)
 .data          0x00000000        0x0 ./../../../../../../Atmel_lib/BitCloud_MEGARF_1_14_0/BitCloud/lib/libBc_Coordinator_Atmega128rfa1_Atmega128rfa1_Gcc.a(machwiTransactionHandler.o)
 .bss           0x00000000        0x0 ./../../../../../../Atmel_lib/BitCloud_MEGARF_1_14_0/BitCloud/lib/libBc_Coordinator_Atmega128rfa1_Atmega128rfa1_Gcc.a(machwiTransactionHandler.o)
 .text          0x00000000        0x0 ./../../../../../../Atmel_lib/BitCloud_MEGARF_1_14_0/BitCloud/lib/libBc_Coordinator_Atmega128rfa1_Atmega128rfa1_Gcc.a(machwiTransactionQueue.o)
 .data          0x00000000        0x0 ./../../../../../../Atmel_lib/BitCloud_MEGARF_1_14_0/BitCloud/lib/libBc_Coordinator_Atmega128rfa1_Atmega128rfa1_Gcc.a(machwiTransactionQueue.o)
 .bss           0x00000000        0x0 ./../../../../../../Atmel_lib/BitCloud_MEGARF_1_14_0/BitCloud/lib/libBc_Coordinator_Atmega128rfa1_Atmega128rfa1_Gcc.a(machwiTransactionQueue.o)
 .text          0x00000000        0x0 ./../../../../../../Atmel_lib/BitCloud_MEGARF_1_14_0/BitCloud/lib/libBc_Coordinator_Atmega128rfa1_Atmega128rfa1_Gcc.a(phyInit.o)
 .data          0x00000000        0x0 ./../../../../../../Atmel_lib/BitCloud_MEGARF_1_14_0/BitCloud/lib/libBc_Coordinator_Atmega128rfa1_Atmega128rfa1_Gcc.a(phyInit.o)
 .bss           0x00000000        0x0 ./../../../../../../Atmel_lib/BitCloud_MEGARF_1_14_0/BitCloud/lib/libBc_Coordinator_Atmega128rfa1_Atmega128rfa1_Gcc.a(phyInit.o)
 .text          0x00000000        0x0 ./../../../../../../Atmel_lib/BitCloud_MEGARF_1_14_0/BitCloud/lib/libBc_Coordinator_Atmega128rfa1_Atmega128rfa1_Gcc.a(phyRegAccess.o)
 .data          0x00000000        0x0 ./../../../../../../Atmel_lib/BitCloud_MEGARF_1_14_0/BitCloud/lib/libBc_Coordinator_Atmega128rfa1_Atmega128rfa1_Gcc.a(phyRegAccess.o)
 .bss           0x00000000        0x0 ./../../../../../../Atmel_lib/BitCloud_MEGARF_1_14_0/BitCloud/lib/libBc_Coordinator_Atmega128rfa1_Atmega128rfa1_Gcc.a(phyRegAccess.o)
 .text          0x00000000        0x0 ./../../../../../../Atmel_lib/BitCloud_MEGARF_1_14_0/BitCloud/lib/libBc_Coordinator_Atmega128rfa1_Atmega128rfa1_Gcc.a(phyReset.o)
 .data          0x00000000        0x0 ./../../../../../../Atmel_lib/BitCloud_MEGARF_1_14_0/BitCloud/lib/libBc_Coordinator_Atmega128rfa1_Atmega128rfa1_Gcc.a(phyReset.o)
 .bss           0x00000000        0x0 ./../../../../../../Atmel_lib/BitCloud_MEGARF_1_14_0/BitCloud/lib/libBc_Coordinator_Atmega128rfa1_Atmega128rfa1_Gcc.a(phyReset.o)
 .text          0x00000000        0x0 ./../../../../../../Atmel_lib/BitCloud_MEGARF_1_14_0/BitCloud/lib/libBc_Coordinator_Atmega128rfa1_Atmega128rfa1_Gcc.a(phyRfIrqDispatcher.o)
 .text          0x00000000        0x0 ./../../../../../../Atmel_lib/BitCloud_MEGARF_1_14_0/BitCloud/lib/libBc_Coordinator_Atmega128rfa1_Atmega128rfa1_Gcc.a(phyRnd.o)
 .data          0x00000000        0x0 ./../../../../../../Atmel_lib/BitCloud_MEGARF_1_14_0/BitCloud/lib/libBc_Coordinator_Atmega128rfa1_Atmega128rfa1_Gcc.a(phyRnd.o)
 .bss           0x00000000        0x0 ./../../../../../../Atmel_lib/BitCloud_MEGARF_1_14_0/BitCloud/lib/libBc_Coordinator_Atmega128rfa1_Atmega128rfa1_Gcc.a(phyRnd.o)
 .text          0x00000000        0x0 ./../../../../../../Atmel_lib/BitCloud_MEGARF_1_14_0/BitCloud/lib/libBc_Coordinator_Atmega128rfa1_Atmega128rfa1_Gcc.a(phyRxFrame.o)
 .data          0x00000000        0x0 ./../../../../../../Atmel_lib/BitCloud_MEGARF_1_14_0/BitCloud/lib/libBc_Coordinator_Atmega128rfa1_Atmega128rfa1_Gcc.a(phyRxFrame.o)
 .bss           0x00000000        0x0 ./../../../../../../Atmel_lib/BitCloud_MEGARF_1_14_0/BitCloud/lib/libBc_Coordinator_Atmega128rfa1_Atmega128rfa1_Gcc.a(phyRxFrame.o)
 .text          0x00000000        0x0 ./../../../../../../Atmel_lib/BitCloud_MEGARF_1_14_0/BitCloud/lib/libBc_Coordinator_Atmega128rfa1_Atmega128rfa1_Gcc.a(phySet.o)
 .data          0x00000000        0x0 ./../../../../../../Atmel_lib/BitCloud_MEGARF_1_14_0/BitCloud/lib/libBc_Coordinator_Atmega128rfa1_Atmega128rfa1_Gcc.a(phySet.o)
 .text          0x00000000        0x0 ./../../../../../../Atmel_lib/BitCloud_MEGARF_1_14_0/BitCloud/lib/libBc_Coordinator_Atmega128rfa1_Atmega128rfa1_Gcc.a(phySetTrxState.o)
 .data          0x00000000        0x0 ./../../../../../../Atmel_lib/BitCloud_MEGARF_1_14_0/BitCloud/lib/libBc_Coordinator_Atmega128rfa1_Atmega128rfa1_Gcc.a(phySetTrxState.o)
 .bss           0x00000000        0x0 ./../../../../../../Atmel_lib/BitCloud_MEGARF_1_14_0/BitCloud/lib/libBc_Coordinator_Atmega128rfa1_Atmega128rfa1_Gcc.a(phySetTrxState.o)
 COMMON         0x00000000        0x1 ./../../../../../../Atmel_lib/BitCloud_MEGARF_1_14_0/BitCloud/lib/libBc_Coordinator_Atmega128rfa1_Atmega128rfa1_Gcc.a(phySetTrxState.o)
 .text          0x00000000        0x0 ./../../../../../../Atmel_lib/BitCloud_MEGARF_1_14_0/BitCloud/lib/libBc_Coordinator_Atmega128rfa1_Atmega128rfa1_Gcc.a(phyTxFrame.o)
 .data          0x00000000        0x0 ./../../../../../../Atmel_lib/BitCloud_MEGARF_1_14_0/BitCloud/lib/libBc_Coordinator_Atmega128rfa1_Atmega128rfa1_Gcc.a(phyTxFrame.o)
 .bss           0x00000000        0x0 ./../../../../../../Atmel_lib/BitCloud_MEGARF_1_14_0/BitCloud/lib/libBc_Coordinator_Atmega128rfa1_Atmega128rfa1_Gcc.a(phyTxFrame.o)
 .text          0x00000000        0x0 ./../../../../../../Atmel_lib/BitCloud_MEGARF_1_14_0/BitCloud/lib/libBc_Coordinator_Atmega128rfa1_Atmega128rfa1_Gcc.a(machwdCalibHandler.o)
 .data          0x00000000        0x0 ./../../../../../../Atmel_lib/BitCloud_MEGARF_1_14_0/BitCloud/lib/libBc_Coordinator_Atmega128rfa1_Atmega128rfa1_Gcc.a(machwdCalibHandler.o)
 .text          0x00000000        0x0 ./../../../../../../Atmel_lib/BitCloud_MEGARF_1_14_0/BitCloud/lib/libBc_Coordinator_Atmega128rfa1_Atmega128rfa1_Gcc.a(machwdEdHandler.o)
 .data          0x00000000        0x0 ./../../../../../../Atmel_lib/BitCloud_MEGARF_1_14_0/BitCloud/lib/libBc_Coordinator_Atmega128rfa1_Atmega128rfa1_Gcc.a(machwdEdHandler.o)
 .text          0x00000000        0x0 ./../../../../../../Atmel_lib/BitCloud_MEGARF_1_14_0/BitCloud/lib/libBc_Coordinator_Atmega128rfa1_Atmega128rfa1_Gcc.a(machwdFrameRoutine.o)
 .bss           0x00000000        0x0 ./../../../../../../Atmel_lib/BitCloud_MEGARF_1_14_0/BitCloud/lib/libBc_Coordinator_Atmega128rfa1_Atmega128rfa1_Gcc.a(machwdFrameRoutine.o)
 .text          0x00000000        0x0 ./../../../../../../Atmel_lib/BitCloud_MEGARF_1_14_0/BitCloud/lib/libBc_Coordinator_Atmega128rfa1_Atmega128rfa1_Gcc.a(machwdHandlerCtrl.o)
 .data          0x00000000        0x0 ./../../../../../../Atmel_lib/BitCloud_MEGARF_1_14_0/BitCloud/lib/libBc_Coordinator_Atmega128rfa1_Atmega128rfa1_Gcc.a(machwdHandlerCtrl.o)
 .text          0x00000000        0x0 ./../../../../../../Atmel_lib/BitCloud_MEGARF_1_14_0/BitCloud/lib/libBc_Coordinator_Atmega128rfa1_Atmega128rfa1_Gcc.a(machwiAssociateHandler.o)
 .data          0x00000000        0x0 ./../../../../../../Atmel_lib/BitCloud_MEGARF_1_14_0/BitCloud/lib/libBc_Coordinator_Atmega128rfa1_Atmega128rfa1_Gcc.a(machwiAssociateHandler.o)
 .bss           0x00000000        0x0 ./../../../../../../Atmel_lib/BitCloud_MEGARF_1_14_0/BitCloud/lib/libBc_Coordinator_Atmega128rfa1_Atmega128rfa1_Gcc.a(machwiAssociateHandler.o)
 .text          0x00000000        0x0 ./../../../../../../Atmel_lib/BitCloud_MEGARF_1_14_0/BitCloud/lib/libBc_Coordinator_Atmega128rfa1_Atmega128rfa1_Gcc.a(machwiBeaconHandler.o)
 .data          0x00000000        0x0 ./../../../../../../Atmel_lib/BitCloud_MEGARF_1_14_0/BitCloud/lib/libBc_Coordinator_Atmega128rfa1_Atmega128rfa1_Gcc.a(machwiBeaconHandler.o)
 .bss           0x00000000        0x0 ./../../../../../../Atmel_lib/BitCloud_MEGARF_1_14_0/BitCloud/lib/libBc_Coordinator_Atmega128rfa1_Atmega128rfa1_Gcc.a(machwiBeaconHandler.o)
 .text          0x00000000        0x0 ./../../../../../../Atmel_lib/BitCloud_MEGARF_1_14_0/BitCloud/lib/libBc_Coordinator_Atmega128rfa1_Atmega128rfa1_Gcc.a(machwiDataHandler.o)
 .bss           0x00000000        0x0 ./../../../../../../Atmel_lib/BitCloud_MEGARF_1_14_0/BitCloud/lib/libBc_Coordinator_Atmega128rfa1_Atmega128rfa1_Gcc.a(machwiDataHandler.o)
 .text          0x00000000        0x0 ./../../../../../../Atmel_lib/BitCloud_MEGARF_1_14_0/BitCloud/lib/libBc_Coordinator_Atmega128rfa1_Atmega128rfa1_Gcc.a(machwiTransactionHash.o)
 .data          0x00000000        0x0 ./../../../../../../Atmel_lib/BitCloud_MEGARF_1_14_0/BitCloud/lib/libBc_Coordinator_Atmega128rfa1_Atmega128rfa1_Gcc.a(machwiTransactionHash.o)
 .text.machwiIsDataPending
                0x00000000      0x1c4 ./../../../../../../Atmel_lib/BitCloud_MEGARF_1_14_0/BitCloud/lib/libBc_Coordinator_Atmega128rfa1_Atmega128rfa1_Gcc.a(machwiTransactionHash.o)
 .text          0x00000000        0x0 ./../../../../../../Atmel_lib/BitCloud_MEGARF_1_14_0/BitCloud/lib/libBc_Coordinator_Atmega128rfa1_Atmega128rfa1_Gcc.a(phyCalib.o)
 .data          0x00000000        0x0 ./../../../../../../Atmel_lib/BitCloud_MEGARF_1_14_0/BitCloud/lib/libBc_Coordinator_Atmega128rfa1_Atmega128rfa1_Gcc.a(phyCalib.o)
 .bss           0x00000000        0x0 ./../../../../../../Atmel_lib/BitCloud_MEGARF_1_14_0/BitCloud/lib/libBc_Coordinator_Atmega128rfa1_Atmega128rfa1_Gcc.a(phyCalib.o)
 .text          0x00000000        0x0 ./../../../../../../Atmel_lib/BitCloud_MEGARF_1_14_0/BitCloud/lib/libBc_Coordinator_Atmega128rfa1_Atmega128rfa1_Gcc.a(phyEd.o)
 .data          0x00000000        0x0 ./../../../../../../Atmel_lib/BitCloud_MEGARF_1_14_0/BitCloud/lib/libBc_Coordinator_Atmega128rfa1_Atmega128rfa1_Gcc.a(phyEd.o)
 .bss           0x00000000        0x0 ./../../../../../../Atmel_lib/BitCloud_MEGARF_1_14_0/BitCloud/lib/libBc_Coordinator_Atmega128rfa1_Atmega128rfa1_Gcc.a(phyEd.o)
 .text          0x00000000        0x0 ./../../../../../../Atmel_lib/BitCloud_MEGARF_1_14_0/BitCloud/lib/libBc_Coordinator_Atmega128rfa1_Atmega128rfa1_Gcc.a(phyRtimerIrqDispatcher.o)
 .data          0x00000000        0x0 ./../../../../../../Atmel_lib/BitCloud_MEGARF_1_14_0/BitCloud/lib/libBc_Coordinator_Atmega128rfa1_Atmega128rfa1_Gcc.a(phyRtimerIrqDispatcher.o)
 .bss           0x00000000        0x0 ./../../../../../../Atmel_lib/BitCloud_MEGARF_1_14_0/BitCloud/lib/libBc_Coordinator_Atmega128rfa1_Atmega128rfa1_Gcc.a(phyRtimerIrqDispatcher.o)
 .text          0x00000000        0x0 ./../../../../../../Atmel_lib/BitCloud_MEGARF_1_14_0/BitCloud/lib/WdtInitatmega128rfa1_Gcc.o
 .data          0x00000000        0x0 ./../../../../../../Atmel_lib/BitCloud_MEGARF_1_14_0/BitCloud/lib/WdtInitatmega128rfa1_Gcc.o
 .bss           0x00000000        0x0 ./../../../../../../Atmel_lib/BitCloud_MEGARF_1_14_0/BitCloud/lib/WdtInitatmega128rfa1_Gcc.o
 .text          0x00000000        0x0 ./../../../../../../Atmel_lib/BitCloud_MEGARF_1_14_0/BitCloud/lib/libHAL_AtmlStk600_Atmega128rfa1_8Mhz_Gcc.a(halInit.o)
 .data          0x00000000        0x0 ./../../../../../../Atmel_lib/BitCloud_MEGARF_1_14_0/BitCloud/lib/libHAL_AtmlStk600_Atmega128rfa1_8Mhz_Gcc.a(halInit.o)
 .bss           0x00000000        0x0 ./../../../../../../Atmel_lib/BitCloud_MEGARF_1_14_0/BitCloud/lib/libHAL_AtmlStk600_Atmega128rfa1_8Mhz_Gcc.a(halInit.o)
 .text          0x00000000        0x0 ./../../../../../../Atmel_lib/BitCloud_MEGARF_1_14_0/BitCloud/lib/libHAL_AtmlStk600_Atmega128rfa1_8Mhz_Gcc.a(halRfCtrl.o)
 .data          0x00000000        0x0 ./../../../../../../Atmel_lib/BitCloud_MEGARF_1_14_0/BitCloud/lib/libHAL_AtmlStk600_Atmega128rfa1_8Mhz_Gcc.a(halRfCtrl.o)
 .bss           0x00000000        0x0 ./../../../../../../Atmel_lib/BitCloud_MEGARF_1_14_0/BitCloud/lib/libHAL_AtmlStk600_Atmega128rfa1_8Mhz_Gcc.a(halRfCtrl.o)
 .text          0x00000000        0x0 ./../../../../../../Atmel_lib/BitCloud_MEGARF_1_14_0/BitCloud/lib/libHAL_AtmlStk600_Atmega128rfa1_8Mhz_Gcc.a(halUid.o)
 .data          0x00000000        0x0 ./../../../../../../Atmel_lib/BitCloud_MEGARF_1_14_0/BitCloud/lib/libHAL_AtmlStk600_Atmega128rfa1_8Mhz_Gcc.a(halUid.o)
 .text          0x00000000        0x0 ./../../../../../../Atmel_lib/BitCloud_MEGARF_1_14_0/BitCloud/lib/libHAL_AtmlStk600_Atmega128rfa1_8Mhz_Gcc.a(halMacIsr.o)
 .data          0x00000000        0x0 ./../../../../../../Atmel_lib/BitCloud_MEGARF_1_14_0/BitCloud/lib/libHAL_AtmlStk600_Atmega128rfa1_8Mhz_Gcc.a(halMacIsr.o)
 .bss           0x00000000        0x0 ./../../../../../../Atmel_lib/BitCloud_MEGARF_1_14_0/BitCloud/lib/libHAL_AtmlStk600_Atmega128rfa1_8Mhz_Gcc.a(halMacIsr.o)
 .text          0x00000000        0x0 c:/program files (x86)/atmel/avr tools/avr toolchain/bin/../lib/gcc/avr/4.5.1/avr51\libgcc.a(_mulsi3.o)
 .data          0x00000000        0x0 c:/program files (x86)/atmel/avr tools/avr toolchain/bin/../lib/gcc/avr/4.5.1/avr51\libgcc.a(_mulsi3.o)
 .bss           0x00000000        0x0 c:/program files (x86)/atmel/avr tools/avr toolchain/bin/../lib/gcc/avr/4.5.1/avr51\libgcc.a(_mulsi3.o)
 .text          0x00000000        0x0 c:/program files (x86)/atmel/avr tools/avr toolchain/bin/../lib/gcc/avr/4.5.1/avr51\libgcc.a(_udivmodqi4.o)
 .data          0x00000000        0x0 c:/program files (x86)/atmel/avr tools/avr toolchain/bin/../lib/gcc/avr/4.5.1/avr51\libgcc.a(_udivmodqi4.o)
 .bss           0x00000000        0x0 c:/program files (x86)/atmel/avr tools/avr toolchain/bin/../lib/gcc/avr/4.5.1/avr51\libgcc.a(_udivmodqi4.o)
 .text          0x00000000        0x0 c:/program files (x86)/atmel/avr tools/avr toolchain/bin/../lib/gcc/avr/4.5.1/avr51\libgcc.a(_udivmodhi4.o)
 .data          0x00000000        0x0 c:/program files (x86)/atmel/avr tools/avr toolchain/bin/../lib/gcc/avr/4.5.1/avr51\libgcc.a(_udivmodhi4.o)
 .bss           0x00000000        0x0 c:/program files (x86)/atmel/avr tools/avr toolchain/bin/../lib/gcc/avr/4.5.1/avr51\libgcc.a(_udivmodhi4.o)
 .text          0x00000000        0x0 c:/program files (x86)/atmel/avr tools/avr toolchain/bin/../lib/gcc/avr/4.5.1/avr51\libgcc.a(_udivmodsi4.o)
 .data          0x00000000        0x0 c:/program files (x86)/atmel/avr tools/avr toolchain/bin/../lib/gcc/avr/4.5.1/avr51\libgcc.a(_udivmodsi4.o)
 .bss           0x00000000        0x0 c:/program files (x86)/atmel/avr tools/avr toolchain/bin/../lib/gcc/avr/4.5.1/avr51\libgcc.a(_udivmodsi4.o)
 .text          0x00000000        0x0 c:/program files (x86)/atmel/avr tools/avr toolchain/bin/../lib/gcc/avr/4.5.1/avr51\libgcc.a(_prologue.o)
 .data          0x00000000        0x0 c:/program files (x86)/atmel/avr tools/avr toolchain/bin/../lib/gcc/avr/4.5.1/avr51\libgcc.a(_prologue.o)
 .bss           0x00000000        0x0 c:/program files (x86)/atmel/avr tools/avr toolchain/bin/../lib/gcc/avr/4.5.1/avr51\libgcc.a(_prologue.o)
 .text          0x00000000        0x0 c:/program files (x86)/atmel/avr tools/avr toolchain/bin/../lib/gcc/avr/4.5.1/avr51\libgcc.a(_epilogue.o)
 .data          0x00000000        0x0 c:/program files (x86)/atmel/avr tools/avr toolchain/bin/../lib/gcc/avr/4.5.1/avr51\libgcc.a(_epilogue.o)
 .bss           0x00000000        0x0 c:/program files (x86)/atmel/avr tools/avr toolchain/bin/../lib/gcc/avr/4.5.1/avr51\libgcc.a(_epilogue.o)
 .text          0x00000000        0x0 c:/program files (x86)/atmel/avr tools/avr toolchain/bin/../lib/gcc/avr/4.5.1/avr51\libgcc.a(_exit.o)
 .data          0x00000000        0x0 c:/program files (x86)/atmel/avr tools/avr toolchain/bin/../lib/gcc/avr/4.5.1/avr51\libgcc.a(_exit.o)
 .bss           0x00000000        0x0 c:/program files (x86)/atmel/avr tools/avr toolchain/bin/../lib/gcc/avr/4.5.1/avr51\libgcc.a(_exit.o)
 .text.libgcc   0x00000000        0x0 c:/program files (x86)/atmel/avr tools/avr toolchain/bin/../lib/gcc/avr/4.5.1/avr51\libgcc.a(_exit.o)
 .fini9         0x00000000        0x0 c:/program files (x86)/atmel/avr tools/avr toolchain/bin/../lib/gcc/avr/4.5.1/avr51\libgcc.a(_exit.o)
 .fini0         0x00000000        0x4 c:/program files (x86)/atmel/avr tools/avr toolchain/bin/../lib/gcc/avr/4.5.1/avr51\libgcc.a(_exit.o)
 .text          0x00000000        0x0 c:/program files (x86)/atmel/avr tools/avr toolchain/bin/../lib/gcc/avr/4.5.1/avr51\libgcc.a(_tablejump.o)
 .data          0x00000000        0x0 c:/program files (x86)/atmel/avr tools/avr toolchain/bin/../lib/gcc/avr/4.5.1/avr51\libgcc.a(_tablejump.o)
 .bss           0x00000000        0x0 c:/program files (x86)/atmel/avr tools/avr toolchain/bin/../lib/gcc/avr/4.5.1/avr51\libgcc.a(_tablejump.o)
 .text          0x00000000        0x0 c:/program files (x86)/atmel/avr tools/avr toolchain/bin/../lib/gcc/avr/4.5.1/avr51\libgcc.a(_copy_data.o)
 .data          0x00000000        0x0 c:/program files (x86)/atmel/avr tools/avr toolchain/bin/../lib/gcc/avr/4.5.1/avr51\libgcc.a(_copy_data.o)
 .bss           0x00000000        0x0 c:/program files (x86)/atmel/avr tools/avr toolchain/bin/../lib/gcc/avr/4.5.1/avr51\libgcc.a(_copy_data.o)
 .text.libgcc   0x00000000        0x0 c:/program files (x86)/atmel/avr tools/avr toolchain/bin/../lib/gcc/avr/4.5.1/avr51\libgcc.a(_copy_data.o)
 .text          0x00000000        0x0 c:/program files (x86)/atmel/avr tools/avr toolchain/bin/../lib/gcc/avr/4.5.1/avr51\libgcc.a(_clear_bss.o)
 .data          0x00000000        0x0 c:/program files (x86)/atmel/avr tools/avr toolchain/bin/../lib/gcc/avr/4.5.1/avr51\libgcc.a(_clear_bss.o)
 .bss           0x00000000        0x0 c:/program files (x86)/atmel/avr tools/avr toolchain/bin/../lib/gcc/avr/4.5.1/avr51\libgcc.a(_clear_bss.o)
 .text.libgcc   0x00000000        0x0 c:/program files (x86)/atmel/avr tools/avr toolchain/bin/../lib/gcc/avr/4.5.1/avr51\libgcc.a(_clear_bss.o)
 .data          0x00000000        0x0 c:/program files (x86)/atmel/avr tools/avr toolchain/bin/../lib/gcc/avr/4.5.1/avr51\libgcc.a(_ashldi3.o)
 .bss           0x00000000        0x0 c:/program files (x86)/atmel/avr tools/avr toolchain/bin/../lib/gcc/avr/4.5.1/avr51\libgcc.a(_ashldi3.o)
 .text          0x00000000        0x0 c:/program files (x86)/atmel/avr tools/avr toolchain/bin/../lib/gcc/avr/4.5.1/../../../../avr/lib/avr51\libc.a(rand.o)
 .bss           0x00000000        0x0 c:/program files (x86)/atmel/avr tools/avr toolchain/bin/../lib/gcc/avr/4.5.1/../../../../avr/lib/avr51\libc.a(rand.o)
 .text          0x00000000        0x0 c:/program files (x86)/atmel/avr tools/avr toolchain/bin/../lib/gcc/avr/4.5.1/../../../../avr/lib/avr51\libc.a(memcpy_P.o)
 .data          0x00000000        0x0 c:/program files (x86)/atmel/avr tools/avr toolchain/bin/../lib/gcc/avr/4.5.1/../../../../avr/lib/avr51\libc.a(memcpy_P.o)
 .bss           0x00000000        0x0 c:/program files (x86)/atmel/avr tools/avr toolchain/bin/../lib/gcc/avr/4.5.1/../../../../avr/lib/avr51\libc.a(memcpy_P.o)
 .text          0x00000000        0x0 c:/program files (x86)/atmel/avr tools/avr toolchain/bin/../lib/gcc/avr/4.5.1/../../../../avr/lib/avr51\libc.a(memcmp.o)
 .data          0x00000000        0x0 c:/program files (x86)/atmel/avr tools/avr toolchain/bin/../lib/gcc/avr/4.5.1/../../../../avr/lib/avr51\libc.a(memcmp.o)
 .bss           0x00000000        0x0 c:/program files (x86)/atmel/avr tools/avr toolchain/bin/../lib/gcc/avr/4.5.1/../../../../avr/lib/avr51\libc.a(memcmp.o)
 .text          0x00000000        0x0 c:/program files (x86)/atmel/avr tools/avr toolchain/bin/../lib/gcc/avr/4.5.1/../../../../avr/lib/avr51\libc.a(memcpy.o)
 .data          0x00000000        0x0 c:/program files (x86)/atmel/avr tools/avr toolchain/bin/../lib/gcc/avr/4.5.1/../../../../avr/lib/avr51\libc.a(memcpy.o)
 .bss           0x00000000        0x0 c:/program files (x86)/atmel/avr tools/avr toolchain/bin/../lib/gcc/avr/4.5.1/../../../../avr/lib/avr51\libc.a(memcpy.o)
 .text          0x00000000        0x0 c:/program files (x86)/atmel/avr tools/avr toolchain/bin/../lib/gcc/avr/4.5.1/../../../../avr/lib/avr51\libc.a(memmove.o)
 .data          0x00000000        0x0 c:/program files (x86)/atmel/avr tools/avr toolchain/bin/../lib/gcc/avr/4.5.1/../../../../avr/lib/avr51\libc.a(memmove.o)
 .bss           0x00000000        0x0 c:/program files (x86)/atmel/avr tools/avr toolchain/bin/../lib/gcc/avr/4.5.1/../../../../avr/lib/avr51\libc.a(memmove.o)
 .text          0x00000000        0x0 c:/program files (x86)/atmel/avr tools/avr toolchain/bin/../lib/gcc/avr/4.5.1/../../../../avr/lib/avr51\libc.a(memset.o)
 .data          0x00000000        0x0 c:/program files (x86)/atmel/avr tools/avr toolchain/bin/../lib/gcc/avr/4.5.1/../../../../avr/lib/avr51\libc.a(memset.o)
 .bss           0x00000000        0x0 c:/program files (x86)/atmel/avr tools/avr toolchain/bin/../lib/gcc/avr/4.5.1/../../../../avr/lib/avr51\libc.a(memset.o)
 .text          0x00000000        0x0 c:/program files (x86)/atmel/avr tools/avr toolchain/bin/../lib/gcc/avr/4.5.1/avr51\libgcc.a(_divmodsi4.o)
 .data          0x00000000        0x0 c:/program files (x86)/atmel/avr tools/avr toolchain/bin/../lib/gcc/avr/4.5.1/avr51\libgcc.a(_divmodsi4.o)
 .bss           0x00000000        0x0 c:/program files (x86)/atmel/avr tools/avr toolchain/bin/../lib/gcc/avr/4.5.1/avr51\libgcc.a(_divmodsi4.o)

Memory Configuration

Name             Origin             Length             Attributes
text             0x00000000         0x00020000         xr
data             0x00800190         0x00003e0c         rw !x
eeprom           0x00810000         0x00001000         rw !x
*default*        0x00000000         0xffffffff

Linker script and memory map

Address of section .data set to 0x800200
LOAD c:/program files (x86)/atmel/avr tools/avr toolchain/bin/../lib/gcc/avr/4.5.1/../../../../avr/lib/avr51/crtm128rfa1.o

.text           0x00000000    0x16a52
                0x00000000                PROVIDE (__text_start, .)
 *(.vectors)
 .vectors       0x00000000      0x120 c:/program files (x86)/atmel/avr tools/avr toolchain/bin/../lib/gcc/avr/4.5.1/../../../../avr/lib/avr51/crtm128rfa1.o
                0x00000000                __vector_default
                0x00000000                __vectors
 *(.vectors)
                0x00000120                PROVIDE (__pds_ff_start, .)
 *(.pds_ff)
 .pds_ff        0x00000120       0x8a Coordinator_Stk600_Atmega128rfa1_8Mhz_Gcc/Obj/csPersistentMem.o
                0x00000120                csGeneralFileDescriptors
                0x00000180                csExtendedFileDescriptors
                0x00000198                csNeighborTableFileDescriptor
                0x0000019e                csGroupTableFileDescriptor
                0x000001a4                csBindingTableFileDescriptor
                0x000001aa                PROVIDE (__pds_ff_end, .)
                0x000001aa                PROVIDE (__pds_fd_start, .)
 *(.pds_fd)
 .pds_fd        0x000001aa       0x24 Coordinator_Stk600_Atmega128rfa1_8Mhz_Gcc/Obj/csPersistentMem.o
                0x000001aa                csGeneralParamsDirDescr
                0x000001b0                csExtendedParamsDirDescr
                0x000001b6                csNwkSecurityTablesDirDescr
                0x000001bc                BCSystemDirDescr
                0x000001c2                BCExtGenParamsDirDescr
                0x000001c8                BCRejoinParamsDirDescr
                0x000001ce                PROVIDE (__pds_fd_end, .)
 *(.progmem.gcc*)
 .progmem.gcc_sw_table
                0x000001ce      0x110 ./../../../../../../Atmel_lib/BitCloud_MEGARF_1_14_0/BitCloud/lib/libBc_Coordinator_Atmega128rfa1_Atmega128rfa1_Gcc.a(macenvPib.o)
 .progmem.gcc_sw_table
                0x000002de       0x34 ./../../../../../../Atmel_lib/BitCloud_MEGARF_1_14_0/BitCloud/lib/libBc_Coordinator_Atmega128rfa1_Atmega128rfa1_Gcc.a(nwk.o)
 .progmem.gcc_sw_table
                0x00000312       0x58 ./../../../../../../Atmel_lib/BitCloud_MEGARF_1_14_0/BitCloud/lib/libBc_Coordinator_Atmega128rfa1_Atmega128rfa1_Gcc.a(zdo.o)
 .progmem.gcc_sw_table
                0x0000036a       0x28 ./../../../../../../Atmel_lib/BitCloud_MEGARF_1_14_0/BitCloud/lib/libBc_Coordinator_Atmega128rfa1_Atmega128rfa1_Gcc.a(machwdManager.o)
 .progmem.gcc_sw_table
                0x00000392       0x3c ./../../../../../../Atmel_lib/BitCloud_MEGARF_1_14_0/BitCloud/lib/libBc_Coordinator_Atmega128rfa1_Atmega128rfa1_Gcc.a(machwiManager.o)
 .progmem.gcc_sw_table
                0x000003ce       0x16 ./../../../../../../Atmel_lib/BitCloud_MEGARF_1_14_0/BitCloud/lib/libBc_Coordinator_Atmega128rfa1_Atmega128rfa1_Gcc.a(machwiPanServer.o)
 .progmem.gcc_sw_table
                0x000003e4       0x20 ./../../../../../../Atmel_lib/BitCloud_MEGARF_1_14_0/BitCloud/lib/libBc_Coordinator_Atmega128rfa1_Atmega128rfa1_Gcc.a(machwiScanHandler.o)
 .progmem.gcc_sw_table
                0x00000404       0x26 ./../../../../../../Atmel_lib/BitCloud_MEGARF_1_14_0/BitCloud/lib/libBc_Coordinator_Atmega128rfa1_Atmega128rfa1_Gcc.a(machwdFrameRoutine.o)
 *(.progmem*)
 .progmem.data  0x0000042a        0x6 Coordinator_Stk600_Atmega128rfa1_8Mhz_Gcc/Obj/WSNCoord.o
                0x0000042a                appCoordinatorCmdDescTable
 .progmem.data  0x00000430       0xa4 Coordinator_Stk600_Atmega128rfa1_8Mhz_Gcc/Obj/csPersistentMem.o
                0x00000430                CsGeneralMemoryIdsTable
                0x00000450                CsExtendedMemoryIdsTable
                0x00000458                CsNwkSecurityMemoryIdsTable
                0x0000045c                BCSystemMemoryIdsTable
                0x0000048a                BCExtGenParamsMemoryIdsTable
                0x000004b2                BCRejoinParamsMemoryIdsTable
 .progmem.data  0x000004d4      0x25e Coordinator_Stk600_Atmega128rfa1_8Mhz_Gcc/Obj/csMem.o
                0x000004d4                defaultNIB
                0x0000055a                defaultZIB
                0x00000589                defaultAIB
                0x0000058b                defaultSIB
                0x000005c7                csReadOnlyItems
                0x000005e6                csMemoryItems
 .progmem.data  0x00000732        0xc ./../../../../../../Atmel_lib/BitCloud_MEGARF_1_14_0/BitCloud/lib/libHAL_AtmlStk600_Atmega128rfa1_8Mhz_Gcc.a(usart.o)
 .progmem.data  0x0000073e       0x10 ./../../../../../../Atmel_lib/BitCloud_MEGARF_1_14_0/BitCloud/lib/libBc_Coordinator_Atmega128rfa1_Atmega128rfa1_Gcc.a(aps.o)
 .progmem.data  0x0000074e      0x132 ./../../../../../../Atmel_lib/BitCloud_MEGARF_1_14_0/BitCloud/lib/libBc_Coordinator_Atmega128rfa1_Atmega128rfa1_Gcc.a(nwk.o)
                0x00000880                . = ALIGN (0x2)
 *(.trampolines*)
 .trampolines   0x00000880        0x0 linker stubs
 *(.jumptables*)
 *(.lowtext*)
 *(.init0)
 .init0         0x00000880        0x0 c:/program files (x86)/atmel/avr tools/avr toolchain/bin/../lib/gcc/avr/4.5.1/../../../../avr/lib/avr51/crtm128rfa1.o
                0x00000880                __init
 .init0         0x00000880       0x30 ./../../../../../../Atmel_lib/BitCloud_MEGARF_1_14_0/BitCloud/lib/WdtInitatmega128rfa1_Gcc.o
                0x00000880                halWdtInit
 *(.init0)
 *(.init1)
 *(.init1)
 *(.init2)
 .init2         0x000008b0        0xc c:/program files (x86)/atmel/avr tools/avr toolchain/bin/../lib/gcc/avr/4.5.1/../../../../avr/lib/avr51/crtm128rfa1.o
 *(.init2)
 *(.init3)
 *(.init3)
 *(.init4)
 .init4         0x000008bc       0x1a c:/program files (x86)/atmel/avr tools/avr toolchain/bin/../lib/gcc/avr/4.5.1/avr51\libgcc.a(_copy_data.o)
                0x000008bc                __do_copy_data
 .init4         0x000008d6       0x10 c:/program files (x86)/atmel/avr tools/avr toolchain/bin/../lib/gcc/avr/4.5.1/avr51\libgcc.a(_clear_bss.o)
                0x000008d6                __do_clear_bss
 *(.init4)
 *(.init5)
 *(.init5)
 *(.init6)
 *(.init6)
 *(.init7)
 *(.init7)
 *(.init8)
 *(.init8)
 *(.text.main)
 .text.main     0x000008e6        0xa Coordinator_Stk600_Atmega128rfa1_8Mhz_Gcc/Obj/WSNDemoApp.o
                0x000008e6                main
 *(.text.main)
 *(.text)
 .text          0x000008f0        0x4 c:/program files (x86)/atmel/avr tools/avr toolchain/bin/../lib/gcc/avr/4.5.1/../../../../avr/lib/avr51/crtm128rfa1.o
                0x000008f0                __vector_22
                0x000008f0                __vector_28
                0x000008f0                __vector_67
                0x000008f0                __vector_32
                0x000008f0                __vector_71
                0x000008f0                __vector_34
                0x000008f0                __vector_62
                0x000008f0                __vector_12
                0x000008f0                __vector_55
                0x000008f0                __vector_69
                0x000008f0                __vector_46
                0x000008f0                __bad_interrupt
                0x000008f0                __vector_31
                0x000008f0                __vector_35
                0x000008f0                __vector_23
                0x000008f0                __vector_68
                0x000008f0                __vector_45
                0x000008f0                __vector_61
                0x000008f0                __vector_11
                0x000008f0                __vector_54
                0x000008f0                __vector_17
                0x000008f0                __vector_19
                0x000008f0                __vector_56
                0x000008f0                __vector_49
                0x000008f0                __vector_41
                0x000008f0                __vector_64
                0x000008f0                __vector_33
                0x000008f0                __vector_47
                0x000008f0                __vector_52
                0x000008f0                __vector_44
                0x000008f0                __vector_51
                0x000008f0                __vector_9
                0x000008f0                __vector_21
                0x000008f0                __vector_66
                0x000008f0                __vector_58
                0x000008f0                __vector_70
                0x000008f0                __vector_40
                0x000008f0                __vector_48
                0x000008f0                __vector_14
                0x000008f0                __vector_57
                0x000008f0                __vector_53
                0x000008f0                __vector_10
                0x000008f0                __vector_50
                0x000008f0                __vector_16
                0x000008f0                __vector_59
                0x000008f0                __vector_18
                0x000008f0                __vector_20
                0x000008f0                __vector_65
 .text          0x000008f4       0xce ./../../../../../../Atmel_lib/BitCloud_MEGARF_1_14_0/BitCloud/lib/libHAL_AtmlStk600_Atmega128rfa1_8Mhz_Gcc.a(halW1.o)
                0x000008f4                halResetW1
                0x00000928                halReadW1Bit
                0x00000958                halReadW1
                0x00000974                halWriteW1bit
                0x000009a0                halWriteW1
                0x000009b2                __delay_us
 .text          0x000009c2       0x3a ./../../../../../../Atmel_lib/BitCloud_MEGARF_1_14_0/BitCloud/lib/libHAL_AtmlStk600_Atmega128rfa1_8Mhz_Gcc.a(halCalibration.o)
                0x000009c2                halMeasurement
 .text          0x000009fc       0xe2 c:/program files (x86)/atmel/avr tools/avr toolchain/bin/../lib/gcc/avr/4.5.1/avr51\libgcc.a(_ashldi3.o)
                0x000009fc                __ashldi3
 *(.text.*)
 .text.batteryDataReady
                0x00000ade       0x24 Coordinator_Stk600_Atmega128rfa1_8Mhz_Gcc/Obj/WSNSensorManager.o
 .text.temperatureDataReady
                0x00000b02       0x38 Coordinator_Stk600_Atmega128rfa1_8Mhz_Gcc/Obj/WSNSensorManager.o
 .text.lightDataReady
                0x00000b3a       0x38 Coordinator_Stk600_Atmega128rfa1_8Mhz_Gcc/Obj/WSNSensorManager.o
 .text.appStartSensorManager
                0x00000b72        0xe Coordinator_Stk600_Atmega128rfa1_8Mhz_Gcc/Obj/WSNSensorManager.o
                0x00000b72                appStartSensorManager
 .text.appStopSensorManager
                0x00000b80        0xe Coordinator_Stk600_Atmega128rfa1_8Mhz_Gcc/Obj/WSNSensorManager.o
                0x00000b80                appStopSensorManager
 .text.appGetSensorData
                0x00000b8e       0x12 Coordinator_Stk600_Atmega128rfa1_8Mhz_Gcc/Obj/WSNSensorManager.o
                0x00000b8e                appGetSensorData
 .text.visualizeAppStarting
                0x00000ba0        0x6 Coordinator_Stk600_Atmega128rfa1_8Mhz_Gcc/Obj/WSNVisualizer.o
                0x00000ba0                visualizeAppStarting
 .text.visualizeNwkStarting
                0x00000ba6       0x14 Coordinator_Stk600_Atmega128rfa1_8Mhz_Gcc/Obj/WSNVisualizer.o
                0x00000ba6                visualizeNwkStarting
 .text.visualizeNwkStarted
                0x00000bba       0x14 Coordinator_Stk600_Atmega128rfa1_8Mhz_Gcc/Obj/WSNVisualizer.o
                0x00000bba                visualizeNwkStarted
 .text.visualizeNwkLeaving
                0x00000bce        0x8 Coordinator_Stk600_Atmega128rfa1_8Mhz_Gcc/Obj/WSNVisualizer.o
                0x00000bce                visualizeNwkLeaving
 .text.visualizeNwkLeft
                0x00000bd6        0x8 Coordinator_Stk600_Atmega128rfa1_8Mhz_Gcc/Obj/WSNVisualizer.o
                0x00000bd6                visualizeNwkLeft
 .text.visualizeAirTxStarted
                0x00000bde        0x8 Coordinator_Stk600_Atmega128rfa1_8Mhz_Gcc/Obj/WSNVisualizer.o
                0x00000bde                visualizeAirTxStarted
 .text.visualizeAirTxFInished
                0x00000be6        0x8 Coordinator_Stk600_Atmega128rfa1_8Mhz_Gcc/Obj/WSNVisualizer.o
                0x00000be6                visualizeAirTxFInished
 .text.visualizeAirRxFinished
                0x00000bee        0x8 Coordinator_Stk600_Atmega128rfa1_8Mhz_Gcc/Obj/WSNVisualizer.o
                0x00000bee                visualizeAirRxFinished
 .text.visualizeSerialTx
                0x00000bf6        0x8 Coordinator_Stk600_Atmega128rfa1_8Mhz_Gcc/Obj/WSNVisualizer.o
                0x00000bf6                visualizeSerialTx
 .text.visualizeWakeUp
                0x00000bfe        0xc Coordinator_Stk600_Atmega128rfa1_8Mhz_Gcc/Obj/WSNVisualizer.o
                0x00000bfe                visualizeWakeUp
 .text.visualizeIdentity
                0x00000c0a        0x8 Coordinator_Stk600_Atmega128rfa1_8Mhz_Gcc/Obj/WSNVisualizer.o
                0x00000c0a                visualizeIdentity
 .text.appCoordinatorInitialization
                0x00000c12        0x6 Coordinator_Stk600_Atmega128rfa1_8Mhz_Gcc/Obj/WSNCoord.o
 .text.appCoordinatorTaskReset
                0x00000c18        0xa Coordinator_Stk600_Atmega128rfa1_8Mhz_Gcc/Obj/WSNCoord.o
 .text.deviceTimerFired
                0x00000c22        0xc Coordinator_Stk600_Atmega128rfa1_8Mhz_Gcc/Obj/WSNCoord.o
 .text.appCoordinatorTaskHandler
                0x00000c2e       0xc2 Coordinator_Stk600_Atmega128rfa1_8Mhz_Gcc/Obj/WSNCoord.o
 .text.appSensorsGot
                0x00000cf0       0x10 Coordinator_Stk600_Atmega128rfa1_8Mhz_Gcc/Obj/WSNCoord.o
 .text.appCoordinatorConfirmHandler
                0x00000d00       0x66 Coordinator_Stk600_Atmega128rfa1_8Mhz_Gcc/Obj/WSNCoord.o
 .text.appCoordinatorNwkInfoCmdHandler
                0x00000d66       0x1a Coordinator_Stk600_Atmega128rfa1_8Mhz_Gcc/Obj/WSNCoord.o
                0x00000d66                appCoordinatorNwkInfoCmdHandler
 .text.appCoordinatorIdentifyCmdHandler
                0x00000d80      0x162 Coordinator_Stk600_Atmega128rfa1_8Mhz_Gcc/Obj/WSNCoord.o
                0x00000d80                appCoordinatorIdentifyCmdHandler
 .text.appCoordinatorGetInterface
                0x00000ee2       0x2c Coordinator_Stk600_Atmega128rfa1_8Mhz_Gcc/Obj/WSNCoord.o
                0x00000ee2                appCoordinatorGetInterface
 .text.appRemoveQueueElement
                0x00000f0e       0x3a Coordinator_Stk600_Atmega128rfa1_8Mhz_Gcc/Obj/WSNMessageSender.o
 .text.msgSenderApsDataConf
                0x00000f48       0x5a Coordinator_Stk600_Atmega128rfa1_8Mhz_Gcc/Obj/WSNMessageSender.o
 .text.appInitMsgSender
                0x00000fa2       0x46 Coordinator_Stk600_Atmega128rfa1_8Mhz_Gcc/Obj/WSNMessageSender.o
                0x00000fa2                appInitMsgSender
 .text.appMsgSender
                0x00000fe8       0xb6 Coordinator_Stk600_Atmega128rfa1_8Mhz_Gcc/Obj/WSNMessageSender.o
                0x00000fe8                appMsgSender
 .text.appCreateTxFrame
                0x0000109e       0xa8 Coordinator_Stk600_Atmega128rfa1_8Mhz_Gcc/Obj/WSNMessageSender.o
                0x0000109e                appCreateTxFrame
 .text.appInitCmdHandler
                0x00001146       0x4c Coordinator_Stk600_Atmega128rfa1_8Mhz_Gcc/Obj/WSNCommandHandler.o
                0x00001146                appInitCmdHandler
 .text.appCmdHandler
                0x00001192       0x66 Coordinator_Stk600_Atmega128rfa1_8Mhz_Gcc/Obj/WSNCommandHandler.o
                0x00001192                appCmdHandler
 .text.appCreateCommand
                0x000011f8       0x68 Coordinator_Stk600_Atmega128rfa1_8Mhz_Gcc/Obj/WSNCommandHandler.o
                0x000011f8                appCreateCommand
 .text.appPostGlobalTask
                0x00001260       0x1a Coordinator_Stk600_Atmega128rfa1_8Mhz_Gcc/Obj/WSNDemoApp.o
 .text.appZdpLeaveResp
                0x0000127a       0x16 Coordinator_Stk600_Atmega128rfa1_8Mhz_Gcc/Obj/WSNDemoApp.o
 .text.manageBlinkingDuringRejoin
                0x00001290       0x2e Coordinator_Stk600_Atmega128rfa1_8Mhz_Gcc/Obj/WSNDemoApp.o
 .text.identifyTimerFired
                0x000012be       0x52 Coordinator_Stk600_Atmega128rfa1_8Mhz_Gcc/Obj/WSNDemoApp.o
 .text.appZdoStartNetworkConf
                0x00001310       0x60 Coordinator_Stk600_Atmega128rfa1_8Mhz_Gcc/Obj/WSNDemoApp.o
 .text.startingNetworkTimerFired
                0x00001370        0x6 Coordinator_Stk600_Atmega128rfa1_8Mhz_Gcc/Obj/WSNDemoApp.o
 .text.appApsDataIndHandler
                0x00001376       0x2a Coordinator_Stk600_Atmega128rfa1_8Mhz_Gcc/Obj/WSNDemoApp.o
 .text.APL_TaskHandler
                0x000013a0      0x1e4 Coordinator_Stk600_Atmega128rfa1_8Mhz_Gcc/Obj/WSNDemoApp.o
                0x000013a0                APL_TaskHandler
 .text.ZDO_MgmtNwkUpdateNotf
                0x00001584       0xac Coordinator_Stk600_Atmega128rfa1_8Mhz_Gcc/Obj/WSNDemoApp.o
                0x00001584                ZDO_MgmtNwkUpdateNotf
 .text.ZDO_WakeUpInd
                0x00001630       0x10 Coordinator_Stk600_Atmega128rfa1_8Mhz_Gcc/Obj/WSNDemoApp.o
                0x00001630                ZDO_WakeUpInd
 .text.appReadLqiRssi
                0x00001640       0x34 Coordinator_Stk600_Atmega128rfa1_8Mhz_Gcc/Obj/WSNDemoApp.o
                0x00001640                appReadLqiRssi
 .text.appPostSubTaskTask
                0x00001674       0x2c Coordinator_Stk600_Atmega128rfa1_8Mhz_Gcc/Obj/WSNDemoApp.o
                0x00001674                appPostSubTaskTask
 .text.appPostCmdHandlerTask
                0x000016a0       0x2c Coordinator_Stk600_Atmega128rfa1_8Mhz_Gcc/Obj/WSNDemoApp.o
                0x000016a0                appPostCmdHandlerTask
 .text.appPostMsgSenderTask
                0x000016cc       0x2c Coordinator_Stk600_Atmega128rfa1_8Mhz_Gcc/Obj/WSNDemoApp.o
                0x000016cc                appPostMsgSenderTask
 .text.appPcCmdReceived
                0x000016f8       0x20 Coordinator_Stk600_Atmega128rfa1_8Mhz_Gcc/Obj/WSNDemoApp.o
                0x000016f8                appPcCmdReceived
 .text.appStartIdentifyVisualization
                0x00001718       0x52 Coordinator_Stk600_Atmega128rfa1_8Mhz_Gcc/Obj/WSNDemoApp.o
                0x00001718                appStartIdentifyVisualization
 .text.appGetCmdDescriptor
                0x0000176a       0x6a Coordinator_Stk600_Atmega128rfa1_8Mhz_Gcc/Obj/WSNDemoApp.o
                0x0000176a                appGetCmdDescriptor
 .text.ZDO_BindIndication
                0x000017d4        0x2 Coordinator_Stk600_Atmega128rfa1_8Mhz_Gcc/Obj/WSNDemoApp.o
                0x000017d4                ZDO_BindIndication
 .text.ZDO_UnbindIndication
                0x000017d6        0x2 Coordinator_Stk600_Atmega128rfa1_8Mhz_Gcc/Obj/WSNDemoApp.o
                0x000017d6                ZDO_UnbindIndication
 .text.sendNextMessage
                0x000017d8       0x44 Coordinator_Stk600_Atmega128rfa1_8Mhz_Gcc/Obj/WSNUARTManager.o
 .text.writeConfirm
                0x0000181c       0x28 Coordinator_Stk600_Atmega128rfa1_8Mhz_Gcc/Obj/WSNUARTManager.o
 .text.resetUsartRx
                0x00001844       0x1e Coordinator_Stk600_Atmega128rfa1_8Mhz_Gcc/Obj/WSNUARTManager.o
 .text.linkSafetyTimerFired
                0x00001862        0x6 Coordinator_Stk600_Atmega128rfa1_8Mhz_Gcc/Obj/WSNUARTManager.o
 .text.readByteEvent
                0x00001868      0x12e Coordinator_Stk600_Atmega128rfa1_8Mhz_Gcc/Obj/WSNUARTManager.o
 .text.appStartUsartManager
                0x00001996       0xae Coordinator_Stk600_Atmega128rfa1_8Mhz_Gcc/Obj/WSNUARTManager.o
                0x00001996                appStartUsartManager
 .text.appSendMessageToUsart
                0x00001a44       0xbc Coordinator_Stk600_Atmega128rfa1_8Mhz_Gcc/Obj/WSNUARTManager.o
                0x00001a44                appSendMessageToUsart
 .text.pdsDummyCallback
                0x00001b00        0x2 Coordinator_Stk600_Atmega128rfa1_8Mhz_Gcc/Obj/pdsWriteData.o
                0x00001b00                pdsDummyCallback
 .text.pdsAddDataForCommitment
                0x00001b02       0x70 Coordinator_Stk600_Atmega128rfa1_8Mhz_Gcc/Obj/pdsWriteData.o
                0x00001b02                pdsAddDataForCommitment
 .text.pdsWaitMemoryFree
                0x00001b72       0x10 Coordinator_Stk600_Atmega128rfa1_8Mhz_Gcc/Obj/pdsWriteData.o
                0x00001b72                pdsWaitMemoryFree
 .text.pdsRead  0x00001b82       0x3e Coordinator_Stk600_Atmega128rfa1_8Mhz_Gcc/Obj/pdsWriteData.o
                0x00001b82                pdsRead
 .text.pdsWrite
                0x00001bc0       0x3e Coordinator_Stk600_Atmega128rfa1_8Mhz_Gcc/Obj/pdsWriteData.o
                0x00001bc0                pdsWrite
 .text.pdsStartCommitment
                0x00001bfe      0x1e6 Coordinator_Stk600_Atmega128rfa1_8Mhz_Gcc/Obj/pdsWriteData.o
                0x00001bfe                pdsStartCommitment
 .text.pdsMemMaskIsAnyBitSet
                0x00001de4       0x1c Coordinator_Stk600_Atmega128rfa1_8Mhz_Gcc/Obj/pdsDataServer.o
 .text.pdsInitMemMask
                0x00001e00       0x3c Coordinator_Stk600_Atmega128rfa1_8Mhz_Gcc/Obj/pdsDataServer.o
 .text.pdsGetMemoryAllowed
                0x00001e3c       0x38 Coordinator_Stk600_Atmega128rfa1_8Mhz_Gcc/Obj/pdsDataServer.o
 .text.PDS_Store
                0x00001e74       0x14 Coordinator_Stk600_Atmega128rfa1_8Mhz_Gcc/Obj/pdsDataServer.o
                0x00001e74                PDS_Store
 .text.PDS_IsMemoryRestored
                0x00001e88       0x54 Coordinator_Stk600_Atmega128rfa1_8Mhz_Gcc/Obj/pdsDataServer.o
                0x00001e88                PDS_IsMemoryRestored
 .text.PDS_Init
                0x00001edc      0x226 Coordinator_Stk600_Atmega128rfa1_8Mhz_Gcc/Obj/pdsInit.o
                0x00001edc                PDS_Init
 .text.pdsTimerFired
                0x00002102        0xe Coordinator_Stk600_Atmega128rfa1_8Mhz_Gcc/Obj/pdsTimer.o
 .text.pdsTimerInit
                0x00002110       0x12 Coordinator_Stk600_Atmega128rfa1_8Mhz_Gcc/Obj/pdsTimer.o
                0x00002110                pdsTimerInit
 .text.pdsGetFileDescrRec
                0x00002122       0x66 Coordinator_Stk600_Atmega128rfa1_8Mhz_Gcc/Obj/pdsMemAccess.o
                0x00002122                pdsGetFileDescrRec
 .text.pdsGetFileOffset
                0x00002188      0x112 Coordinator_Stk600_Atmega128rfa1_8Mhz_Gcc/Obj/pdsMemAccess.o
                0x00002188                pdsGetFileOffset
 .text.pdsPrepareMemoryAccess
                0x0000229a       0xc0 Coordinator_Stk600_Atmega128rfa1_8Mhz_Gcc/Obj/pdsMemAccess.o
                0x0000229a                pdsPrepareMemoryAccess
 .text.pdsExpandMemoryMask
                0x0000235a      0x162 Coordinator_Stk600_Atmega128rfa1_8Mhz_Gcc/Obj/pdsMemAccess.o
                0x0000235a                pdsExpandMemoryMask
 .text.pdsPrepareAccessContext
                0x000024bc       0x40 Coordinator_Stk600_Atmega128rfa1_8Mhz_Gcc/Obj/pdsMemAccess.o
                0x000024bc                pdsPrepareAccessContext
 .text.pdsCalculateRAMDataCrc
                0x000024fc       0x1c Coordinator_Stk600_Atmega128rfa1_8Mhz_Gcc/Obj/pdsCrcService.o
                0x000024fc                pdsCalculateRAMDataCrc
 .text.pdsCheckFile
                0x00002518       0xc8 Coordinator_Stk600_Atmega128rfa1_8Mhz_Gcc/Obj/pdsCrcService.o
                0x00002518                pdsCheckFile
 .text.pdsCheckStorage
                0x000025e0       0x8e Coordinator_Stk600_Atmega128rfa1_8Mhz_Gcc/Obj/pdsCrcService.o
                0x000025e0                pdsCheckStorage
 .text.BSP_OpenTemperatureSensor
                0x0000266e        0x4 Coordinator_Stk600_Atmega128rfa1_8Mhz_Gcc/Obj/fakeBSP.o
                0x0000266e                BSP_OpenTemperatureSensor
 .text.BSP_CloseTemperatureSensor
                0x00002672        0x4 Coordinator_Stk600_Atmega128rfa1_8Mhz_Gcc/Obj/fakeBSP.o
                0x00002672                BSP_CloseTemperatureSensor
 .text.BSP_ReadTemperatureData
                0x00002676       0x2e Coordinator_Stk600_Atmega128rfa1_8Mhz_Gcc/Obj/fakeBSP.o
                0x00002676                BSP_ReadTemperatureData
 .text.bspTemperatureSensorHandler
                0x000026a4       0x12 Coordinator_Stk600_Atmega128rfa1_8Mhz_Gcc/Obj/fakeBSP.o
                0x000026a4                bspTemperatureSensorHandler
 .text.BSP_OpenLightSensor
                0x000026b6        0x4 Coordinator_Stk600_Atmega128rfa1_8Mhz_Gcc/Obj/fakeBSP.o
                0x000026b6                BSP_OpenLightSensor
 .text.BSP_CloseLightSensor
                0x000026ba        0x4 Coordinator_Stk600_Atmega128rfa1_8Mhz_Gcc/Obj/fakeBSP.o
                0x000026ba                BSP_CloseLightSensor
 .text.BSP_ReadLightData
                0x000026be       0x2e Coordinator_Stk600_Atmega128rfa1_8Mhz_Gcc/Obj/fakeBSP.o
                0x000026be                BSP_ReadLightData
 .text.bspLightSensorHandler
                0x000026ec       0x12 Coordinator_Stk600_Atmega128rfa1_8Mhz_Gcc/Obj/fakeBSP.o
                0x000026ec                bspLightSensorHandler
 .text.BSP_OpenBatterySensor
                0x000026fe        0x4 Coordinator_Stk600_Atmega128rfa1_8Mhz_Gcc/Obj/fakeBSP.o
                0x000026fe                BSP_OpenBatterySensor
 .text.BSP_CloseBatterySensor
                0x00002702        0x4 Coordinator_Stk600_Atmega128rfa1_8Mhz_Gcc/Obj/fakeBSP.o
                0x00002702                BSP_CloseBatterySensor
 .text.BSP_ReadBatteryData
                0x00002706       0x2e Coordinator_Stk600_Atmega128rfa1_8Mhz_Gcc/Obj/fakeBSP.o
                0x00002706                BSP_ReadBatteryData
 .text.bspEmptyBatteryHandler
                0x00002734       0x10 Coordinator_Stk600_Atmega128rfa1_8Mhz_Gcc/Obj/fakeBSP.o
                0x00002734                bspEmptyBatteryHandler
 .text.bspButtonsHandler
                0x00002744       0x8a Coordinator_Stk600_Atmega128rfa1_8Mhz_Gcc/Obj/buttons.o
                0x00002744                bspButtonsHandler
 .text.BSP_OpenLeds
                0x000027ce       0x10 Coordinator_Stk600_Atmega128rfa1_8Mhz_Gcc/Obj/leds.o
                0x000027ce                BSP_OpenLeds
 .text.BSP_OnLed
                0x000027de       0x1a Coordinator_Stk600_Atmega128rfa1_8Mhz_Gcc/Obj/leds.o
                0x000027de                BSP_OnLed
 .text.BSP_OffLed
                0x000027f8       0x1a Coordinator_Stk600_Atmega128rfa1_8Mhz_Gcc/Obj/leds.o
                0x000027f8                BSP_OffLed
 .text.BSP_ToggleLed
                0x00002812       0x28 Coordinator_Stk600_Atmega128rfa1_8Mhz_Gcc/Obj/leds.o
                0x00002812                BSP_ToggleLed
 .text.BSP_TaskHandler
                0x0000283a       0x7a Coordinator_Stk600_Atmega128rfa1_8Mhz_Gcc/Obj/bspTaskManager.o
                0x0000283a                BSP_TaskHandler
 .text.csSetToDefault
                0x000028b4       0x88 Coordinator_Stk600_Atmega128rfa1_8Mhz_Gcc/Obj/csMem.o
                0x000028b4                csSetToDefault
 .text.csGetItem
                0x0000293c       0x38 Coordinator_Stk600_Atmega128rfa1_8Mhz_Gcc/Obj/configServer.o
 .text.CS_Init  0x00002974        0xa Coordinator_Stk600_Atmega128rfa1_8Mhz_Gcc/Obj/configServer.o
                0x00002974                CS_Init
 .text.CS_ReadParameter
                0x0000297e       0x36 Coordinator_Stk600_Atmega128rfa1_8Mhz_Gcc/Obj/configServer.o
                0x0000297e                CS_ReadParameter
 .text.CS_WriteParameter
                0x000029b4       0x34 Coordinator_Stk600_Atmega128rfa1_8Mhz_Gcc/Obj/configServer.o
                0x000029b4                CS_WriteParameter
 .text.CS_GetMemory
                0x000029e8       0x18 Coordinator_Stk600_Atmega128rfa1_8Mhz_Gcc/Obj/configServer.o
                0x000029e8                CS_GetMemory
 .text.HAL_Delay
                0x00002a00        0x6 ./../../../../../../Atmel_lib/BitCloud_MEGARF_1_14_0/BitCloud/lib/libHAL_AtmlStk600_Atmega128rfa1_8Mhz_Gcc.a(halDelay.o)
                0x00002a00                HAL_Delay
 .text.halAppTimerHandler
                0x00002a06       0x8a ./../../../../../../Atmel_lib/BitCloud_MEGARF_1_14_0/BitCloud/lib/libHAL_AtmlStk600_Atmega128rfa1_8Mhz_Gcc.a(appTimer.o)
                0x00002a06                halAppTimerHandler
 .text.HAL_StartAppTimer
                0x00002a90       0x58 ./../../../../../../Atmel_lib/BitCloud_MEGARF_1_14_0/BitCloud/lib/libHAL_AtmlStk600_Atmega128rfa1_8Mhz_Gcc.a(appTimer.o)
                0x00002a90                HAL_StartAppTimer
 .text.HAL_StopAppTimer
                0x00002ae8       0x4a ./../../../../../../Atmel_lib/BitCloud_MEGARF_1_14_0/BitCloud/lib/libHAL_AtmlStk600_Atmega128rfa1_8Mhz_Gcc.a(appTimer.o)
                0x00002ae8                HAL_StopAppTimer
 .text.HAL_GetSystemTime
                0x00002b32       0x4e ./../../../../../../Atmel_lib/BitCloud_MEGARF_1_14_0/BitCloud/lib/libHAL_AtmlStk600_Atmega128rfa1_8Mhz_Gcc.a(appTimer.o)
                0x00002b32                HAL_GetSystemTime
 .text.halUsartHwController
                0x00002b80       0x9a ./../../../../../../Atmel_lib/BitCloud_MEGARF_1_14_0/BitCloud/lib/libHAL_AtmlStk600_Atmega128rfa1_8Mhz_Gcc.a(usart.o)
 .text.halSigUsartReceptionComplete
                0x00002c1a       0x54 ./../../../../../../Atmel_lib/BitCloud_MEGARF_1_14_0/BitCloud/lib/libHAL_AtmlStk600_Atmega128rfa1_8Mhz_Gcc.a(usart.o)
 .text.halSetUsartClockPinDirection
                0x00002c6e       0x36 ./../../../../../../Atmel_lib/BitCloud_MEGARF_1_14_0/BitCloud/lib/libHAL_AtmlStk600_Atmega128rfa1_8Mhz_Gcc.a(usart.o)
 .text.halUsartTaskUsart0Dre
                0x00002ca4        0x8 ./../../../../../../Atmel_lib/BitCloud_MEGARF_1_14_0/BitCloud/lib/libHAL_AtmlStk600_Atmega128rfa1_8Mhz_Gcc.a(usart.o)
 .text.halUsartTaskUsart0Rxc
                0x00002cac        0x8 ./../../../../../../Atmel_lib/BitCloud_MEGARF_1_14_0/BitCloud/lib/libHAL_AtmlStk600_Atmega128rfa1_8Mhz_Gcc.a(usart.o)
 .text.halUsartTaskUsart1Dre
                0x00002cb4        0x8 ./../../../../../../Atmel_lib/BitCloud_MEGARF_1_14_0/BitCloud/lib/libHAL_AtmlStk600_Atmega128rfa1_8Mhz_Gcc.a(usart.o)
 .text.halUsartTaskUsart1Rxc
                0x00002cbc        0x8 ./../../../../../../Atmel_lib/BitCloud_MEGARF_1_14_0/BitCloud/lib/libHAL_AtmlStk600_Atmega128rfa1_8Mhz_Gcc.a(usart.o)
 .text.halSigUsartHandler
                0x00002cc4       0x6e ./../../../../../../Atmel_lib/BitCloud_MEGARF_1_14_0/BitCloud/lib/libHAL_AtmlStk600_Atmega128rfa1_8Mhz_Gcc.a(usart.o)
                0x00002cc4                halSigUsartHandler
 .text.halPostUsartTask
                0x00002d32       0x3c ./../../../../../../Atmel_lib/BitCloud_MEGARF_1_14_0/BitCloud/lib/libHAL_AtmlStk600_Atmega128rfa1_8Mhz_Gcc.a(usart.o)
                0x00002d32                halPostUsartTask
 .text.halUsartRxBufferFiller
                0x00002d6e       0xa4 ./../../../../../../Atmel_lib/BitCloud_MEGARF_1_14_0/BitCloud/lib/libHAL_AtmlStk600_Atmega128rfa1_8Mhz_Gcc.a(usart.o)
                0x00002d6e                halUsartRxBufferFiller
 .text.halSigUsartTransmissionComplete
                0x00002e12       0x68 ./../../../../../../Atmel_lib/BitCloud_MEGARF_1_14_0/BitCloud/lib/libHAL_AtmlStk600_Atmega128rfa1_8Mhz_Gcc.a(usart.o)
                0x00002e12                halSigUsartTransmissionComplete
 .text.halUsartTaskUsart1Txc
                0x00002e7a        0x8 ./../../../../../../Atmel_lib/BitCloud_MEGARF_1_14_0/BitCloud/lib/libHAL_AtmlStk600_Atmega128rfa1_8Mhz_Gcc.a(usart.o)
 .text.halUsartTaskUsart0Txc
                0x00002e82        0x8 ./../../../../../../Atmel_lib/BitCloud_MEGARF_1_14_0/BitCloud/lib/libHAL_AtmlStk600_Atmega128rfa1_8Mhz_Gcc.a(usart.o)
 .text.halIsUsartChannelCorrect
                0x00002e8a       0x16 ./../../../../../../Atmel_lib/BitCloud_MEGARF_1_14_0/BitCloud/lib/libHAL_AtmlStk600_Atmega128rfa1_8Mhz_Gcc.a(usart.o)
                0x00002e8a                halIsUsartChannelCorrect
 .text.HAL_ReadUsart
                0x00002ea0       0xc6 ./../../../../../../Atmel_lib/BitCloud_MEGARF_1_14_0/BitCloud/lib/libHAL_AtmlStk600_Atmega128rfa1_8Mhz_Gcc.a(usart.o)
                0x00002ea0                HAL_ReadUsart
 .text.HAL_WriteUsart
                0x00002f66       0xfc ./../../../../../../Atmel_lib/BitCloud_MEGARF_1_14_0/BitCloud/lib/libHAL_AtmlStk600_Atmega128rfa1_8Mhz_Gcc.a(usart.o)
                0x00002f66                HAL_WriteUsart
 .text.HAL_OpenUsart
                0x00003062       0x92 ./../../../../../../Atmel_lib/BitCloud_MEGARF_1_14_0/BitCloud/lib/libHAL_AtmlStk600_Atmega128rfa1_8Mhz_Gcc.a(usart.o)
                0x00003062                HAL_OpenUsart
 .text.HAL_ReadEeprom
                0x000030f4       0xc8 ./../../../../../../Atmel_lib/BitCloud_MEGARF_1_14_0/BitCloud/lib/libHAL_AtmlStk600_Atmega128rfa1_8Mhz_Gcc.a(eeprom.o)
                0x000030f4                HAL_ReadEeprom
 .text.HAL_WriteEeprom
                0x000031bc       0xea ./../../../../../../Atmel_lib/BitCloud_MEGARF_1_14_0/BitCloud/lib/libHAL_AtmlStk600_Atmega128rfa1_8Mhz_Gcc.a(eeprom.o)
                0x000031bc                HAL_WriteEeprom
 .text.HAL_IsEepromBusy
                0x000032a6        0xe ./../../../../../../Atmel_lib/BitCloud_MEGARF_1_14_0/BitCloud/lib/libHAL_AtmlStk600_Atmega128rfa1_8Mhz_Gcc.a(eeprom.o)
                0x000032a6                HAL_IsEepromBusy
 .text.halSigEepromReadyHandler
                0x000032b4       0x60 ./../../../../../../Atmel_lib/BitCloud_MEGARF_1_14_0/BitCloud/lib/libHAL_AtmlStk600_Atmega128rfa1_8Mhz_Gcc.a(eeprom.o)
                0x000032b4                halSigEepromReadyHandler
 .text.halAddTimer
                0x00003314      0x370 ./../../../../../../Atmel_lib/BitCloud_MEGARF_1_14_0/BitCloud/lib/libHAL_AtmlStk600_Atmega128rfa1_8Mhz_Gcc.a(timer.o)
                0x00003314                halAddTimer
 .text.halRemoveTimer
                0x00003684       0x3e ./../../../../../../Atmel_lib/BitCloud_MEGARF_1_14_0/BitCloud/lib/libHAL_AtmlStk600_Atmega128rfa1_8Mhz_Gcc.a(timer.o)
                0x00003684                halRemoveTimer
 .text.halFindPrevTimer
                0x000036c2       0x1e ./../../../../../../Atmel_lib/BitCloud_MEGARF_1_14_0/BitCloud/lib/libHAL_AtmlStk600_Atmega128rfa1_8Mhz_Gcc.a(timer.o)
                0x000036c2                halFindPrevTimer
 .text.halClearTimeControl
                0x000036e0       0x14 ./../../../../../../Atmel_lib/BitCloud_MEGARF_1_14_0/BitCloud/lib/libHAL_AtmlStk600_Atmega128rfa1_8Mhz_Gcc.a(halSleepTimerClock.o)
                0x000036e0                halClearTimeControl
 .text.halWakeupFromIrq
                0x000036f4       0x28 ./../../../../../../Atmel_lib/BitCloud_MEGARF_1_14_0/BitCloud/lib/libHAL_AtmlStk600_Atmega128rfa1_8Mhz_Gcc.a(halSleepTimerClock.o)
                0x000036f4                halWakeupFromIrq
 .text.halStartSleepTimerClock
                0x0000371c       0x48 ./../../../../../../Atmel_lib/BitCloud_MEGARF_1_14_0/BitCloud/lib/libHAL_AtmlStk600_Atmega128rfa1_8Mhz_Gcc.a(halSleepTimerClock.o)
                0x0000371c                halStartSleepTimerClock
 .text.halStopSleepTimerClock
                0x00003764       0x42 ./../../../../../../Atmel_lib/BitCloud_MEGARF_1_14_0/BitCloud/lib/libHAL_AtmlStk600_Atmega128rfa1_8Mhz_Gcc.a(halSleepTimerClock.o)
                0x00003764                halStopSleepTimerClock
 .text.halSetSleepTimerInterval
                0x000037a6       0x6a ./../../../../../../Atmel_lib/BitCloud_MEGARF_1_14_0/BitCloud/lib/libHAL_AtmlStk600_Atmega128rfa1_8Mhz_Gcc.a(halSleepTimerClock.o)
                0x000037a6                halSetSleepTimerInterval
 .text.halGetTimeOfSleepTimer
                0x00003810       0xbc ./../../../../../../Atmel_lib/BitCloud_MEGARF_1_14_0/BitCloud/lib/libHAL_AtmlStk600_Atmega128rfa1_8Mhz_Gcc.a(halSleepTimerClock.o)
                0x00003810                halGetTimeOfSleepTimer
 .text.halSleepTimerFrequency
                0x000038cc        0xa ./../../../../../../Atmel_lib/BitCloud_MEGARF_1_14_0/BitCloud/lib/libHAL_AtmlStk600_Atmega128rfa1_8Mhz_Gcc.a(halSleepTimerClock.o)
                0x000038cc                halSleepTimerFrequency
 .text.halSleepSystemTimeSynchronize
                0x000038d6       0x62 ./../../../../../../Atmel_lib/BitCloud_MEGARF_1_14_0/BitCloud/lib/libHAL_AtmlStk600_Atmega128rfa1_8Mhz_Gcc.a(halSleepTimerClock.o)
                0x000038d6                halSleepSystemTimeSynchronize
 .text.__vector_13
                0x00003938       0x92 ./../../../../../../Atmel_lib/BitCloud_MEGARF_1_14_0/BitCloud/lib/libHAL_AtmlStk600_Atmega128rfa1_8Mhz_Gcc.a(halSleepTimerClock.o)
                0x00003938                __vector_13
 .text.__vector_15
                0x000039ca      0x10a ./../../../../../../Atmel_lib/BitCloud_MEGARF_1_14_0/BitCloud/lib/libHAL_AtmlStk600_Atmega128rfa1_8Mhz_Gcc.a(halSleepTimerClock.o)
                0x000039ca                __vector_15
 .text.halInitAppClock
                0x00003ad4       0x26 ./../../../../../../Atmel_lib/BitCloud_MEGARF_1_14_0/BitCloud/lib/libHAL_AtmlStk600_Atmega128rfa1_8Mhz_Gcc.a(halAppClock.o)
                0x00003ad4                halInitAppClock
 .text.halAdjustSleepInterval
                0x00003afa       0x50 ./../../../../../../Atmel_lib/BitCloud_MEGARF_1_14_0/BitCloud/lib/libHAL_AtmlStk600_Atmega128rfa1_8Mhz_Gcc.a(halAppClock.o)
                0x00003afa                halAdjustSleepInterval
 .text.halAppSystemTimeSynchronize
                0x00003b4a       0x62 ./../../../../../../Atmel_lib/BitCloud_MEGARF_1_14_0/BitCloud/lib/libHAL_AtmlStk600_Atmega128rfa1_8Mhz_Gcc.a(halAppClock.o)
                0x00003b4a                halAppSystemTimeSynchronize
 .text.halGetTimeOfAppTimer
                0x00003bac       0x16 ./../../../../../../Atmel_lib/BitCloud_MEGARF_1_14_0/BitCloud/lib/libHAL_AtmlStk600_Atmega128rfa1_8Mhz_Gcc.a(halAppClock.o)
                0x00003bac                halGetTimeOfAppTimer
 .text.__vector_42
                0x00003bc2       0x4c ./../../../../../../Atmel_lib/BitCloud_MEGARF_1_14_0/BitCloud/lib/libHAL_AtmlStk600_Atmega128rfa1_8Mhz_Gcc.a(halAppClock.o)
                0x00003bc2                __vector_42
 .text.halSetUsartConfig
                0x00003c0e       0xb2 ./../../../../../../Atmel_lib/BitCloud_MEGARF_1_14_0/BitCloud/lib/libHAL_AtmlStk600_Atmega128rfa1_8Mhz_Gcc.a(halUsart.o)
                0x00003c0e                halSetUsartConfig
 .text.__vector_26
                0x00003cc0       0x5c ./../../../../../../Atmel_lib/BitCloud_MEGARF_1_14_0/BitCloud/lib/libHAL_AtmlStk600_Atmega128rfa1_8Mhz_Gcc.a(halUsart.o)
                0x00003cc0                __vector_26
 .text.__vector_27
                0x00003d1c       0x5c ./../../../../../../Atmel_lib/BitCloud_MEGARF_1_14_0/BitCloud/lib/libHAL_AtmlStk600_Atmega128rfa1_8Mhz_Gcc.a(halUsart.o)
                0x00003d1c                __vector_27
 .text.__vector_25
                0x00003d78       0x64 ./../../../../../../Atmel_lib/BitCloud_MEGARF_1_14_0/BitCloud/lib/libHAL_AtmlStk600_Atmega128rfa1_8Mhz_Gcc.a(halUsart.o)
                0x00003d78                __vector_25
 .text.__vector_37
                0x00003ddc       0x5c ./../../../../../../Atmel_lib/BitCloud_MEGARF_1_14_0/BitCloud/lib/libHAL_AtmlStk600_Atmega128rfa1_8Mhz_Gcc.a(halUsart.o)
                0x00003ddc                __vector_37
 .text.__vector_38
                0x00003e38       0x5c ./../../../../../../Atmel_lib/BitCloud_MEGARF_1_14_0/BitCloud/lib/libHAL_AtmlStk600_Atmega128rfa1_8Mhz_Gcc.a(halUsart.o)
                0x00003e38                __vector_38
 .text.__vector_36
                0x00003e94       0x64 ./../../../../../../Atmel_lib/BitCloud_MEGARF_1_14_0/BitCloud/lib/libHAL_AtmlStk600_Atmega128rfa1_8Mhz_Gcc.a(halUsart.o)
                0x00003e94                __vector_36
 .text.__vector_1
                0x00003ef8       0x5a ./../../../../../../Atmel_lib/BitCloud_MEGARF_1_14_0/BitCloud/lib/libHAL_AtmlStk600_Atmega128rfa1_8Mhz_Gcc.a(halIrq.o)
                0x00003ef8                __vector_1
 .text.__vector_2
                0x00003f52       0x5a ./../../../../../../Atmel_lib/BitCloud_MEGARF_1_14_0/BitCloud/lib/libHAL_AtmlStk600_Atmega128rfa1_8Mhz_Gcc.a(halIrq.o)
                0x00003f52                __vector_2
 .text.__vector_3
                0x00003fac       0x5a ./../../../../../../Atmel_lib/BitCloud_MEGARF_1_14_0/BitCloud/lib/libHAL_AtmlStk600_Atmega128rfa1_8Mhz_Gcc.a(halIrq.o)
                0x00003fac                __vector_3
 .text.__vector_4
                0x00004006       0x5a ./../../../../../../Atmel_lib/BitCloud_MEGARF_1_14_0/BitCloud/lib/libHAL_AtmlStk600_Atmega128rfa1_8Mhz_Gcc.a(halIrq.o)
                0x00004006                __vector_4
 .text.__vector_5
                0x00004060       0x5a ./../../../../../../Atmel_lib/BitCloud_MEGARF_1_14_0/BitCloud/lib/libHAL_AtmlStk600_Atmega128rfa1_8Mhz_Gcc.a(halIrq.o)
                0x00004060                __vector_5
 .text.__vector_6
                0x000040ba       0x5a ./../../../../../../Atmel_lib/BitCloud_MEGARF_1_14_0/BitCloud/lib/libHAL_AtmlStk600_Atmega128rfa1_8Mhz_Gcc.a(halIrq.o)
                0x000040ba                __vector_6
 .text.__vector_7
                0x00004114       0x5a ./../../../../../../Atmel_lib/BitCloud_MEGARF_1_14_0/BitCloud/lib/libHAL_AtmlStk600_Atmega128rfa1_8Mhz_Gcc.a(halIrq.o)
                0x00004114                __vector_7
 .text.__vector_8
                0x0000416e       0x5a ./../../../../../../Atmel_lib/BitCloud_MEGARF_1_14_0/BitCloud/lib/libHAL_AtmlStk600_Atmega128rfa1_8Mhz_Gcc.a(halIrq.o)
                0x0000416e                __vector_8
 .text.halEepromWrite
                0x000041c8       0x1c ./../../../../../../Atmel_lib/BitCloud_MEGARF_1_14_0/BitCloud/lib/libHAL_AtmlStk600_Atmega128rfa1_8Mhz_Gcc.a(halEeprom.o)
                0x000041c8                halEepromWrite
 .text.__vector_30
                0x000041e4       0x44 ./../../../../../../Atmel_lib/BitCloud_MEGARF_1_14_0/BitCloud/lib/libHAL_AtmlStk600_Atmega128rfa1_8Mhz_Gcc.a(halEeprom.o)
                0x000041e4                __vector_30
 .text.halPowerOn
                0x00004228       0x3e ./../../../../../../Atmel_lib/BitCloud_MEGARF_1_14_0/BitCloud/lib/libHAL_AtmlStk600_Atmega128rfa1_8Mhz_Gcc.a(halSleep.o)
                0x00004228                halPowerOn
 .text.halPowerOff
                0x00004266       0x9a ./../../../../../../Atmel_lib/BitCloud_MEGARF_1_14_0/BitCloud/lib/libHAL_AtmlStk600_Atmega128rfa1_8Mhz_Gcc.a(halSleep.o)
                0x00004266                halPowerOff
 .text.HAL_Sleep
                0x00004300       0x40 ./../../../../../../Atmel_lib/BitCloud_MEGARF_1_14_0/BitCloud/lib/libHAL_AtmlStk600_Atmega128rfa1_8Mhz_Gcc.a(halSleep.o)
                0x00004300                HAL_Sleep
 .text.halWakeupHandler
                0x00004340       0x6a ./../../../../../../Atmel_lib/BitCloud_MEGARF_1_14_0/BitCloud/lib/libHAL_AtmlStk600_Atmega128rfa1_8Mhz_Gcc.a(halSleep.o)
                0x00004340                halWakeupHandler
 .text.halCalibrateInternalRc
                0x000043aa       0xda ./../../../../../../Atmel_lib/BitCloud_MEGARF_1_14_0/BitCloud/lib/libHAL_AtmlStk600_Atmega128rfa1_8Mhz_Gcc.a(calibration.o)
                0x000043aa                halCalibrateInternalRc
 .text.HAL_CalibrateMainClock
                0x00004484        0xe ./../../../../../../Atmel_lib/BitCloud_MEGARF_1_14_0/BitCloud/lib/libHAL_AtmlStk600_Atmega128rfa1_8Mhz_Gcc.a(calibration.o)
                0x00004484                HAL_CalibrateMainClock
 .text.halStartingCalibrate
                0x00004492       0x1c ./../../../../../../Atmel_lib/BitCloud_MEGARF_1_14_0/BitCloud/lib/libHAL_AtmlStk600_Atmega128rfa1_8Mhz_Gcc.a(calibration.o)
                0x00004492                halStartingCalibrate
 .text.HAL_TaskHandler
                0x000044ae      0x1b2 ./../../../../../../Atmel_lib/BitCloud_MEGARF_1_14_0/BitCloud/lib/libHAL_AtmlStk600_Atmega128rfa1_8Mhz_Gcc.a(halTaskManager.o)
                0x000044ae                HAL_TaskHandler
 .text.halI2cBusReset
                0x00004660       0x36 ./../../../../../../Atmel_lib/BitCloud_MEGARF_1_14_0/BitCloud/lib/libHAL_AtmlStk600_Atmega128rfa1_8Mhz_Gcc.a(i2cPacket.o)
                0x00004660                halI2cBusReset
 .text.halSendStartDoneI2c
                0x00004696       0x3e ./../../../../../../Atmel_lib/BitCloud_MEGARF_1_14_0/BitCloud/lib/libHAL_AtmlStk600_Atmega128rfa1_8Mhz_Gcc.a(i2cPacket.o)
                0x00004696                halSendStartDoneI2c
 .text.halWriteData
                0x000046d4       0x64 ./../../../../../../Atmel_lib/BitCloud_MEGARF_1_14_0/BitCloud/lib/libHAL_AtmlStk600_Atmega128rfa1_8Mhz_Gcc.a(i2cPacket.o)
                0x000046d4                halWriteData
 .text.halWriteInternalAddress
                0x00004738       0x5c ./../../../../../../Atmel_lib/BitCloud_MEGARF_1_14_0/BitCloud/lib/libHAL_AtmlStk600_Atmega128rfa1_8Mhz_Gcc.a(i2cPacket.o)
                0x00004738                halWriteInternalAddress
 .text.halWriteDoneI2c
                0x00004794       0x3a ./../../../../../../Atmel_lib/BitCloud_MEGARF_1_14_0/BitCloud/lib/libHAL_AtmlStk600_Atmega128rfa1_8Mhz_Gcc.a(i2cPacket.o)
                0x00004794                halWriteDoneI2c
 .text.halMasterReadWriteAddressAckI2c
                0x000047ce       0x3c ./../../../../../../Atmel_lib/BitCloud_MEGARF_1_14_0/BitCloud/lib/libHAL_AtmlStk600_Atmega128rfa1_8Mhz_Gcc.a(i2cPacket.o)
                0x000047ce                halMasterReadWriteAddressAckI2c
 .text.halReadDoneI2c
                0x0000480a       0x58 ./../../../../../../Atmel_lib/BitCloud_MEGARF_1_14_0/BitCloud/lib/libHAL_AtmlStk600_Atmega128rfa1_8Mhz_Gcc.a(i2cPacket.o)
                0x0000480a                halReadDoneI2c
 .text.halReadLastByteDoneI2c
                0x00004862       0x58 ./../../../../../../Atmel_lib/BitCloud_MEGARF_1_14_0/BitCloud/lib/libHAL_AtmlStk600_Atmega128rfa1_8Mhz_Gcc.a(i2cPacket.o)
                0x00004862                halReadLastByteDoneI2c
 .text.halSig2WireSerialHandler
                0x000048ba       0x46 ./../../../../../../Atmel_lib/BitCloud_MEGARF_1_14_0/BitCloud/lib/libHAL_AtmlStk600_Atmega128rfa1_8Mhz_Gcc.a(i2cPacket.o)
                0x000048ba                halSig2WireSerialHandler
 .text.halSigAdcHandler
                0x00004900       0x16 ./../../../../../../Atmel_lib/BitCloud_MEGARF_1_14_0/BitCloud/lib/libHAL_AtmlStk600_Atmega128rfa1_8Mhz_Gcc.a(adc.o)
                0x00004900                halSigAdcHandler
 .text.halClearRealSpi
                0x00004916        0x8 ./../../../../../../Atmel_lib/BitCloud_MEGARF_1_14_0/BitCloud/lib/libHAL_AtmlStk600_Atmega128rfa1_8Mhz_Gcc.a(spi.o)
 .text.halSpiTxByteComplete
                0x0000491e       0x32 ./../../../../../../Atmel_lib/BitCloud_MEGARF_1_14_0/BitCloud/lib/libHAL_AtmlStk600_Atmega128rfa1_8Mhz_Gcc.a(spi.o)
                0x0000491e                halSpiTxByteComplete
 .text.halSpiRxBufferFiller
                0x00004950       0x58 ./../../../../../../Atmel_lib/BitCloud_MEGARF_1_14_0/BitCloud/lib/libHAL_AtmlStk600_Atmega128rfa1_8Mhz_Gcc.a(spi.o)
                0x00004950                halSpiRxBufferFiller
 .text.halSpiRxByteComplete
                0x000049a8       0x24 ./../../../../../../Atmel_lib/BitCloud_MEGARF_1_14_0/BitCloud/lib/libHAL_AtmlStk600_Atmega128rfa1_8Mhz_Gcc.a(spi.o)
                0x000049a8                halSpiRxByteComplete
 .text.HAL_StartSystemSleep
                0x000049cc       0x7a ./../../../../../../Atmel_lib/BitCloud_MEGARF_1_14_0/BitCloud/lib/libHAL_AtmlStk600_Atmega128rfa1_8Mhz_Gcc.a(sleep.o)
                0x000049cc                HAL_StartSystemSleep
 .text.halSmRequestHandler
                0x00004a46      0x15c ./../../../../../../Atmel_lib/BitCloud_MEGARF_1_14_0/BitCloud/lib/libHAL_AtmlStk600_Atmega128rfa1_8Mhz_Gcc.a(halSecurityModule.o)
                0x00004a46                halSmRequestHandler
 .text.halInitFreq
                0x00004ba2       0x6c ./../../../../../../Atmel_lib/BitCloud_MEGARF_1_14_0/BitCloud/lib/libHAL_AtmlStk600_Atmega128rfa1_8Mhz_Gcc.a(halClkCtrl.o)
                0x00004ba2                halInitFreq
 .text.halGetClockSource
                0x00004c0e        0x6 ./../../../../../../Atmel_lib/BitCloud_MEGARF_1_14_0/BitCloud/lib/libHAL_AtmlStk600_Atmega128rfa1_8Mhz_Gcc.a(halClkCtrl.o)
                0x00004c0e                halGetClockSource
 .text.__vector_39
                0x00004c14       0xda ./../../../../../../Atmel_lib/BitCloud_MEGARF_1_14_0/BitCloud/lib/libHAL_AtmlStk600_Atmega128rfa1_8Mhz_Gcc.a(halTwi.o)
                0x00004c14                __vector_39
 .text.__vector_29
                0x00004cee       0xcc ./../../../../../../Atmel_lib/BitCloud_MEGARF_1_14_0/BitCloud/lib/libHAL_AtmlStk600_Atmega128rfa1_8Mhz_Gcc.a(halAdc.o)
                0x00004cee                __vector_29
 .text.__vector_24
                0x00004dba       0x8c ./../../../../../../Atmel_lib/BitCloud_MEGARF_1_14_0/BitCloud/lib/libHAL_AtmlStk600_Atmega128rfa1_8Mhz_Gcc.a(halSpi.o)
                0x00004dba                __vector_24
 .text.HAL_StartSleepTimer
                0x00004e46       0x72 ./../../../../../../Atmel_lib/BitCloud_MEGARF_1_14_0/BitCloud/lib/libHAL_AtmlStk600_Atmega128rfa1_8Mhz_Gcc.a(sleepTimer.o)
                0x00004e46                HAL_StartSleepTimer
 .text.halAsyncTimerHandler
                0x00004eb8       0x52 ./../../../../../../Atmel_lib/BitCloud_MEGARF_1_14_0/BitCloud/lib/libHAL_AtmlStk600_Atmega128rfa1_8Mhz_Gcc.a(sleepTimer.o)
                0x00004eb8                halAsyncTimerHandler
 .text.apsGetApsCounter
                0x00004f0a        0xe ./../../../../../../Atmel_lib/BitCloud_MEGARF_1_14_0/BitCloud/lib/libBc_Coordinator_Atmega128rfa1_Atmega128rfa1_Gcc.a(aps.o)
 .text.apsPrepareFragmentedTransmission
                0x00004f18       0x70 ./../../../../../../Atmel_lib/BitCloud_MEGARF_1_14_0/BitCloud/lib/libBc_Coordinator_Atmega128rfa1_Atmega128rfa1_Gcc.a(aps.o)
 .text.apsIsFragmentationDataReq
                0x00004f88       0x22 ./../../../../../../Atmel_lib/BitCloud_MEGARF_1_14_0/BitCloud/lib/libBc_Coordinator_Atmega128rfa1_Atmega128rfa1_Gcc.a(aps.o)
 .text.apsGetBuffer
                0x00004faa       0xd6 ./../../../../../../Atmel_lib/BitCloud_MEGARF_1_14_0/BitCloud/lib/libBc_Coordinator_Atmega128rfa1_Atmega128rfa1_Gcc.a(aps.o)
 .text.apsFreeBuffer
                0x00005080       0x8e ./../../../../../../Atmel_lib/BitCloud_MEGARF_1_14_0/BitCloud/lib/libBc_Coordinator_Atmega128rfa1_Atmega128rfa1_Gcc.a(aps.o)
 .text.apsPostTask
                0x0000510e       0x32 ./../../../../../../Atmel_lib/BitCloud_MEGARF_1_14_0/BitCloud/lib/libBc_Coordinator_Atmega128rfa1_Atmega128rfa1_Gcc.a(aps.o)
 .text.apsMakeApsDataConf
                0x00005140       0x5a ./../../../../../../Atmel_lib/BitCloud_MEGARF_1_14_0/BitCloud/lib/libBc_Coordinator_Atmega128rfa1_Atmega128rfa1_Gcc.a(aps.o)
 .text.apsAckForFragmentedReceiveConfirmHandler
                0x0000519a       0x9e ./../../../../../../Atmel_lib/BitCloud_MEGARF_1_14_0/BitCloud/lib/libBc_Coordinator_Atmega128rfa1_Atmega128rfa1_Gcc.a(aps.o)
 .text.apsStopConf
                0x00005238       0x4a ./../../../../../../Atmel_lib/BitCloud_MEGARF_1_14_0/BitCloud/lib/libBc_Coordinator_Atmega128rfa1_Atmega128rfa1_Gcc.a(aps.o)
 .text.apsSendNwkDataReq
                0x00005282       0x10 ./../../../../../../Atmel_lib/BitCloud_MEGARF_1_14_0/BitCloud/lib/libBc_Coordinator_Atmega128rfa1_Atmega128rfa1_Gcc.a(aps.o)
 .text.apsProcessShortAddrModeDataReq
                0x00005292      0x296 ./../../../../../../Atmel_lib/BitCloud_MEGARF_1_14_0/BitCloud/lib/libBc_Coordinator_Atmega128rfa1_Atmega128rfa1_Gcc.a(aps.o)
 .text.apsSendNextBlock
                0x00005528       0x14 ./../../../../../../Atmel_lib/BitCloud_MEGARF_1_14_0/BitCloud/lib/libBc_Coordinator_Atmega128rfa1_Atmega128rfa1_Gcc.a(aps.o)
 .text.apsSendAckForFragmentedReceive
                0x0000553c       0xce ./../../../../../../Atmel_lib/BitCloud_MEGARF_1_14_0/BitCloud/lib/libBc_Coordinator_Atmega128rfa1_Atmega128rfa1_Gcc.a(aps.o)
 .text.apsDataManagerNwkDataConf
                0x0000560a       0x1c ./../../../../../../Atmel_lib/BitCloud_MEGARF_1_14_0/BitCloud/lib/libBc_Coordinator_Atmega128rfa1_Atmega128rfa1_Gcc.a(aps.o)
 .text.apsProcessEvent
                0x00005626       0x26 ./../../../../../../Atmel_lib/BitCloud_MEGARF_1_14_0/BitCloud/lib/libBc_Coordinator_Atmega128rfa1_Atmega128rfa1_Gcc.a(aps.o)
 .text.apsProcessGroupAddrModeDataReq
                0x0000564c      0x190 ./../../../../../../Atmel_lib/BitCloud_MEGARF_1_14_0/BitCloud/lib/libBc_Coordinator_Atmega128rfa1_Atmega128rfa1_Gcc.a(aps.o)
 .text.apsCalculateApsAckTimeout
                0x000057dc       0x56 ./../../../../../../Atmel_lib/BitCloud_MEGARF_1_14_0/BitCloud/lib/libBc_Coordinator_Atmega128rfa1_Atmega128rfa1_Gcc.a(aps.o)
 .text.apsGroupNwkDataConf
                0x00005832       0x4a ./../../../../../../Atmel_lib/BitCloud_MEGARF_1_14_0/BitCloud/lib/libBc_Coordinator_Atmega128rfa1_Atmega128rfa1_Gcc.a(aps.o)
 .text.apsNextBind
                0x0000587c       0xb0 ./../../../../../../Atmel_lib/BitCloud_MEGARF_1_14_0/BitCloud/lib/libBc_Coordinator_Atmega128rfa1_Atmega128rfa1_Gcc.a(aps.o)
 .text.apsSendToNextBoundDevice
                0x0000592c       0x9c ./../../../../../../Atmel_lib/BitCloud_MEGARF_1_14_0/BitCloud/lib/libBc_Coordinator_Atmega128rfa1_Atmega128rfa1_Gcc.a(aps.o)
 .text.apsProcessIndirectDataReq
                0x000059c8       0x2c ./../../../../../../Atmel_lib/BitCloud_MEGARF_1_14_0/BitCloud/lib/libBc_Coordinator_Atmega128rfa1_Atmega128rfa1_Gcc.a(aps.o)
 .text.apsFindBindingEntry
                0x000059f4       0xc6 ./../../../../../../Atmel_lib/BitCloud_MEGARF_1_14_0/BitCloud/lib/libBc_Coordinator_Atmega128rfa1_Atmega128rfa1_Gcc.a(aps.o)
 .text.SYS_GetRandomNumber
                0x00005aba       0x2a ./../../../../../../Atmel_lib/BitCloud_MEGARF_1_14_0/BitCloud/lib/libBc_Coordinator_Atmega128rfa1_Atmega128rfa1_Gcc.a(aps.o)
 .text.apsResetMemoryManager
                0x00005ae4       0xfa ./../../../../../../Atmel_lib/BitCloud_MEGARF_1_14_0/BitCloud/lib/libBc_Coordinator_Atmega128rfa1_Atmega128rfa1_Gcc.a(aps.o)
 .text.apsAckOnTimerFired
                0x00005bde       0xf8 ./../../../../../../Atmel_lib/BitCloud_MEGARF_1_14_0/BitCloud/lib/libBc_Coordinator_Atmega128rfa1_Atmega128rfa1_Gcc.a(aps.o)
 .text.apsHandleTransmittedData.clone.10
                0x00005cd6       0x6e ./../../../../../../Atmel_lib/BitCloud_MEGARF_1_14_0/BitCloud/lib/libBc_Coordinator_Atmega128rfa1_Atmega128rfa1_Gcc.a(aps.o)
 .text.APS_BindReq
                0x00005d44       0xa6 ./../../../../../../Atmel_lib/BitCloud_MEGARF_1_14_0/BitCloud/lib/libBc_Coordinator_Atmega128rfa1_Atmega128rfa1_Gcc.a(aps.o)
                0x00005d44                APS_BindReq
 .text.APS_UnbindReq
                0x00005dea       0x4a ./../../../../../../Atmel_lib/BitCloud_MEGARF_1_14_0/BitCloud/lib/libBc_Coordinator_Atmega128rfa1_Atmega128rfa1_Gcc.a(aps.o)
                0x00005dea                APS_UnbindReq
 .text.APS_DataReq
                0x00005e34       0x12 ./../../../../../../Atmel_lib/BitCloud_MEGARF_1_14_0/BitCloud/lib/libBc_Coordinator_Atmega128rfa1_Atmega128rfa1_Gcc.a(aps.o)
                0x00005e34                APS_DataReq
 .text.NWK_DataInd
                0x00005e46       0x12 ./../../../../../../Atmel_lib/BitCloud_MEGARF_1_14_0/BitCloud/lib/libBc_Coordinator_Atmega128rfa1_Atmega128rfa1_Gcc.a(aps.o)
                0x00005e46                NWK_DataInd
 .text.APS_CalculateTimes
                0x00005e58      0x1b2 ./../../../../../../Atmel_lib/BitCloud_MEGARF_1_14_0/BitCloud/lib/libBc_Coordinator_Atmega128rfa1_Atmega128rfa1_Gcc.a(aps.o)
                0x00005e58                APS_CalculateTimes
 .text.apsResetDataManager
                0x0000600a      0x110 ./../../../../../../Atmel_lib/BitCloud_MEGARF_1_14_0/BitCloud/lib/libBc_Coordinator_Atmega128rfa1_Atmega128rfa1_Gcc.a(aps.o)
 .text.apsNwkResetConf
                0x0000611a      0x196 ./../../../../../../Atmel_lib/BitCloud_MEGARF_1_14_0/BitCloud/lib/libBc_Coordinator_Atmega128rfa1_Atmega128rfa1_Gcc.a(aps.o)
 .text.apsStateMachineTaskHandler
                0x000062b0       0xee ./../../../../../../Atmel_lib/BitCloud_MEGARF_1_14_0/BitCloud/lib/libBc_Coordinator_Atmega128rfa1_Atmega128rfa1_Gcc.a(aps.o)
 .text.APS_IsProfileIdMatched
                0x0000639e       0x22 ./../../../../../../Atmel_lib/BitCloud_MEGARF_1_14_0/BitCloud/lib/libBc_Coordinator_Atmega128rfa1_Atmega128rfa1_Gcc.a(aps.o)
                0x0000639e                APS_IsProfileIdMatched
 .text.APS_NextEndpoint
                0x000063c0       0x16 ./../../../../../../Atmel_lib/BitCloud_MEGARF_1_14_0/BitCloud/lib/libBc_Coordinator_Atmega128rfa1_Atmega128rfa1_Gcc.a(aps.o)
                0x000063c0                APS_NextEndpoint
 .text.apsFindEndpoint
                0x000063d6       0x26 ./../../../../../../Atmel_lib/BitCloud_MEGARF_1_14_0/BitCloud/lib/libBc_Coordinator_Atmega128rfa1_Atmega128rfa1_Gcc.a(aps.o)
 .text.APS_RegisterEndpointReq
                0x000063fc       0x48 ./../../../../../../Atmel_lib/BitCloud_MEGARF_1_14_0/BitCloud/lib/libBc_Coordinator_Atmega128rfa1_Atmega128rfa1_Gcc.a(aps.o)
                0x000063fc                APS_RegisterEndpointReq
 .text.apsGroupIndication
                0x00006444       0x8a ./../../../../../../Atmel_lib/BitCloud_MEGARF_1_14_0/BitCloud/lib/libBc_Coordinator_Atmega128rfa1_Atmega128rfa1_Gcc.a(aps.o)
 .text.apsUnicastDataInd
                0x000064ce      0x2a2 ./../../../../../../Atmel_lib/BitCloud_MEGARF_1_14_0/BitCloud/lib/libBc_Coordinator_Atmega128rfa1_Atmega128rfa1_Gcc.a(aps.o)
 .text.apsApduUnicastHandler.clone.8
                0x00006770      0x5dc ./../../../../../../Atmel_lib/BitCloud_MEGARF_1_14_0/BitCloud/lib/libBc_Coordinator_Atmega128rfa1_Atmega128rfa1_Gcc.a(aps.o)
 .text.apsDataTaskHandler
                0x00006d4c      0xb20 ./../../../../../../Atmel_lib/BitCloud_MEGARF_1_14_0/BitCloud/lib/libBc_Coordinator_Atmega128rfa1_Atmega128rfa1_Gcc.a(aps.o)
 .text.APS_Init
                0x0000786c       0x2e ./../../../../../../Atmel_lib/BitCloud_MEGARF_1_14_0/BitCloud/lib/libBc_Coordinator_Atmega128rfa1_Atmega128rfa1_Gcc.a(aps.o)
                0x0000786c                APS_Init
 .text.APS_ResetReq
                0x0000789a        0xc ./../../../../../../Atmel_lib/BitCloud_MEGARF_1_14_0/BitCloud/lib/libBc_Coordinator_Atmega128rfa1_Atmega128rfa1_Gcc.a(aps.o)
                0x0000789a                APS_ResetReq
 .text.APS_StartReq
                0x000078a6        0xc ./../../../../../../Atmel_lib/BitCloud_MEGARF_1_14_0/BitCloud/lib/libBc_Coordinator_Atmega128rfa1_Atmega128rfa1_Gcc.a(aps.o)
                0x000078a6                APS_StartReq
 .text.APS_StopReq
                0x000078b2        0xc ./../../../../../../Atmel_lib/BitCloud_MEGARF_1_14_0/BitCloud/lib/libBc_Coordinator_Atmega128rfa1_Atmega128rfa1_Gcc.a(aps.o)
                0x000078b2                APS_StopReq
 .text.APS_IsActiveTransaction
                0x000078be       0x54 ./../../../../../../Atmel_lib/BitCloud_MEGARF_1_14_0/BitCloud/lib/libBc_Coordinator_Atmega128rfa1_Atmega128rfa1_Gcc.a(aps.o)
                0x000078be                APS_IsActiveTransaction
 .text.APS_TaskHandler
                0x00007912       0x9c ./../../../../../../Atmel_lib/BitCloud_MEGARF_1_14_0/BitCloud/lib/libBc_Coordinator_Atmega128rfa1_Atmega128rfa1_Gcc.a(aps.o)
                0x00007912                APS_TaskHandler
 .text.getSymbolsPerOctet
                0x000079ae       0x3c ./../../../../../../Atmel_lib/BitCloud_MEGARF_1_14_0/BitCloud/lib/libBc_Coordinator_Atmega128rfa1_Atmega128rfa1_Gcc.a(macenvPib.o)
 .text.calculateMaxFrameDuration
                0x000079ea       0x22 ./../../../../../../Atmel_lib/BitCloud_MEGARF_1_14_0/BitCloud/lib/libBc_Coordinator_Atmega128rfa1_Atmega128rfa1_Gcc.a(macenvPib.o)
 .text.storeTransmitPower
                0x00007a0c       0x44 ./../../../../../../Atmel_lib/BitCloud_MEGARF_1_14_0/BitCloud/lib/libBc_Coordinator_Atmega128rfa1_Atmega128rfa1_Gcc.a(macenvPib.o)
 .text.SYS_GetRandomNumber
                0x00007a50       0x2a ./../../../../../../Atmel_lib/BitCloud_MEGARF_1_14_0/BitCloud/lib/libBc_Coordinator_Atmega128rfa1_Atmega128rfa1_Gcc.a(macenvPib.o)
 .text.macenvGetPhySymbolDuration
                0x00007a7a       0x4a ./../../../../../../Atmel_lib/BitCloud_MEGARF_1_14_0/BitCloud/lib/libBc_Coordinator_Atmega128rfa1_Atmega128rfa1_Gcc.a(macenvPib.o)
                0x00007a7a                macenvGetPhySymbolDuration
 .text.updateMaxFrameTxTime
                0x00007ac4       0x3a ./../../../../../../Atmel_lib/BitCloud_MEGARF_1_14_0/BitCloud/lib/libBc_Coordinator_Atmega128rfa1_Atmega128rfa1_Gcc.a(macenvPib.o)
 .text.macenvResetPib
                0x00007afe       0xfa ./../../../../../../Atmel_lib/BitCloud_MEGARF_1_14_0/BitCloud/lib/libBc_Coordinator_Atmega128rfa1_Atmega128rfa1_Gcc.a(macenvPib.o)
                0x00007afe                macenvResetPib
 .text.macenvConvertTransPersistTimeFromUnitsToMs
                0x00007bf8       0x48 ./../../../../../../Atmel_lib/BitCloud_MEGARF_1_14_0/BitCloud/lib/libBc_Coordinator_Atmega128rfa1_Atmega128rfa1_Gcc.a(macenvPib.o)
                0x00007bf8                macenvConvertTransPersistTimeFromUnitsToMs
 .text.macenvSetPibAttr
                0x00007c40      0x2a0 ./../../../../../../Atmel_lib/BitCloud_MEGARF_1_14_0/BitCloud/lib/libBc_Coordinator_Atmega128rfa1_Atmega128rfa1_Gcc.a(macenvPib.o)
                0x00007c40                macenvSetPibAttr
 .text.macenvCalculateMaxFrameTotalWaitTimeInMs
                0x00007ee0      0x128 ./../../../../../../Atmel_lib/BitCloud_MEGARF_1_14_0/BitCloud/lib/libBc_Coordinator_Atmega128rfa1_Atmega128rfa1_Gcc.a(macenvPib.o)
                0x00007ee0                macenvCalculateMaxFrameTotalWaitTimeInMs
 .text.macenvCalculateResponceWaitTimeInMs
                0x00008008       0x42 ./../../../../../../Atmel_lib/BitCloud_MEGARF_1_14_0/BitCloud/lib/libBc_Coordinator_Atmega128rfa1_Atmega128rfa1_Gcc.a(macenvPib.o)
                0x00008008                macenvCalculateResponceWaitTimeInMs
 .text.macenvGetPibAttr
                0x0000804a      0x216 ./../../../../../../Atmel_lib/BitCloud_MEGARF_1_14_0/BitCloud/lib/libBc_Coordinator_Atmega128rfa1_Atmega128rfa1_Gcc.a(macenvPib.o)
                0x0000804a                macenvGetPibAttr
 .text.MAC_GetExtAddr
                0x00008260        0x6 ./../../../../../../Atmel_lib/BitCloud_MEGARF_1_14_0/BitCloud/lib/libBc_Coordinator_Atmega128rfa1_Atmega128rfa1_Gcc.a(macenvPib.o)
                0x00008260                MAC_GetExtAddr
 .text.MAC_SetExtAddr
                0x00008266       0x34 ./../../../../../../Atmel_lib/BitCloud_MEGARF_1_14_0/BitCloud/lib/libBc_Coordinator_Atmega128rfa1_Atmega128rfa1_Gcc.a(macenvPib.o)
                0x00008266                MAC_SetExtAddr
 .text.MAC_IsOwnExtAddr
                0x0000829a       0x1c ./../../../../../../Atmel_lib/BitCloud_MEGARF_1_14_0/BitCloud/lib/libBc_Coordinator_Atmega128rfa1_Atmega128rfa1_Gcc.a(macenvPib.o)
                0x0000829a                MAC_IsOwnExtAddr
 .text.MAC_GetOctetsTransmissionTimeInMs
                0x000082b6       0x5e ./../../../../../../Atmel_lib/BitCloud_MEGARF_1_14_0/BitCloud/lib/libBc_Coordinator_Atmega128rfa1_Atmega128rfa1_Gcc.a(macenvPib.o)
                0x000082b6                MAC_GetOctetsTransmissionTimeInMs
 .text.nwkBroadcastForMe
                0x00008314       0x60 ./../../../../../../Atmel_lib/BitCloud_MEGARF_1_14_0/BitCloud/lib/libBc_Coordinator_Atmega128rfa1_Atmega128rfa1_Gcc.a(nwk.o)
 .text.nwkAddressConflictIsIdle
                0x00008374        0xe ./../../../../../../Atmel_lib/BitCloud_MEGARF_1_14_0/BitCloud/lib/libBc_Coordinator_Atmega128rfa1_Atmega128rfa1_Gcc.a(nwk.o)
 .text.nwkFindAddressMapEntryByShortAddr
                0x00008382       0x30 ./../../../../../../Atmel_lib/BitCloud_MEGARF_1_14_0/BitCloud/lib/libBc_Coordinator_Atmega128rfa1_Atmega128rfa1_Gcc.a(nwk.o)
 .text.nwkDataReqIsIdle
                0x000083b2        0xe ./../../../../../../Atmel_lib/BitCloud_MEGARF_1_14_0/BitCloud/lib/libBc_Coordinator_Atmega128rfa1_Atmega128rfa1_Gcc.a(nwk.o)
 .text.nwkDiscoveryIsIdle
                0x000083c0        0xe ./../../../../../../Atmel_lib/BitCloud_MEGARF_1_14_0/BitCloud/lib/libBc_Coordinator_Atmega128rfa1_Atmega128rfa1_Gcc.a(nwk.o)
 .text.nwkEDScanIsIdle
                0x000083ce        0xe ./../../../../../../Atmel_lib/BitCloud_MEGARF_1_14_0/BitCloud/lib/libBc_Coordinator_Atmega128rfa1_Atmega128rfa1_Gcc.a(nwk.o)
 .text.nwkFormationIsIdle
                0x000083dc        0xe ./../../../../../../Atmel_lib/BitCloud_MEGARF_1_14_0/BitCloud/lib/libBc_Coordinator_Atmega128rfa1_Atmega128rfa1_Gcc.a(nwk.o)
 .text.nwkJoinIndIsIdle
                0x000083ea       0x30 ./../../../../../../Atmel_lib/BitCloud_MEGARF_1_14_0/BitCloud/lib/libBc_Coordinator_Atmega128rfa1_Atmega128rfa1_Gcc.a(nwk.o)
 .text.nwkLeaveReqIsIdle
                0x0000841a        0xe ./../../../../../../Atmel_lib/BitCloud_MEGARF_1_14_0/BitCloud/lib/libBc_Coordinator_Atmega128rfa1_Atmega128rfa1_Gcc.a(nwk.o)
 .text.nwkLinkStatusIsIdle
                0x00008428        0xe ./../../../../../../Atmel_lib/BitCloud_MEGARF_1_14_0/BitCloud/lib/libBc_Coordinator_Atmega128rfa1_Atmega128rfa1_Gcc.a(nwk.o)
 .text.nwkLoopbackIsIdle
                0x00008436        0xe ./../../../../../../Atmel_lib/BitCloud_MEGARF_1_14_0/BitCloud/lib/libBc_Coordinator_Atmega128rfa1_Atmega128rfa1_Gcc.a(nwk.o)
 .text.nwkGetOutgoingCost
                0x00008444       0x44 ./../../../../../../Atmel_lib/BitCloud_MEGARF_1_14_0/BitCloud/lib/libBc_Coordinator_Atmega128rfa1_Atmega128rfa1_Gcc.a(nwk.o)
 .text.nwkGetEdCapacity
                0x00008488       0x1c ./../../../../../../Atmel_lib/BitCloud_MEGARF_1_14_0/BitCloud/lib/libBc_Coordinator_Atmega128rfa1_Atmega128rfa1_Gcc.a(nwk.o)
 .text.nwkGetRouterCapacity
                0x000084a4       0x1c ./../../../../../../Atmel_lib/BitCloud_MEGARF_1_14_0/BitCloud/lib/libBc_Coordinator_Atmega128rfa1_Atmega128rfa1_Gcc.a(nwk.o)
 .text.nwkIsJoiningForbidden
                0x000084c0       0x3e ./../../../../../../Atmel_lib/BitCloud_MEGARF_1_14_0/BitCloud/lib/libBc_Coordinator_Atmega128rfa1_Atmega128rfa1_Gcc.a(nwk.o)
 .text.nwkUpdateCapacityBits
                0x000084fe       0x56 ./../../../../../../Atmel_lib/BitCloud_MEGARF_1_14_0/BitCloud/lib/libBc_Coordinator_Atmega128rfa1_Atmega128rfa1_Gcc.a(nwk.o)
 .text.nwkUpdateCapacityBitsInBeacon
                0x00008554       0x3c ./../../../../../../Atmel_lib/BitCloud_MEGARF_1_14_0/BitCloud/lib/libBc_Coordinator_Atmega128rfa1_Atmega128rfa1_Gcc.a(nwk.o)
 .text.nwkUpdateBeaconPayload
                0x00008590       0x94 ./../../../../../../Atmel_lib/BitCloud_MEGARF_1_14_0/BitCloud/lib/libBc_Coordinator_Atmega128rfa1_Atmega128rfa1_Gcc.a(nwk.o)
 .text.nwkFreeNeighbor
                0x00008624       0x26 ./../../../../../../Atmel_lib/BitCloud_MEGARF_1_14_0/BitCloud/lib/libBc_Coordinator_Atmega128rfa1_Atmega128rfa1_Gcc.a(nwk.o)
 .text.nwkCostFromLqi
                0x0000864a       0x3a ./../../../../../../Atmel_lib/BitCloud_MEGARF_1_14_0/BitCloud/lib/libBc_Coordinator_Atmega128rfa1_Atmega128rfa1_Gcc.a(nwk.o)
 .text.nwkInitLqiAndCostOfNeighbor
                0x00008684       0x70 ./../../../../../../Atmel_lib/BitCloud_MEGARF_1_14_0/BitCloud/lib/libBc_Coordinator_Atmega128rfa1_Atmega128rfa1_Gcc.a(nwk.o)
 .text.nwkUpdateLqiAndCostOfNeighbor
                0x000086f4       0x88 ./../../../../../../Atmel_lib/BitCloud_MEGARF_1_14_0/BitCloud/lib/libBc_Coordinator_Atmega128rfa1_Atmega128rfa1_Gcc.a(nwk.o)
 .text.nwkFindPassiveAck
                0x0000877c       0x2a ./../../../../../../Atmel_lib/BitCloud_MEGARF_1_14_0/BitCloud/lib/libBc_Coordinator_Atmega128rfa1_Atmega128rfa1_Gcc.a(nwk.o)
 .text.nwkNewPassiveAck
                0x000087a6       0xfa ./../../../../../../Atmel_lib/BitCloud_MEGARF_1_14_0/BitCloud/lib/libBc_Coordinator_Atmega128rfa1_Atmega128rfa1_Gcc.a(nwk.o)
 .text.nwkFreePassiveAck
                0x000088a0       0x2e ./../../../../../../Atmel_lib/BitCloud_MEGARF_1_14_0/BitCloud/lib/libBc_Coordinator_Atmega128rfa1_Atmega128rfa1_Gcc.a(nwk.o)
 .text.nwkPermitJoiningIsIdle
                0x000088ce       0x1c ./../../../../../../Atmel_lib/BitCloud_MEGARF_1_14_0/BitCloud/lib/libBc_Coordinator_Atmega128rfa1_Atmega128rfa1_Gcc.a(nwk.o)
 .text.nwkResetIsIdle
                0x000088ea        0xe ./../../../../../../Atmel_lib/BitCloud_MEGARF_1_14_0/BitCloud/lib/libBc_Coordinator_Atmega128rfa1_Atmega128rfa1_Gcc.a(nwk.o)
 .text.nwkRouteDiscoveryIsIdle
                0x000088f8       0x14 ./../../../../../../Atmel_lib/BitCloud_MEGARF_1_14_0/BitCloud/lib/libBc_Coordinator_Atmega128rfa1_Atmega128rfa1_Gcc.a(nwk.o)
 .text.nwkFindRouteDiscoveryEntry
                0x0000890c       0x36 ./../../../../../../Atmel_lib/BitCloud_MEGARF_1_14_0/BitCloud/lib/libBc_Coordinator_Atmega128rfa1_Atmega128rfa1_Gcc.a(nwk.o)
 .text.nwkFreeRouteDiscoveryEntry
                0x00008942       0x3a ./../../../../../../Atmel_lib/BitCloud_MEGARF_1_14_0/BitCloud/lib/libBc_Coordinator_Atmega128rfa1_Atmega128rfa1_Gcc.a(nwk.o)
 .text.nwkConfirmRouteRequestTx
                0x0000897c       0x60 ./../../../../../../Atmel_lib/BitCloud_MEGARF_1_14_0/BitCloud/lib/libBc_Coordinator_Atmega128rfa1_Atmega128rfa1_Gcc.a(nwk.o)
 .text.nwkRouteDiscoveryTableIsIdle
                0x000089dc        0xc ./../../../../../../Atmel_lib/BitCloud_MEGARF_1_14_0/BitCloud/lib/libBc_Coordinator_Atmega128rfa1_Atmega128rfa1_Gcc.a(nwk.o)
 .text.nwkFindRoutingEntry
                0x000089e8       0x40 ./../../../../../../Atmel_lib/BitCloud_MEGARF_1_14_0/BitCloud/lib/libBc_Coordinator_Atmega128rfa1_Atmega128rfa1_Gcc.a(nwk.o)
 .text.nwkFreeRoutingEntry
                0x00008a28       0x12 ./../../../../../../Atmel_lib/BitCloud_MEGARF_1_14_0/BitCloud/lib/libBc_Coordinator_Atmega128rfa1_Atmega128rfa1_Gcc.a(nwk.o)
 .text.nwkDeleteRoute
                0x00008a3a       0x48 ./../../../../../../Atmel_lib/BitCloud_MEGARF_1_14_0/BitCloud/lib/libBc_Coordinator_Atmega128rfa1_Atmega128rfa1_Gcc.a(nwk.o)
 .text.nwkUpdateNextHop
                0x00008a82       0xc8 ./../../../../../../Atmel_lib/BitCloud_MEGARF_1_14_0/BitCloud/lib/libBc_Coordinator_Atmega128rfa1_Atmega128rfa1_Gcc.a(nwk.o)
 .text.nwkParseRxHeader
                0x00008b4a       0xb0 ./../../../../../../Atmel_lib/BitCloud_MEGARF_1_14_0/BitCloud/lib/libBc_Coordinator_Atmega128rfa1_Atmega128rfa1_Gcc.a(nwk.o)
 .text.nwkSendRouteErrorConf
                0x00008bfa        0x6 ./../../../../../../Atmel_lib/BitCloud_MEGARF_1_14_0/BitCloud/lib/libBc_Coordinator_Atmega128rfa1_Atmega128rfa1_Gcc.a(nwk.o)
 .text.nwkPostTask
                0x00008c00       0x58 ./../../../../../../Atmel_lib/BitCloud_MEGARF_1_14_0/BitCloud/lib/libBc_Coordinator_Atmega128rfa1_Atmega128rfa1_Gcc.a(nwk.o)
 .text.nwkEDScanMacEDScanConf
                0x00008c58       0x3e ./../../../../../../Atmel_lib/BitCloud_MEGARF_1_14_0/BitCloud/lib/libBc_Coordinator_Atmega128rfa1_Atmega128rfa1_Gcc.a(nwk.o)
 .text.nwkFormationMacRxEnableConf
                0x00008c96       0x1c ./../../../../../../Atmel_lib/BitCloud_MEGARF_1_14_0/BitCloud/lib/libBc_Coordinator_Atmega128rfa1_Atmega128rfa1_Gcc.a(nwk.o)
 .text.nwkDiscoveryMacActiveScanConf
                0x00008cb2       0x28 ./../../../../../../Atmel_lib/BitCloud_MEGARF_1_14_0/BitCloud/lib/libBc_Coordinator_Atmega128rfa1_Atmega128rfa1_Gcc.a(nwk.o)
 .text.nwkPermitJoiningMacSetConf
                0x00008cda       0x34 ./../../../../../../Atmel_lib/BitCloud_MEGARF_1_14_0/BitCloud/lib/libBc_Coordinator_Atmega128rfa1_Atmega128rfa1_Gcc.a(nwk.o)
 .text.nwkStatusConf
                0x00008d0e        0xe ./../../../../../../Atmel_lib/BitCloud_MEGARF_1_14_0/BitCloud/lib/libBc_Coordinator_Atmega128rfa1_Atmega128rfa1_Gcc.a(nwk.o)
 .text.nwkResetMacRxEnableConf
                0x00008d1c       0x1c ./../../../../../../Atmel_lib/BitCloud_MEGARF_1_14_0/BitCloud/lib/libBc_Coordinator_Atmega128rfa1_Atmega128rfa1_Gcc.a(nwk.o)
 .text.nwkSendRouteDiscoveryReply
                0x00008d38       0x1e ./../../../../../../Atmel_lib/BitCloud_MEGARF_1_14_0/BitCloud/lib/libBc_Coordinator_Atmega128rfa1_Atmega128rfa1_Gcc.a(nwk.o)
 .text.nwkTxDelayIsIdle
                0x00008d56       0x14 ./../../../../../../Atmel_lib/BitCloud_MEGARF_1_14_0/BitCloud/lib/libBc_Coordinator_Atmega128rfa1_Atmega128rfa1_Gcc.a(nwk.o)
 .text.nwkSetLifeTimeOfNeighbor
                0x00008d6a       0xe8 ./../../../../../../Atmel_lib/BitCloud_MEGARF_1_14_0/BitCloud/lib/libBc_Coordinator_Atmega128rfa1_Atmega128rfa1_Gcc.a(nwk.o)
 .text.nwkUpdateOutgoingCostAndLifeTime
                0x00008e52       0x4a ./../../../../../../Atmel_lib/BitCloud_MEGARF_1_14_0/BitCloud/lib/libBc_Coordinator_Atmega128rfa1_Atmega128rfa1_Gcc.a(nwk.o)
 .text.nwkAllocPacket
                0x00008e9c       0xd2 ./../../../../../../Atmel_lib/BitCloud_MEGARF_1_14_0/BitCloud/lib/libBc_Coordinator_Atmega128rfa1_Atmega128rfa1_Gcc.a(nwk.o)
 .text.nwkAllocInputPacket
                0x00008f6e       0x2c ./../../../../../../Atmel_lib/BitCloud_MEGARF_1_14_0/BitCloud/lib/libBc_Coordinator_Atmega128rfa1_Atmega128rfa1_Gcc.a(nwk.o)
 .text.nwkLoopbackTaskHandler
                0x00008f9a       0xe2 ./../../../../../../Atmel_lib/BitCloud_MEGARF_1_14_0/BitCloud/lib/libBc_Coordinator_Atmega128rfa1_Atmega128rfa1_Gcc.a(nwk.o)
 .text.nwkEDScanTaskHandler
                0x0000907c       0xac ./../../../../../../Atmel_lib/BitCloud_MEGARF_1_14_0/BitCloud/lib/libBc_Coordinator_Atmega128rfa1_Atmega128rfa1_Gcc.a(nwk.o)
 .text.nwkTxReq
                0x00009128       0x12 ./../../../../../../Atmel_lib/BitCloud_MEGARF_1_14_0/BitCloud/lib/libBc_Coordinator_Atmega128rfa1_Atmega128rfa1_Gcc.a(nwk.o)
 .text.nwkDataConf
                0x0000913a       0x4a ./../../../../../../Atmel_lib/BitCloud_MEGARF_1_14_0/BitCloud/lib/libBc_Coordinator_Atmega128rfa1_Atmega128rfa1_Gcc.a(nwk.o)
 .text.nwkConfirmDataTx
                0x00009184       0x3a ./../../../../../../Atmel_lib/BitCloud_MEGARF_1_14_0/BitCloud/lib/libBc_Coordinator_Atmega128rfa1_Atmega128rfa1_Gcc.a(nwk.o)
 .text.findFreeJoinIndObjFor
                0x000091be       0xd6 ./../../../../../../Atmel_lib/BitCloud_MEGARF_1_14_0/BitCloud/lib/libBc_Coordinator_Atmega128rfa1_Atmega128rfa1_Gcc.a(nwk.o)
 .text.nwkFindAddressMapEntryByExtAddr
                0x00009294       0x52 ./../../../../../../Atmel_lib/BitCloud_MEGARF_1_14_0/BitCloud/lib/libBc_Coordinator_Atmega128rfa1_Atmega128rfa1_Gcc.a(nwk.o)
 .text.nwkAddToAddressMap
                0x000092e6       0xc2 ./../../../../../../Atmel_lib/BitCloud_MEGARF_1_14_0/BitCloud/lib/libBc_Coordinator_Atmega128rfa1_Atmega128rfa1_Gcc.a(nwk.o)
 .text.nwkStopLinkStatusTimer
                0x000093a8        0xe ./../../../../../../Atmel_lib/BitCloud_MEGARF_1_14_0/BitCloud/lib/libBc_Coordinator_Atmega128rfa1_Atmega128rfa1_Gcc.a(nwk.o)
 .text.nwkRouteDiscoveryTableTimerFired
                0x000093b6       0x56 ./../../../../../../Atmel_lib/BitCloud_MEGARF_1_14_0/BitCloud/lib/libBc_Coordinator_Atmega128rfa1_Atmega128rfa1_Gcc.a(nwk.o)
 .text.nwkStopAgeTimerOfNeighborTable
                0x0000940c        0xa ./../../../../../../Atmel_lib/BitCloud_MEGARF_1_14_0/BitCloud/lib/libBc_Coordinator_Atmega128rfa1_Atmega128rfa1_Gcc.a(nwk.o)
 .text.SYS_GetRandomNumber
                0x00009416       0x2a ./../../../../../../Atmel_lib/BitCloud_MEGARF_1_14_0/BitCloud/lib/libBc_Coordinator_Atmega128rfa1_Atmega128rfa1_Gcc.a(nwk.o)
 .text.nwkStartLinkStatusTimer
                0x00009440       0x10 ./../../../../../../Atmel_lib/BitCloud_MEGARF_1_14_0/BitCloud/lib/libBc_Coordinator_Atmega128rfa1_Atmega128rfa1_Gcc.a(nwk.o)
 .text.nwkConfirmLinkStatusTx
                0x00009450       0x1e ./../../../../../../Atmel_lib/BitCloud_MEGARF_1_14_0/BitCloud/lib/libBc_Coordinator_Atmega128rfa1_Atmega128rfa1_Gcc.a(nwk.o)
 .text.nwkStartAgeTimerOfNeighborTable
                0x0000946e       0x32 ./../../../../../../Atmel_lib/BitCloud_MEGARF_1_14_0/BitCloud/lib/libBc_Coordinator_Atmega128rfa1_Atmega128rfa1_Gcc.a(nwk.o)
 .text.freeJoinIndObj
                0x000094a0        0xe ./../../../../../../Atmel_lib/BitCloud_MEGARF_1_14_0/BitCloud/lib/libBc_Coordinator_Atmega128rfa1_Atmega128rfa1_Gcc.a(nwk.o)
 .text.nwkJoinIndTaskHandler
                0x000094ae      0x108 ./../../../../../../Atmel_lib/BitCloud_MEGARF_1_14_0/BitCloud/lib/libBc_Coordinator_Atmega128rfa1_Atmega128rfa1_Gcc.a(nwk.o)
 .text.nwkPrepareCommonFrame
                0x000095b6       0x4a ./../../../../../../Atmel_lib/BitCloud_MEGARF_1_14_0/BitCloud/lib/libBc_Coordinator_Atmega128rfa1_Atmega128rfa1_Gcc.a(nwk.o)
 .text.nwkAllocRouteDiscoveryEntry
                0x00009600       0xac ./../../../../../../Atmel_lib/BitCloud_MEGARF_1_14_0/BitCloud/lib/libBc_Coordinator_Atmega128rfa1_Atmega128rfa1_Gcc.a(nwk.o)
 .text.nwkRouteDiscoveryTaskHandler
                0x000096ac       0xd4 ./../../../../../../Atmel_lib/BitCloud_MEGARF_1_14_0/BitCloud/lib/libBc_Coordinator_Atmega128rfa1_Atmega128rfa1_Gcc.a(nwk.o)
 .text.nwkResetTaskManager
                0x00009780       0x10 ./../../../../../../Atmel_lib/BitCloud_MEGARF_1_14_0/BitCloud/lib/libBc_Coordinator_Atmega128rfa1_Atmega128rfa1_Gcc.a(nwk.o)
 .text.nwkFormationMacEDScanConf
                0x00009790       0xfc ./../../../../../../Atmel_lib/BitCloud_MEGARF_1_14_0/BitCloud/lib/libBc_Coordinator_Atmega128rfa1_Atmega128rfa1_Gcc.a(nwk.o)
 .text.nwkResetRouteDiscoveryTable
                0x0000988c       0xb2 ./../../../../../../Atmel_lib/BitCloud_MEGARF_1_14_0/BitCloud/lib/libBc_Coordinator_Atmega128rfa1_Atmega128rfa1_Gcc.a(nwk.o)
 .text.nwkFormationMacActiveScanConf
                0x0000993e      0x25a ./../../../../../../Atmel_lib/BitCloud_MEGARF_1_14_0/BitCloud/lib/libBc_Coordinator_Atmega128rfa1_Atmega128rfa1_Gcc.a(nwk.o)
 .text.nwkPermitJoiningTaskHandler
                0x00009b98       0xe4 ./../../../../../../Atmel_lib/BitCloud_MEGARF_1_14_0/BitCloud/lib/libBc_Coordinator_Atmega128rfa1_Atmega128rfa1_Gcc.a(nwk.o)
 .text.nwkPermitJoinTimerFired
                0x00009c7c       0x26 ./../../../../../../Atmel_lib/BitCloud_MEGARF_1_14_0/BitCloud/lib/libBc_Coordinator_Atmega128rfa1_Atmega128rfa1_Gcc.a(nwk.o)
 .text.nwkFormationMacSetConf
                0x00009ca2      0x14e ./../../../../../../Atmel_lib/BitCloud_MEGARF_1_14_0/BitCloud/lib/libBc_Coordinator_Atmega128rfa1_Atmega128rfa1_Gcc.a(nwk.o)
 .text.nwkFormationMacStartConf
                0x00009df0       0x48 ./../../../../../../Atmel_lib/BitCloud_MEGARF_1_14_0/BitCloud/lib/libBc_Coordinator_Atmega128rfa1_Atmega128rfa1_Gcc.a(nwk.o)
 .text.nwkResetMacStartConf
                0x00009e38       0x50 ./../../../../../../Atmel_lib/BitCloud_MEGARF_1_14_0/BitCloud/lib/libBc_Coordinator_Atmega128rfa1_Atmega128rfa1_Gcc.a(nwk.o)
 .text.nwkPrepareLeaveChildTx
                0x00009e88       0xb2 ./../../../../../../Atmel_lib/BitCloud_MEGARF_1_14_0/BitCloud/lib/libBc_Coordinator_Atmega128rfa1_Atmega128rfa1_Gcc.a(nwk.o)
 .text.nwkPrepareLeaveItselfTx
                0x00009f3a       0x90 ./../../../../../../Atmel_lib/BitCloud_MEGARF_1_14_0/BitCloud/lib/libBc_Coordinator_Atmega128rfa1_Atmega128rfa1_Gcc.a(nwk.o)
 .text.nwkPrepareJoinRespTx
                0x00009fca       0xf0 ./../../../../../../Atmel_lib/BitCloud_MEGARF_1_14_0/BitCloud/lib/libBc_Coordinator_Atmega128rfa1_Atmega128rfa1_Gcc.a(nwk.o)
 .text.nwkPrepareLinkStatusTx
                0x0000a0ba      0x1e2 ./../../../../../../Atmel_lib/BitCloud_MEGARF_1_14_0/BitCloud/lib/libBc_Coordinator_Atmega128rfa1_Atmega128rfa1_Gcc.a(nwk.o)
 .text.nwkLinkStatusInd
                0x0000a29c      0x23a ./../../../../../../Atmel_lib/BitCloud_MEGARF_1_14_0/BitCloud/lib/libBc_Coordinator_Atmega128rfa1_Atmega128rfa1_Gcc.a(nwk.o)
 .text.nwkConfirmLeaveItselfTx
                0x0000a4d6       0x42 ./../../../../../../Atmel_lib/BitCloud_MEGARF_1_14_0/BitCloud/lib/libBc_Coordinator_Atmega128rfa1_Atmega128rfa1_Gcc.a(nwk.o)
 .text.nwkResetTaskHandler
                0x0000a518       0x6a ./../../../../../../Atmel_lib/BitCloud_MEGARF_1_14_0/BitCloud/lib/libBc_Coordinator_Atmega128rfa1_Atmega128rfa1_Gcc.a(nwk.o)
 .text.nwkCheckBTT
                0x0000a582       0x22 ./../../../../../../Atmel_lib/BitCloud_MEGARF_1_14_0/BitCloud/lib/libBc_Coordinator_Atmega128rfa1_Atmega128rfa1_Gcc.a(nwk.o)
 .text.nwkIsPassiveAckDone.clone.5
                0x0000a5a4       0x70 ./../../../../../../Atmel_lib/BitCloud_MEGARF_1_14_0/BitCloud/lib/libBc_Coordinator_Atmega128rfa1_Atmega128rfa1_Gcc.a(nwk.o)
 .text.nwkTxDelayReq
                0x0000a614      0x1a2 ./../../../../../../Atmel_lib/BitCloud_MEGARF_1_14_0/BitCloud/lib/libBc_Coordinator_Atmega128rfa1_Atmega128rfa1_Gcc.a(nwk.o)
 .text.nwkClearNeighborTable.clone.19
                0x0000a7b6       0x68 ./../../../../../../Atmel_lib/BitCloud_MEGARF_1_14_0/BitCloud/lib/libBc_Coordinator_Atmega128rfa1_Atmega128rfa1_Gcc.a(nwk.o)
 .text.nwkResetNeighborTable
                0x0000a81e       0x86 ./../../../../../../Atmel_lib/BitCloud_MEGARF_1_14_0/BitCloud/lib/libBc_Coordinator_Atmega128rfa1_Atmega128rfa1_Gcc.a(nwk.o)
 .text.nwkFormationTaskHandler
                0x0000a8a4      0x15e ./../../../../../../Atmel_lib/BitCloud_MEGARF_1_14_0/BitCloud/lib/libBc_Coordinator_Atmega128rfa1_Atmega128rfa1_Gcc.a(nwk.o)
 .text.nwkDiscoveryTaskHandler
                0x0000aa02       0xb8 ./../../../../../../Atmel_lib/BitCloud_MEGARF_1_14_0/BitCloud/lib/libBc_Coordinator_Atmega128rfa1_Atmega128rfa1_Gcc.a(nwk.o)
 .text.nwkAllocOutputPacket.clone.20
                0x0000aaba       0x4e ./../../../../../../Atmel_lib/BitCloud_MEGARF_1_14_0/BitCloud/lib/libBc_Coordinator_Atmega128rfa1_Atmega128rfa1_Gcc.a(nwk.o)
 .text.nwkTryToProcessCommandReq
                0x0000ab08       0x2c ./../../../../../../Atmel_lib/BitCloud_MEGARF_1_14_0/BitCloud/lib/libBc_Coordinator_Atmega128rfa1_Atmega128rfa1_Gcc.a(nwk.o)
 .text.nwkCommandReq
                0x0000ab34       0x14 ./../../../../../../Atmel_lib/BitCloud_MEGARF_1_14_0/BitCloud/lib/libBc_Coordinator_Atmega128rfa1_Atmega128rfa1_Gcc.a(nwk.o)
 .text.nwkConfirmNetworkStatusTx
                0x0000ab48       0x68 ./../../../../../../Atmel_lib/BitCloud_MEGARF_1_14_0/BitCloud/lib/libBc_Coordinator_Atmega128rfa1_Atmega128rfa1_Gcc.a(nwk.o)
 .text.nwkStatusReq
                0x0000abb0       0x44 ./../../../../../../Atmel_lib/BitCloud_MEGARF_1_14_0/BitCloud/lib/libBc_Coordinator_Atmega128rfa1_Atmega128rfa1_Gcc.a(nwk.o)
 .text.nwkSendRouteErrorStatus.clone.17
                0x0000abf4       0x3c ./../../../../../../Atmel_lib/BitCloud_MEGARF_1_14_0/BitCloud/lib/libBc_Coordinator_Atmega128rfa1_Atmega128rfa1_Gcc.a(nwk.o)
 .text.nwkLinkStatusTimerFired
                0x0000ac30       0x1c ./../../../../../../Atmel_lib/BitCloud_MEGARF_1_14_0/BitCloud/lib/libBc_Coordinator_Atmega128rfa1_Atmega128rfa1_Gcc.a(nwk.o)
 .text.nwkRemoveAllChildren.clone.18
                0x0000ac4c       0xd6 ./../../../../../../Atmel_lib/BitCloud_MEGARF_1_14_0/BitCloud/lib/libBc_Coordinator_Atmega128rfa1_Atmega128rfa1_Gcc.a(nwk.o)
 .text.nwkFreePacket
                0x0000ad22       0x4e ./../../../../../../Atmel_lib/BitCloud_MEGARF_1_14_0/BitCloud/lib/libBc_Coordinator_Atmega128rfa1_Atmega128rfa1_Gcc.a(nwk.o)
 .text.nwkTxConf
                0x0000ad70      0x1a4 ./../../../../../../Atmel_lib/BitCloud_MEGARF_1_14_0/BitCloud/lib/libBc_Coordinator_Atmega128rfa1_Atmega128rfa1_Gcc.a(nwk.o)
 .text.nwkProcessDelayStatus
                0x0000af14       0xd4 ./../../../../../../Atmel_lib/BitCloud_MEGARF_1_14_0/BitCloud/lib/libBc_Coordinator_Atmega128rfa1_Atmega128rfa1_Gcc.a(nwk.o)
 .text.MAC_DataConf
                0x0000afe8       0x30 ./../../../../../../Atmel_lib/BitCloud_MEGARF_1_14_0/BitCloud/lib/libBc_Coordinator_Atmega128rfa1_Atmega128rfa1_Gcc.a(nwk.o)
 .text.nwkTxDelayConf
                0x0000b018        0xe ./../../../../../../Atmel_lib/BitCloud_MEGARF_1_14_0/BitCloud/lib/libBc_Coordinator_Atmega128rfa1_Atmega128rfa1_Gcc.a(nwk.o)
 .text.nwkLeaveReqMacResetConf
                0x0000b026       0xf6 ./../../../../../../Atmel_lib/BitCloud_MEGARF_1_14_0/BitCloud/lib/libBc_Coordinator_Atmega128rfa1_Atmega128rfa1_Gcc.a(nwk.o)
 .text.nwkTxDelayTimerFired
                0x0000b11c       0x90 ./../../../../../../Atmel_lib/BitCloud_MEGARF_1_14_0/BitCloud/lib/libBc_Coordinator_Atmega128rfa1_Atmega128rfa1_Gcc.a(nwk.o)
 .text.nwkTransmitOutputPacket.clone.13
                0x0000b1ac       0x4a ./../../../../../../Atmel_lib/BitCloud_MEGARF_1_14_0/BitCloud/lib/libBc_Coordinator_Atmega128rfa1_Atmega128rfa1_Gcc.a(nwk.o)
 .text.nwkSendDiscoveryCommand
                0x0000b1f6       0x6a ./../../../../../../Atmel_lib/BitCloud_MEGARF_1_14_0/BitCloud/lib/libBc_Coordinator_Atmega128rfa1_Atmega128rfa1_Gcc.a(nwk.o)
 .text.nwkRouteDiscoveryTableTaskHandler
                0x0000b260       0x9a ./../../../../../../Atmel_lib/BitCloud_MEGARF_1_14_0/BitCloud/lib/libBc_Coordinator_Atmega128rfa1_Atmega128rfa1_Gcc.a(nwk.o)
 .text.nwkMeshRouteDiscoveryConf
                0x0000b2fa       0x5e ./../../../../../../Atmel_lib/BitCloud_MEGARF_1_14_0/BitCloud/lib/libBc_Coordinator_Atmega128rfa1_Atmega128rfa1_Gcc.a(nwk.o)
 .text.NWK_GetShortAddr
                0x0000b358        0xa ./../../../../../../Atmel_lib/BitCloud_MEGARF_1_14_0/BitCloud/lib/libBc_Coordinator_Atmega128rfa1_Atmega128rfa1_Gcc.a(nwk.o)
                0x0000b358                NWK_GetShortAddr
 .text.NWK_IsStaticAddressingMode
                0x0000b362        0x6 ./../../../../../../Atmel_lib/BitCloud_MEGARF_1_14_0/BitCloud/lib/libBc_Coordinator_Atmega128rfa1_Atmega128rfa1_Gcc.a(nwk.o)
                0x0000b362                NWK_IsStaticAddressingMode
 .text.NWK_RemoveFromAddressMap
                0x0000b368       0x12 ./../../../../../../Atmel_lib/BitCloud_MEGARF_1_14_0/BitCloud/lib/libBc_Coordinator_Atmega128rfa1_Atmega128rfa1_Gcc.a(nwk.o)
                0x0000b368                NWK_RemoveFromAddressMap
 .text.MAC_BeaconNotifyInd
                0x0000b37a      0x45a ./../../../../../../Atmel_lib/BitCloud_MEGARF_1_14_0/BitCloud/lib/libBc_Coordinator_Atmega128rfa1_Atmega128rfa1_Gcc.a(nwk.o)
                0x0000b37a                MAC_BeaconNotifyInd
 .text.NWK_EDScanReq
                0x0000b7d4       0x20 ./../../../../../../Atmel_lib/BitCloud_MEGARF_1_14_0/BitCloud/lib/libBc_Coordinator_Atmega128rfa1_Atmega128rfa1_Gcc.a(nwk.o)
                0x0000b7d4                NWK_EDScanReq
 .text.NWK_NetworkFormationReq
                0x0000b7f4       0x20 ./../../../../../../Atmel_lib/BitCloud_MEGARF_1_14_0/BitCloud/lib/libBc_Coordinator_Atmega128rfa1_Atmega128rfa1_Gcc.a(nwk.o)
                0x0000b7f4                NWK_NetworkFormationReq
 .text.NWK_IsGroupMember
                0x0000b814       0x3c ./../../../../../../Atmel_lib/BitCloud_MEGARF_1_14_0/BitCloud/lib/libBc_Coordinator_Atmega128rfa1_Atmega128rfa1_Gcc.a(nwk.o)
                0x0000b814                NWK_IsGroupMember
 .text.nwkRetransmitInputPacket
                0x0000b850      0x12a ./../../../../../../Atmel_lib/BitCloud_MEGARF_1_14_0/BitCloud/lib/libBc_Coordinator_Atmega128rfa1_Atmega128rfa1_Gcc.a(nwk.o)
 .text.NWK_DataResp
                0x0000b97a       0x1c ./../../../../../../Atmel_lib/BitCloud_MEGARF_1_14_0/BitCloud/lib/libBc_Coordinator_Atmega128rfa1_Atmega128rfa1_Gcc.a(nwk.o)
                0x0000b97a                NWK_DataResp
 .text.nwkRxIndication
                0x0000b996      0x224 ./../../../../../../Atmel_lib/BitCloud_MEGARF_1_14_0/BitCloud/lib/libBc_Coordinator_Atmega128rfa1_Atmega128rfa1_Gcc.a(nwk.o)
 .text.nwkRxRetransmit
                0x0000bbba       0xae ./../../../../../../Atmel_lib/BitCloud_MEGARF_1_14_0/BitCloud/lib/libBc_Coordinator_Atmega128rfa1_Atmega128rfa1_Gcc.a(nwk.o)
 .text.NWK_ResetGroups
                0x0000bc68       0x5e ./../../../../../../Atmel_lib/BitCloud_MEGARF_1_14_0/BitCloud/lib/libBc_Coordinator_Atmega128rfa1_Atmega128rfa1_Gcc.a(nwk.o)
                0x0000bc68                NWK_ResetGroups
 .text.nwkResetMacResetConf
                0x0000bcc6      0x564 ./../../../../../../Atmel_lib/BitCloud_MEGARF_1_14_0/BitCloud/lib/libBc_Coordinator_Atmega128rfa1_Atmega128rfa1_Gcc.a(nwk.o)
 .text.NWK_GetParentShortAddr
                0x0000c22a        0xa ./../../../../../../Atmel_lib/BitCloud_MEGARF_1_14_0/BitCloud/lib/libBc_Coordinator_Atmega128rfa1_Atmega128rfa1_Gcc.a(nwk.o)
                0x0000c22a                NWK_GetParentShortAddr
 .text.NWK_GetPanId
                0x0000c234        0xa ./../../../../../../Atmel_lib/BitCloud_MEGARF_1_14_0/BitCloud/lib/libBc_Coordinator_Atmega128rfa1_Atmega128rfa1_Gcc.a(nwk.o)
                0x0000c234                NWK_GetPanId
 .text.NWK_GetExtPanId
                0x0000c23e       0x22 ./../../../../../../Atmel_lib/BitCloud_MEGARF_1_14_0/BitCloud/lib/libBc_Coordinator_Atmega128rfa1_Atmega128rfa1_Gcc.a(nwk.o)
                0x0000c23e                NWK_GetExtPanId
 .text.NWK_SetExtPanId
                0x0000c260       0x34 ./../../../../../../Atmel_lib/BitCloud_MEGARF_1_14_0/BitCloud/lib/libBc_Coordinator_Atmega128rfa1_Atmega128rfa1_Gcc.a(nwk.o)
                0x0000c260                NWK_SetExtPanId
 .text.NWK_GetDeviceType
                0x0000c294        0x6 ./../../../../../../Atmel_lib/BitCloud_MEGARF_1_14_0/BitCloud/lib/libBc_Coordinator_Atmega128rfa1_Atmega128rfa1_Gcc.a(nwk.o)
                0x0000c294                NWK_GetDeviceType
 .text.NWK_GetLogicalChannel
                0x0000c29a        0x6 ./../../../../../../Atmel_lib/BitCloud_MEGARF_1_14_0/BitCloud/lib/libBc_Coordinator_Atmega128rfa1_Atmega128rfa1_Gcc.a(nwk.o)
                0x0000c29a                NWK_GetLogicalChannel
 .text.NWK_SetLogicalChannel
                0x0000c2a0        0x6 ./../../../../../../Atmel_lib/BitCloud_MEGARF_1_14_0/BitCloud/lib/libBc_Coordinator_Atmega128rfa1_Atmega128rfa1_Gcc.a(nwk.o)
                0x0000c2a0                NWK_SetLogicalChannel
 .text.NWK_GetBroadcastDeliveryTime
                0x0000c2a6       0x12 ./../../../../../../Atmel_lib/BitCloud_MEGARF_1_14_0/BitCloud/lib/libBc_Coordinator_Atmega128rfa1_Atmega128rfa1_Gcc.a(nwk.o)
                0x0000c2a6                NWK_GetBroadcastDeliveryTime
 .text.NWK_GetManagerAddr
                0x0000c2b8        0xa ./../../../../../../Atmel_lib/BitCloud_MEGARF_1_14_0/BitCloud/lib/libBc_Coordinator_Atmega128rfa1_Atmega128rfa1_Gcc.a(nwk.o)
                0x0000c2b8                NWK_GetManagerAddr
 .text.NWK_SetManagerAddr
                0x0000c2c2        0xa ./../../../../../../Atmel_lib/BitCloud_MEGARF_1_14_0/BitCloud/lib/libBc_Coordinator_Atmega128rfa1_Atmega128rfa1_Gcc.a(nwk.o)
                0x0000c2c2                NWK_SetManagerAddr
 .text.NWK_SetUpdateId
                0x0000c2cc        0xa ./../../../../../../Atmel_lib/BitCloud_MEGARF_1_14_0/BitCloud/lib/libBc_Coordinator_Atmega128rfa1_Atmega128rfa1_Gcc.a(nwk.o)
                0x0000c2cc                NWK_SetUpdateId
 .text.NWK_GetTransmitCouner
                0x0000c2d6       0x14 ./../../../../../../Atmel_lib/BitCloud_MEGARF_1_14_0/BitCloud/lib/libBc_Coordinator_Atmega128rfa1_Atmega128rfa1_Gcc.a(nwk.o)
                0x0000c2d6                NWK_GetTransmitCouner
 .text.NWK_GetTransmitFailureCounter
                0x0000c2ea       0x14 ./../../../../../../Atmel_lib/BitCloud_MEGARF_1_14_0/BitCloud/lib/libBc_Coordinator_Atmega128rfa1_Atmega128rfa1_Gcc.a(nwk.o)
                0x0000c2ea                NWK_GetTransmitFailureCounter
 .text.NWK_ResetTransmitCounters
                0x0000c2fe       0x12 ./../../../../../../Atmel_lib/BitCloud_MEGARF_1_14_0/BitCloud/lib/libBc_Coordinator_Atmega128rfa1_Atmega128rfa1_Gcc.a(nwk.o)
                0x0000c2fe                NWK_ResetTransmitCounters
 .text.NWK_RemoveNeighbor
                0x0000c310       0x90 ./../../../../../../Atmel_lib/BitCloud_MEGARF_1_14_0/BitCloud/lib/libBc_Coordinator_Atmega128rfa1_Atmega128rfa1_Gcc.a(nwk.o)
                0x0000c310                NWK_RemoveNeighbor
 .text.neighborTimerFired
                0x0000c3a0       0x90 ./../../../../../../Atmel_lib/BitCloud_MEGARF_1_14_0/BitCloud/lib/libBc_Coordinator_Atmega128rfa1_Atmega128rfa1_Gcc.a(nwk.o)
 .text.NWK_LeaveReq
                0x0000c430       0x20 ./../../../../../../Atmel_lib/BitCloud_MEGARF_1_14_0/BitCloud/lib/libBc_Coordinator_Atmega128rfa1_Atmega128rfa1_Gcc.a(nwk.o)
                0x0000c430                NWK_LeaveReq
 .text.NWK_LoopbackTxReq
                0x0000c450       0x20 ./../../../../../../Atmel_lib/BitCloud_MEGARF_1_14_0/BitCloud/lib/libBc_Coordinator_Atmega128rfa1_Atmega128rfa1_Gcc.a(nwk.o)
                0x0000c450                NWK_LoopbackTxReq
 .text.nwkDataConfTaskHandler
                0x0000c470       0x5a ./../../../../../../Atmel_lib/BitCloud_MEGARF_1_14_0/BitCloud/lib/libBc_Coordinator_Atmega128rfa1_Atmega128rfa1_Gcc.a(nwk.o)
 .text.NWK_DataReq
                0x0000c4ca      0x216 ./../../../../../../Atmel_lib/BitCloud_MEGARF_1_14_0/BitCloud/lib/libBc_Coordinator_Atmega128rfa1_Atmega128rfa1_Gcc.a(nwk.o)
                0x0000c4ca                NWK_DataReq
 .text.NWK_FindNeighborByShortAddr
                0x0000c6e0       0x30 ./../../../../../../Atmel_lib/BitCloud_MEGARF_1_14_0/BitCloud/lib/libBc_Coordinator_Atmega128rfa1_Atmega128rfa1_Gcc.a(nwk.o)
                0x0000c6e0                NWK_FindNeighborByShortAddr
 .text.nwkGetNextHop
                0x0000c710      0x20c ./../../../../../../Atmel_lib/BitCloud_MEGARF_1_14_0/BitCloud/lib/libBc_Coordinator_Atmega128rfa1_Atmega128rfa1_Gcc.a(nwk.o)
 .text.nwkAllocateShortAddr.clone.14
                0x0000c91c       0xfe ./../../../../../../Atmel_lib/BitCloud_MEGARF_1_14_0/BitCloud/lib/libBc_Coordinator_Atmega128rfa1_Atmega128rfa1_Gcc.a(nwk.o)
 .text.nwkResolveAddressConflict
                0x0000ca1a      0x15e ./../../../../../../Atmel_lib/BitCloud_MEGARF_1_14_0/BitCloud/lib/libBc_Coordinator_Atmega128rfa1_Atmega128rfa1_Gcc.a(nwk.o)
 .text.nwkAddressConflictTaskHandler
                0x0000cb78       0xa0 ./../../../../../../Atmel_lib/BitCloud_MEGARF_1_14_0/BitCloud/lib/libBc_Coordinator_Atmega128rfa1_Atmega128rfa1_Gcc.a(nwk.o)
 .text.nwkStatusFrameInd
                0x0000cc18       0x46 ./../../../../../../Atmel_lib/BitCloud_MEGARF_1_14_0/BitCloud/lib/libBc_Coordinator_Atmega128rfa1_Atmega128rfa1_Gcc.a(nwk.o)
 .text.nwkAddChild
                0x0000cc5e      0x306 ./../../../../../../Atmel_lib/BitCloud_MEGARF_1_14_0/BitCloud/lib/libBc_Coordinator_Atmega128rfa1_Atmega128rfa1_Gcc.a(nwk.o)
 .text.nwkRejoinRequestFrameInd
                0x0000cf64      0x15c ./../../../../../../Atmel_lib/BitCloud_MEGARF_1_14_0/BitCloud/lib/libBc_Coordinator_Atmega128rfa1_Atmega128rfa1_Gcc.a(nwk.o)
 .text.MAC_AssociateInd
                0x0000d0c0       0xd0 ./../../../../../../Atmel_lib/BitCloud_MEGARF_1_14_0/BitCloud/lib/libBc_Coordinator_Atmega128rfa1_Atmega128rfa1_Gcc.a(nwk.o)
                0x0000d0c0                MAC_AssociateInd
 .text.nwkResetMacSetConf
                0x0000d190      0x1ca ./../../../../../../Atmel_lib/BitCloud_MEGARF_1_14_0/BitCloud/lib/libBc_Coordinator_Atmega128rfa1_Atmega128rfa1_Gcc.a(nwk.o)
 .text.nwkProcessRouteRequest
                0x0000d35a      0x232 ./../../../../../../Atmel_lib/BitCloud_MEGARF_1_14_0/BitCloud/lib/libBc_Coordinator_Atmega128rfa1_Atmega128rfa1_Gcc.a(nwk.o)
 .text.NWK_GetExtByShortAddress
                0x0000d58c       0x5c ./../../../../../../Atmel_lib/BitCloud_MEGARF_1_14_0/BitCloud/lib/libBc_Coordinator_Atmega128rfa1_Atmega128rfa1_Gcc.a(nwk.o)
                0x0000d58c                NWK_GetExtByShortAddress
 .text.nwkPrepareRouteRequestTx
                0x0000d5e8      0x164 ./../../../../../../Atmel_lib/BitCloud_MEGARF_1_14_0/BitCloud/lib/libBc_Coordinator_Atmega128rfa1_Atmega128rfa1_Gcc.a(nwk.o)
 .text.nwkPrepareNetworkStatusTx
                0x0000d74c      0x102 ./../../../../../../Atmel_lib/BitCloud_MEGARF_1_14_0/BitCloud/lib/libBc_Coordinator_Atmega128rfa1_Atmega128rfa1_Gcc.a(nwk.o)
 .text.nwkPrepareRouteReplyTx
                0x0000d84e      0x2f8 ./../../../../../../Atmel_lib/BitCloud_MEGARF_1_14_0/BitCloud/lib/libBc_Coordinator_Atmega128rfa1_Atmega128rfa1_Gcc.a(nwk.o)
 .text.NWK_FindNeighborByExtAddr
                0x0000db46       0x68 ./../../../../../../Atmel_lib/BitCloud_MEGARF_1_14_0/BitCloud/lib/libBc_Coordinator_Atmega128rfa1_Atmega128rfa1_Gcc.a(nwk.o)
                0x0000db46                NWK_FindNeighborByExtAddr
 .text.nwkLeaveTaskHandler
                0x0000dbae      0x16a ./../../../../../../Atmel_lib/BitCloud_MEGARF_1_14_0/BitCloud/lib/libBc_Coordinator_Atmega128rfa1_Atmega128rfa1_Gcc.a(nwk.o)
 .text.nwkConfirmLeaveChildTx
                0x0000dd18       0x84 ./../../../../../../Atmel_lib/BitCloud_MEGARF_1_14_0/BitCloud/lib/libBc_Coordinator_Atmega128rfa1_Atmega128rfa1_Gcc.a(nwk.o)
 .text.nwkConfirmJoinRespTx
                0x0000dd9c       0x4e ./../../../../../../Atmel_lib/BitCloud_MEGARF_1_14_0/BitCloud/lib/libBc_Coordinator_Atmega128rfa1_Atmega128rfa1_Gcc.a(nwk.o)
 .text.nwkConfirmAddrConflictJoinRespTx
                0x0000ddea       0x3c ./../../../../../../Atmel_lib/BitCloud_MEGARF_1_14_0/BitCloud/lib/libBc_Coordinator_Atmega128rfa1_Atmega128rfa1_Gcc.a(nwk.o)
 .text.nwkLeaveFrameInd
                0x0000de26       0x4a ./../../../../../../Atmel_lib/BitCloud_MEGARF_1_14_0/BitCloud/lib/libBc_Coordinator_Atmega128rfa1_Atmega128rfa1_Gcc.a(nwk.o)
 .text.nwkJoinIndMacCommStatusInd
                0x0000de70       0x54 ./../../../../../../Atmel_lib/BitCloud_MEGARF_1_14_0/BitCloud/lib/libBc_Coordinator_Atmega128rfa1_Atmega128rfa1_Gcc.a(nwk.o)
 .text.NWK_GetShortByExtAddress
                0x0000dec4       0x60 ./../../../../../../Atmel_lib/BitCloud_MEGARF_1_14_0/BitCloud/lib/libBc_Coordinator_Atmega128rfa1_Atmega128rfa1_Gcc.a(nwk.o)
                0x0000dec4                NWK_GetShortByExtAddress
 .text.NWK_LinkShortAndExtAddress
                0x0000df24       0xd8 ./../../../../../../Atmel_lib/BitCloud_MEGARF_1_14_0/BitCloud/lib/libBc_Coordinator_Atmega128rfa1_Atmega128rfa1_Gcc.a(nwk.o)
                0x0000df24                NWK_LinkShortAndExtAddress
 .text.nwkRouteReplyFrameInd
                0x0000dffc      0x18c ./../../../../../../Atmel_lib/BitCloud_MEGARF_1_14_0/BitCloud/lib/libBc_Coordinator_Atmega128rfa1_Atmega128rfa1_Gcc.a(nwk.o)
 .text.nwkRouteRequestFrameInd
                0x0000e188       0xb6 ./../../../../../../Atmel_lib/BitCloud_MEGARF_1_14_0/BitCloud/lib/libBc_Coordinator_Atmega128rfa1_Atmega128rfa1_Gcc.a(nwk.o)
 .text.NWK_GetNeighborTable
                0x0000e23e        0x6 ./../../../../../../Atmel_lib/BitCloud_MEGARF_1_14_0/BitCloud/lib/libBc_Coordinator_Atmega128rfa1_Atmega128rfa1_Gcc.a(nwk.o)
                0x0000e23e                NWK_GetNeighborTable
 .text.NWK_GetNeighborsLqi
                0x0000e244       0x3e ./../../../../../../Atmel_lib/BitCloud_MEGARF_1_14_0/BitCloud/lib/libBc_Coordinator_Atmega128rfa1_Atmega128rfa1_Gcc.a(nwk.o)
                0x0000e244                NWK_GetNeighborsLqi
 .text.NWK_GetNeighborsRssi
                0x0000e282       0x3e ./../../../../../../Atmel_lib/BitCloud_MEGARF_1_14_0/BitCloud/lib/libBc_Coordinator_Atmega128rfa1_Atmega128rfa1_Gcc.a(nwk.o)
                0x0000e282                NWK_GetNeighborsRssi
 .text.NWK_IsKnownChild
                0x0000e2c0       0x24 ./../../../../../../Atmel_lib/BitCloud_MEGARF_1_14_0/BitCloud/lib/libBc_Coordinator_Atmega128rfa1_Atmega128rfa1_Gcc.a(nwk.o)
                0x0000e2c0                NWK_IsKnownChild
 .text.MAC_OrphanInd
                0x0000e2e4        0x2 ./../../../../../../Atmel_lib/BitCloud_MEGARF_1_14_0/BitCloud/lib/libBc_Coordinator_Atmega128rfa1_Atmega128rfa1_Gcc.a(nwk.o)
                0x0000e2e4                MAC_OrphanInd
 .text.NWK_PermitJoiningReq
                0x0000e2e6       0x2c ./../../../../../../Atmel_lib/BitCloud_MEGARF_1_14_0/BitCloud/lib/libBc_Coordinator_Atmega128rfa1_Atmega128rfa1_Gcc.a(nwk.o)
                0x0000e2e6                NWK_PermitJoiningReq
 .text.NWK_ResetReq
                0x0000e312       0x20 ./../../../../../../Atmel_lib/BitCloud_MEGARF_1_14_0/BitCloud/lib/libBc_Coordinator_Atmega128rfa1_Atmega128rfa1_Gcc.a(nwk.o)
                0x0000e312                NWK_ResetReq
 .text.NWK_Init
                0x0000e332       0x20 ./../../../../../../Atmel_lib/BitCloud_MEGARF_1_14_0/BitCloud/lib/libBc_Coordinator_Atmega128rfa1_Atmega128rfa1_Gcc.a(nwk.o)
                0x0000e332                NWK_Init
 .text.NWK_RouteDiscoveryReq
                0x0000e352       0x34 ./../../../../../../Atmel_lib/BitCloud_MEGARF_1_14_0/BitCloud/lib/libBc_Coordinator_Atmega128rfa1_Atmega128rfa1_Gcc.a(nwk.o)
                0x0000e352                NWK_RouteDiscoveryReq
 .text.nwkTxTaskHandler
                0x0000e386      0x19a ./../../../../../../Atmel_lib/BitCloud_MEGARF_1_14_0/BitCloud/lib/libBc_Coordinator_Atmega128rfa1_Atmega128rfa1_Gcc.a(nwk.o)
 .text.MAC_DataInd
                0x0000e520      0x458 ./../../../../../../Atmel_lib/BitCloud_MEGARF_1_14_0/BitCloud/lib/libBc_Coordinator_Atmega128rfa1_Atmega128rfa1_Gcc.a(nwk.o)
                0x0000e520                MAC_DataInd
 .text.NWK_IsActiveTransaction
                0x0000e978       0x54 ./../../../../../../Atmel_lib/BitCloud_MEGARF_1_14_0/BitCloud/lib/libBc_Coordinator_Atmega128rfa1_Atmega128rfa1_Gcc.a(nwk.o)
                0x0000e978                NWK_IsActiveTransaction
 .text.NWK_LaunchActivities
                0x0000e9cc       0x12 ./../../../../../../Atmel_lib/BitCloud_MEGARF_1_14_0/BitCloud/lib/libBc_Coordinator_Atmega128rfa1_Atmega128rfa1_Gcc.a(nwk.o)
                0x0000e9cc                NWK_LaunchActivities
 .text.NWK_StopActivities
                0x0000e9de       0x12 ./../../../../../../Atmel_lib/BitCloud_MEGARF_1_14_0/BitCloud/lib/libBc_Coordinator_Atmega128rfa1_Atmega128rfa1_Gcc.a(nwk.o)
                0x0000e9de                NWK_StopActivities
 .text.NWK_DeviceIsAbleToOperateInNetwork
                0x0000e9f0       0x36 ./../../../../../../Atmel_lib/BitCloud_MEGARF_1_14_0/BitCloud/lib/libBc_Coordinator_Atmega128rfa1_Atmega128rfa1_Gcc.a(nwk.o)
                0x0000e9f0                NWK_DeviceIsAbleToOperateInNetwork
 .text.NWK_GatherPowerFailureInfo
                0x0000ea26       0x24 ./../../../../../../Atmel_lib/BitCloud_MEGARF_1_14_0/BitCloud/lib/libBc_Coordinator_Atmega128rfa1_Atmega128rfa1_Gcc.a(nwk.o)
                0x0000ea26                NWK_GatherPowerFailureInfo
 .text.MAC_PollInd
                0x0000ea4a       0x52 ./../../../../../../Atmel_lib/BitCloud_MEGARF_1_14_0/BitCloud/lib/libBc_Coordinator_Atmega128rfa1_Atmega128rfa1_Gcc.a(nwk.o)
                0x0000ea4a                MAC_PollInd
 .text.MAC_SyncLossInd
                0x0000ea9c        0x2 ./../../../../../../Atmel_lib/BitCloud_MEGARF_1_14_0/BitCloud/lib/libBc_Coordinator_Atmega128rfa1_Atmega128rfa1_Gcc.a(nwk.o)
                0x0000ea9c                MAC_SyncLossInd
 .text.NWK_TaskHandler
                0x0000ea9e       0xd8 ./../../../../../../Atmel_lib/BitCloud_MEGARF_1_14_0/BitCloud/lib/libBc_Coordinator_Atmega128rfa1_Atmega128rfa1_Gcc.a(nwk.o)
                0x0000ea9e                NWK_TaskHandler
 .text.NWK_GetUnicastDeliveryTime
                0x0000eb76       0x6a ./../../../../../../Atmel_lib/BitCloud_MEGARF_1_14_0/BitCloud/lib/libBc_Coordinator_Atmega128rfa1_Atmega128rfa1_Gcc.a(nwk.o)
                0x0000eb76                NWK_GetUnicastDeliveryTime
 .text.phyRxTxSwitcher
                0x0000ebe0       0x36 ./../../../../../../Atmel_lib/BitCloud_MEGARF_1_14_0/BitCloud/lib/libBc_Coordinator_Atmega128rfa1_Atmega128rfa1_Gcc.a(phyRxTxIndicator.o)
 .text.phyRxTxSwitcherOn
                0x0000ec16        0x8 ./../../../../../../Atmel_lib/BitCloud_MEGARF_1_14_0/BitCloud/lib/libBc_Coordinator_Atmega128rfa1_Atmega128rfa1_Gcc.a(phyRxTxIndicator.o)
                0x0000ec16                phyRxTxSwitcherOn
 .text.phyRxTxSwitcherOff
                0x0000ec1e        0x8 ./../../../../../../Atmel_lib/BitCloud_MEGARF_1_14_0/BitCloud/lib/libBc_Coordinator_Atmega128rfa1_Atmega128rfa1_Gcc.a(phyRxTxIndicator.o)
                0x0000ec1e                phyRxTxSwitcherOff
 .text.deleteHeadQueueElem
                0x0000ec26       0x22 ./../../../../../../Atmel_lib/BitCloud_MEGARF_1_14_0/BitCloud/lib/libBc_Coordinator_Atmega128rfa1_Atmega128rfa1_Gcc.a(queue.o)
                0x0000ec26                deleteHeadQueueElem
 .text.deleteQueueElem
                0x0000ec48       0x4a ./../../../../../../Atmel_lib/BitCloud_MEGARF_1_14_0/BitCloud/lib/libBc_Coordinator_Atmega128rfa1_Atmega128rfa1_Gcc.a(queue.o)
                0x0000ec48                deleteQueueElem
 .text.isQueueElem
                0x0000ec92       0x22 ./../../../../../../Atmel_lib/BitCloud_MEGARF_1_14_0/BitCloud/lib/libBc_Coordinator_Atmega128rfa1_Atmega128rfa1_Gcc.a(queue.o)
                0x0000ec92                isQueueElem
 .text.putQueueElem
                0x0000ecb4       0x40 ./../../../../../../Atmel_lib/BitCloud_MEGARF_1_14_0/BitCloud/lib/libBc_Coordinator_Atmega128rfa1_Atmega128rfa1_Gcc.a(queue.o)
                0x0000ecb4                putQueueElem
 .text.SYS_DuplicateTableReset
                0x0000ecf4       0x4e ./../../../../../../Atmel_lib/BitCloud_MEGARF_1_14_0/BitCloud/lib/libBc_Coordinator_Atmega128rfa1_Atmega128rfa1_Gcc.a(sysDuplicateTable.o)
                0x0000ecf4                SYS_DuplicateTableReset
 .text.duplicateTableUpdate
                0x0000ed42       0x8e ./../../../../../../Atmel_lib/BitCloud_MEGARF_1_14_0/BitCloud/lib/libBc_Coordinator_Atmega128rfa1_Atmega128rfa1_Gcc.a(sysDuplicateTable.o)
                0x0000ed42                duplicateTableUpdate
 .text.SYS_DuplicateTableCheck
                0x0000edd0      0x10c ./../../../../../../Atmel_lib/BitCloud_MEGARF_1_14_0/BitCloud/lib/libBc_Coordinator_Atmega128rfa1_Atmega128rfa1_Gcc.a(sysDuplicateTable.o)
                0x0000edd0                SYS_DuplicateTableCheck
 .text.SYS_DuplicateTableClear
                0x0000eedc       0x7c ./../../../../../../Atmel_lib/BitCloud_MEGARF_1_14_0/BitCloud/lib/libBc_Coordinator_Atmega128rfa1_Atmega128rfa1_Gcc.a(sysDuplicateTable.o)
                0x0000eedc                SYS_DuplicateTableClear
 .text.SYS_PostEvent
                0x0000ef58       0x7a ./../../../../../../Atmel_lib/BitCloud_MEGARF_1_14_0/BitCloud/lib/libBc_Coordinator_Atmega128rfa1_Atmega128rfa1_Gcc.a(sysEvents.o)
                0x0000ef58                SYS_PostEvent
 .text.SYS_IsEventDeliverable
                0x0000efd2       0x38 ./../../../../../../Atmel_lib/BitCloud_MEGARF_1_14_0/BitCloud/lib/libBc_Coordinator_Atmega128rfa1_Atmega128rfa1_Gcc.a(sysEvents.o)
                0x0000efd2                SYS_IsEventDeliverable
 .text.SYS_IsEventSubscriber
                0x0000f00a       0x32 ./../../../../../../Atmel_lib/BitCloud_MEGARF_1_14_0/BitCloud/lib/libBc_Coordinator_Atmega128rfa1_Atmega128rfa1_Gcc.a(sysEvents.o)
                0x0000f00a                SYS_IsEventSubscriber
 .text.SYS_SubscribeToEvent
                0x0000f03c       0x70 ./../../../../../../Atmel_lib/BitCloud_MEGARF_1_14_0/BitCloud/lib/libBc_Coordinator_Atmega128rfa1_Atmega128rfa1_Gcc.a(sysEvents.o)
                0x0000f03c                SYS_SubscribeToEvent
 .text.SYS_StartTimer
                0x0000f0ac       0x14 ./../../../../../../Atmel_lib/BitCloud_MEGARF_1_14_0/BitCloud/lib/libBc_Coordinator_Atmega128rfa1_Atmega128rfa1_Gcc.a(sysTimer.o)
                0x0000f0ac                SYS_StartTimer
 .text.SYS_StopTimer
                0x0000f0c0       0x12 ./../../../../../../Atmel_lib/BitCloud_MEGARF_1_14_0/BitCloud/lib/libBc_Coordinator_Atmega128rfa1_Atmega128rfa1_Gcc.a(sysTimer.o)
                0x0000f0c0                SYS_StopTimer
 .text.SYS_InitTimer
                0x0000f0d2       0x34 ./../../../../../../Atmel_lib/BitCloud_MEGARF_1_14_0/BitCloud/lib/libBc_Coordinator_Atmega128rfa1_Atmega128rfa1_Gcc.a(sysTimer.o)
                0x0000f0d2                SYS_InitTimer
 .text.SYS_RunTask
                0x0000f106       0x76 ./../../../../../../Atmel_lib/BitCloud_MEGARF_1_14_0/BitCloud/lib/libBc_Coordinator_Atmega128rfa1_Atmega128rfa1_Gcc.a(taskManager.o)
                0x0000f106                SYS_RunTask
 .text.SYS_ForceRunTask
                0x0000f17c        0x6 ./../../../../../../Atmel_lib/BitCloud_MEGARF_1_14_0/BitCloud/lib/libBc_Coordinator_Atmega128rfa1_Atmega128rfa1_Gcc.a(taskManager.o)
                0x0000f17c                SYS_ForceRunTask
 .text.SYS_SysInit
                0x0000f182       0x22 ./../../../../../../Atmel_lib/BitCloud_MEGARF_1_14_0/BitCloud/lib/libBc_Coordinator_Atmega128rfa1_Atmega128rfa1_Gcc.a(taskManager.o)
                0x0000f182                SYS_SysInit
 .text.APS_StopConf
                0x0000f1a4       0x14 ./../../../../../../Atmel_lib/BitCloud_MEGARF_1_14_0/BitCloud/lib/libBc_Coordinator_Atmega128rfa1_Atmega128rfa1_Gcc.a(zdo.o)
 .text.zdoNodeManagerNwkLeaveConf
                0x0000f1b8        0x6 ./../../../../../../Atmel_lib/BitCloud_MEGARF_1_14_0/BitCloud/lib/libBc_Coordinator_Atmega128rfa1_Atmega128rfa1_Gcc.a(zdo.o)
 .text.zdoNwkManagerReset
                0x0000f1be       0x10 ./../../../../../../Atmel_lib/BitCloud_MEGARF_1_14_0/BitCloud/lib/libBc_Coordinator_Atmega128rfa1_Atmega128rfa1_Gcc.a(zdo.o)
 .text.zdoStackResetConf
                0x0000f1ce       0x1c ./../../../../../../Atmel_lib/BitCloud_MEGARF_1_14_0/BitCloud/lib/libBc_Coordinator_Atmega128rfa1_Atmega128rfa1_Gcc.a(zdo.o)
 .text.zdoSecurityManagerHandler
                0x0000f1ea        0x2 ./../../../../../../Atmel_lib/BitCloud_MEGARF_1_14_0/BitCloud/lib/libBc_Coordinator_Atmega128rfa1_Atmega128rfa1_Gcc.a(zdo.o)
                0x0000f1ea                zdoSecurityManagerHandler
 .text.zdoPostTask
                0x0000f1ec       0x3c ./../../../../../../Atmel_lib/BitCloud_MEGARF_1_14_0/BitCloud/lib/libBc_Coordinator_Atmega128rfa1_Atmega128rfa1_Gcc.a(zdo.o)
 .text.zdoCheckStartNetworkRequestsQueue
                0x0000f228       0x38 ./../../../../../../Atmel_lib/BitCloud_MEGARF_1_14_0/BitCloud/lib/libBc_Coordinator_Atmega128rfa1_Atmega128rfa1_Gcc.a(zdo.o)
 .text.startConfirm
                0x0000f260       0x2e ./../../../../../../Atmel_lib/BitCloud_MEGARF_1_14_0/BitCloud/lib/libBc_Coordinator_Atmega128rfa1_Atmega128rfa1_Gcc.a(zdo.o)
 .text.sleepConfirm
                0x0000f28e       0x24 ./../../../../../../Atmel_lib/BitCloud_MEGARF_1_14_0/BitCloud/lib/libBc_Coordinator_Atmega128rfa1_Atmega128rfa1_Gcc.a(zdo.o)
 .text.wakeUpConfirm
                0x0000f2b2       0x24 ./../../../../../../Atmel_lib/BitCloud_MEGARF_1_14_0/BitCloud/lib/libBc_Coordinator_Atmega128rfa1_Atmega128rfa1_Gcc.a(zdo.o)
 .text.zdoUnpostTask
                0x0000f2d6       0x28 ./../../../../../../Atmel_lib/BitCloud_MEGARF_1_14_0/BitCloud/lib/libBc_Coordinator_Atmega128rfa1_Atmega128rfa1_Gcc.a(zdo.o)
 .text.zdoSetZdpDataReqState
                0x0000f2fe       0x22 ./../../../../../../Atmel_lib/BitCloud_MEGARF_1_14_0/BitCloud/lib/libBc_Coordinator_Atmega128rfa1_Atmega128rfa1_Gcc.a(zdo.o)
 .text.confirmResponse
                0x0000f320        0x8 ./../../../../../../Atmel_lib/BitCloud_MEGARF_1_14_0/BitCloud/lib/libBc_Coordinator_Atmega128rfa1_Atmega128rfa1_Gcc.a(zdo.o)
 .text.zdoDefaultBindApsDataConf
                0x0000f328        0x8 ./../../../../../../Atmel_lib/BitCloud_MEGARF_1_14_0/BitCloud/lib/libBc_Coordinator_Atmega128rfa1_Atmega128rfa1_Gcc.a(zdo.o)
 .text.confirmMgmtLqiResponse
                0x0000f330        0x8 ./../../../../../../Atmel_lib/BitCloud_MEGARF_1_14_0/BitCloud/lib/libBc_Coordinator_Atmega128rfa1_Atmega128rfa1_Gcc.a(zdo.o)
 .text.permitJoiningConf
                0x0000f338       0x16 ./../../../../../../Atmel_lib/BitCloud_MEGARF_1_14_0/BitCloud/lib/libBc_Coordinator_Atmega128rfa1_Atmega128rfa1_Gcc.a(zdo.o)
 .text.confirmMgmtPermitJoiningResponse
                0x0000f34e        0x8 ./../../../../../../Atmel_lib/BitCloud_MEGARF_1_14_0/BitCloud/lib/libBc_Coordinator_Atmega128rfa1_Atmega128rfa1_Gcc.a(zdo.o)
 .text.zdoZdpApsConfCallback
                0x0000f356       0x78 ./../../../../../../Atmel_lib/BitCloud_MEGARF_1_14_0/BitCloud/lib/libBc_Coordinator_Atmega128rfa1_Atmega128rfa1_Gcc.a(zdo.o)
 .text.zdoSetZdpIndState
                0x0000f3ce       0x10 ./../../../../../../Atmel_lib/BitCloud_MEGARF_1_14_0/BitCloud/lib/libBc_Coordinator_Atmega128rfa1_Atmega128rfa1_Gcc.a(zdo.o)
 .text.ttlUpdateTimerFired
                0x0000f3de       0x72 ./../../../../../../Atmel_lib/BitCloud_MEGARF_1_14_0/BitCloud/lib/libBc_Coordinator_Atmega128rfa1_Atmega128rfa1_Gcc.a(zdo.o)
 .text.zdoZdpResetReq
                0x0000f450       0x90 ./../../../../../../Atmel_lib/BitCloud_MEGARF_1_14_0/BitCloud/lib/libBc_Coordinator_Atmega128rfa1_Atmega128rfa1_Gcc.a(zdo.o)
 .text.zdoReset
                0x0000f4e0        0xa ./../../../../../../Atmel_lib/BitCloud_MEGARF_1_14_0/BitCloud/lib/libBc_Coordinator_Atmega128rfa1_Atmega128rfa1_Gcc.a(zdo.o)
 .text.zdoPseudoRandomSeed
                0x0000f4ea       0x46 ./../../../../../../Atmel_lib/BitCloud_MEGARF_1_14_0/BitCloud/lib/libBc_Coordinator_Atmega128rfa1_Atmega128rfa1_Gcc.a(zdo.o)
 .text.RF_RandomConfUpdater
                0x0000f530       0x1c ./../../../../../../Atmel_lib/BitCloud_MEGARF_1_14_0/BitCloud/lib/libBc_Coordinator_Atmega128rfa1_Atmega128rfa1_Gcc.a(zdo.o)
 .text.zdoUpdateRandSeedTimerFired
                0x0000f54c       0x28 ./../../../../../../Atmel_lib/BitCloud_MEGARF_1_14_0/BitCloud/lib/libBc_Coordinator_Atmega128rfa1_Atmega128rfa1_Gcc.a(zdo.o)
 .text.zdoStackReset
                0x0000f574       0x2a ./../../../../../../Atmel_lib/BitCloud_MEGARF_1_14_0/BitCloud/lib/libBc_Coordinator_Atmega128rfa1_Atmega128rfa1_Gcc.a(zdo.o)
 .text.permitJoin
                0x0000f59e       0x24 ./../../../../../../Atmel_lib/BitCloud_MEGARF_1_14_0/BitCloud/lib/libBc_Coordinator_Atmega128rfa1_Atmega128rfa1_Gcc.a(zdo.o)
 .text.zdoStartNetworkConfirm
                0x0000f5c2       0x24 ./../../../../../../Atmel_lib/BitCloud_MEGARF_1_14_0/BitCloud/lib/libBc_Coordinator_Atmega128rfa1_Atmega128rfa1_Gcc.a(zdo.o)
 .text.deviceAnnceConf
                0x0000f5e6        0x8 ./../../../../../../Atmel_lib/BitCloud_MEGARF_1_14_0/BitCloud/lib/libBc_Coordinator_Atmega128rfa1_Atmega128rfa1_Gcc.a(zdo.o)
 .text.reenterNetwork
                0x0000f5ee       0x38 ./../../../../../../Atmel_lib/BitCloud_MEGARF_1_14_0/BitCloud/lib/libBc_Coordinator_Atmega128rfa1_Atmega128rfa1_Gcc.a(zdo.o)
 .text.zdoNetworkFormationReq
                0x0000f626       0x44 ./../../../../../../Atmel_lib/BitCloud_MEGARF_1_14_0/BitCloud/lib/libBc_Coordinator_Atmega128rfa1_Atmega128rfa1_Gcc.a(zdo.o)
 .text.zdoLeaveConfirm
                0x0000f66a       0x74 ./../../../../../../Atmel_lib/BitCloud_MEGARF_1_14_0/BitCloud/lib/libBc_Coordinator_Atmega128rfa1_Atmega128rfa1_Gcc.a(zdo.o)
 .text.wakeupCallback
                0x0000f6de       0x2e ./../../../../../../Atmel_lib/BitCloud_MEGARF_1_14_0/BitCloud/lib/libBc_Coordinator_Atmega128rfa1_Atmega128rfa1_Gcc.a(zdo.o)
 .text.zdoPowerManagerHandler
                0x0000f70c       0xae ./../../../../../../Atmel_lib/BitCloud_MEGARF_1_14_0/BitCloud/lib/libBc_Coordinator_Atmega128rfa1_Atmega128rfa1_Gcc.a(zdo.o)
 .text.transceiverSwitchedOff
                0x0000f7ba       0x5a ./../../../../../../Atmel_lib/BitCloud_MEGARF_1_14_0/BitCloud/lib/libBc_Coordinator_Atmega128rfa1_Atmega128rfa1_Gcc.a(zdo.o)
 .text.transceiverSwitchedOn
                0x0000f814       0x3a ./../../../../../../Atmel_lib/BitCloud_MEGARF_1_14_0/BitCloud/lib/libBc_Coordinator_Atmega128rfa1_Atmega128rfa1_Gcc.a(zdo.o)
 .text.zdoZdpManagerHandler
                0x0000f84e      0x1d6 ./../../../../../../Atmel_lib/BitCloud_MEGARF_1_14_0/BitCloud/lib/libBc_Coordinator_Atmega128rfa1_Atmega128rfa1_Gcc.a(zdo.o)
 .text.zdoNwkEventListener
                0x0000fa24       0x6e ./../../../../../../Atmel_lib/BitCloud_MEGARF_1_14_0/BitCloud/lib/libBc_Coordinator_Atmega128rfa1_Atmega128rfa1_Gcc.a(zdo.o)
 .text.zdoOtherEventListener
                0x0000fa92       0x34 ./../../../../../../Atmel_lib/BitCloud_MEGARF_1_14_0/BitCloud/lib/libBc_Coordinator_Atmega128rfa1_Atmega128rfa1_Gcc.a(zdo.o)
 .text.confirmMgmtLeaveResponse
                0x0000fac6      0x10a ./../../../../../../Atmel_lib/BitCloud_MEGARF_1_14_0/BitCloud/lib/libBc_Coordinator_Atmega128rfa1_Atmega128rfa1_Gcc.a(zdo.o)
 .text.zdoSetOutOfNetworkFlag
                0x0000fbd0       0x36 ./../../../../../../Atmel_lib/BitCloud_MEGARF_1_14_0/BitCloud/lib/libBc_Coordinator_Atmega128rfa1_Atmega128rfa1_Gcc.a(zdo.o)
 .text.leaveNetworkInd
                0x0000fc06       0x24 ./../../../../../../Atmel_lib/BitCloud_MEGARF_1_14_0/BitCloud/lib/libBc_Coordinator_Atmega128rfa1_Atmega128rfa1_Gcc.a(zdo.o)
 .text.zdoLeaveNetworkNwkLeaveConf
                0x0000fc2a        0xe ./../../../../../../Atmel_lib/BitCloud_MEGARF_1_14_0/BitCloud/lib/libBc_Coordinator_Atmega128rfa1_Atmega128rfa1_Gcc.a(zdo.o)
 .text.zdoExecuteEDScan
                0x0000fc38       0x36 ./../../../../../../Atmel_lib/BitCloud_MEGARF_1_14_0/BitCloud/lib/libBc_Coordinator_Atmega128rfa1_Atmega128rfa1_Gcc.a(zdo.o)
 .text.confirmMgmtNwkUpdateNotify
                0x0000fc6e       0x2e ./../../../../../../Atmel_lib/BitCloud_MEGARF_1_14_0/BitCloud/lib/libBc_Coordinator_Atmega128rfa1_Atmega128rfa1_Gcc.a(zdo.o)
 .text.channelChangeTimerFired
                0x0000fc9c       0x22 ./../../../../../../Atmel_lib/BitCloud_MEGARF_1_14_0/BitCloud/lib/libBc_Coordinator_Atmega128rfa1_Atmega128rfa1_Gcc.a(zdo.o)
 .text.MAC_SetConf
                0x0000fcbe       0x7e ./../../../../../../Atmel_lib/BitCloud_MEGARF_1_14_0/BitCloud/lib/libBc_Coordinator_Atmega128rfa1_Atmega128rfa1_Gcc.a(zdo.o)
 .text.zdoChildEventListener
                0x0000fd3c       0xa8 ./../../../../../../Atmel_lib/BitCloud_MEGARF_1_14_0/BitCloud/lib/libBc_Coordinator_Atmega128rfa1_Atmega128rfa1_Gcc.a(zdo.o)
 .text.zdoInitNotifications
                0x0000fde4       0x6e ./../../../../../../Atmel_lib/BitCloud_MEGARF_1_14_0/BitCloud/lib/libBc_Coordinator_Atmega128rfa1_Atmega128rfa1_Gcc.a(zdo.o)
                0x0000fde4                zdoInitNotifications
 .text.zdoInitHandler
                0x0000fe52      0x10e ./../../../../../../Atmel_lib/BitCloud_MEGARF_1_14_0/BitCloud/lib/libBc_Coordinator_Atmega128rfa1_Atmega128rfa1_Gcc.a(zdo.o)
 .text.NWK_JoinInd
                0x0000ff60       0x4e ./../../../../../../Atmel_lib/BitCloud_MEGARF_1_14_0/BitCloud/lib/libBc_Coordinator_Atmega128rfa1_Atmega128rfa1_Gcc.a(zdo.o)
                0x0000ff60                NWK_JoinInd
 .text.NWK_LeaveInd
                0x0000ffae       0x86 ./../../../../../../Atmel_lib/BitCloud_MEGARF_1_14_0/BitCloud/lib/libBc_Coordinator_Atmega128rfa1_Atmega128rfa1_Gcc.a(zdo.o)
                0x0000ffae                NWK_LeaveInd
 .text.ZDO_GetLqiRssi
                0x00010034       0x36 ./../../../../../../Atmel_lib/BitCloud_MEGARF_1_14_0/BitCloud/lib/libBc_Coordinator_Atmega128rfa1_Atmega128rfa1_Gcc.a(zdo.o)
                0x00010034                ZDO_GetLqiRssi
 .text.ZDO_StartNetworkReq
                0x0001006a       0x10 ./../../../../../../Atmel_lib/BitCloud_MEGARF_1_14_0/BitCloud/lib/libBc_Coordinator_Atmega128rfa1_Atmega128rfa1_Gcc.a(zdo.o)
                0x0001006a                ZDO_StartNetworkReq
 .text.ZDO_TaskHandler
                0x0001007a       0x7c ./../../../../../../Atmel_lib/BitCloud_MEGARF_1_14_0/BitCloud/lib/libBc_Coordinator_Atmega128rfa1_Atmega128rfa1_Gcc.a(zdo.o)
                0x0001007a                ZDO_TaskHandler
 .text.APS_ZdoDataInd
                0x000100f6      0x160 ./../../../../../../Atmel_lib/BitCloud_MEGARF_1_14_0/BitCloud/lib/libBc_Coordinator_Atmega128rfa1_Atmega128rfa1_Gcc.a(zdo.o)
                0x000100f6                APS_ZdoDataInd
 .text.ZDO_ZdpReq
                0x00010256       0x64 ./../../../../../../Atmel_lib/BitCloud_MEGARF_1_14_0/BitCloud/lib/libBc_Coordinator_Atmega128rfa1_Atmega128rfa1_Gcc.a(zdo.o)
                0x00010256                ZDO_ZdpReq
 .text.zdoSendDeviceAnnce
                0x000102ba       0xa0 ./../../../../../../Atmel_lib/BitCloud_MEGARF_1_14_0/BitCloud/lib/libBc_Coordinator_Atmega128rfa1_Atmega128rfa1_Gcc.a(zdo.o)
 .text.APS_StartConf
                0x0001035a       0x2a ./../../../../../../Atmel_lib/BitCloud_MEGARF_1_14_0/BitCloud/lib/libBc_Coordinator_Atmega128rfa1_Atmega128rfa1_Gcc.a(zdo.o)
 .text.NWK_PermitJoinConf
                0x00010384       0x48 ./../../../../../../Atmel_lib/BitCloud_MEGARF_1_14_0/BitCloud/lib/libBc_Coordinator_Atmega128rfa1_Atmega128rfa1_Gcc.a(zdo.o)
 .text.zdoSendDeviceAnnceConf
                0x000103cc       0x34 ./../../../../../../Atmel_lib/BitCloud_MEGARF_1_14_0/BitCloud/lib/libBc_Coordinator_Atmega128rfa1_Atmega128rfa1_Gcc.a(zdo.o)
 .text.sendNwkUpdateNotify
                0x00010400       0x3e ./../../../../../../Atmel_lib/BitCloud_MEGARF_1_14_0/BitCloud/lib/libBc_Coordinator_Atmega128rfa1_Atmega128rfa1_Gcc.a(zdo.o)
 .text.zdoZdpFrameProcessorHandler
                0x0001043e     0x1500 ./../../../../../../Atmel_lib/BitCloud_MEGARF_1_14_0/BitCloud/lib/libBc_Coordinator_Atmega128rfa1_Atmega128rfa1_Gcc.a(zdo.o)
 .text.edScanConf
                0x0001193e       0x10 ./../../../../../../Atmel_lib/BitCloud_MEGARF_1_14_0/BitCloud/lib/libBc_Coordinator_Atmega128rfa1_Atmega128rfa1_Gcc.a(zdo.o)
 .text.zdoReloadZibFromConfigServer
                0x0001194e      0x144 ./../../../../../../Atmel_lib/BitCloud_MEGARF_1_14_0/BitCloud/lib/libBc_Coordinator_Atmega128rfa1_Atmega128rfa1_Gcc.a(zdo.o)
                0x0001194e                zdoReloadZibFromConfigServer
 .text.zdoStartNetworkTaskHandler
                0x00011a92      0x110 ./../../../../../../Atmel_lib/BitCloud_MEGARF_1_14_0/BitCloud/lib/libBc_Coordinator_Atmega128rfa1_Atmega128rfa1_Gcc.a(zdo.o)
 .text.setNetworkParametersToZib
                0x00011ba2       0x48 ./../../../../../../Atmel_lib/BitCloud_MEGARF_1_14_0/BitCloud/lib/libBc_Coordinator_Atmega128rfa1_Atmega128rfa1_Gcc.a(zdo.o)
                0x00011ba2                setNetworkParametersToZib
 .text.zdoStartNetworkStackResetConf
                0x00011bea       0x3c ./../../../../../../Atmel_lib/BitCloud_MEGARF_1_14_0/BitCloud/lib/libBc_Coordinator_Atmega128rfa1_Atmega128rfa1_Gcc.a(zdo.o)
 .text.NWK_NetworkFormationConf
                0x00011c26       0x18 ./../../../../../../Atmel_lib/BitCloud_MEGARF_1_14_0/BitCloud/lib/libBc_Coordinator_Atmega128rfa1_Atmega128rfa1_Gcc.a(zdo.o)
 .text.SYS_Sleep
                0x00011c3e        0x6 ./../../../../../../Atmel_lib/BitCloud_MEGARF_1_14_0/BitCloud/lib/libBc_Coordinator_Atmega128rfa1_Atmega128rfa1_Gcc.a(bcSysSleep.o)
                0x00011c3e                SYS_Sleep
 .text.postNewMacRequest
                0x00011c44       0x46 ./../../../../../../Atmel_lib/BitCloud_MEGARF_1_14_0/BitCloud/lib/libBc_Coordinator_Atmega128rfa1_Atmega128rfa1_Gcc.a(machwdManager.o)
 .text.putReqInQueue
                0x00011c8a       0x18 ./../../../../../../Atmel_lib/BitCloud_MEGARF_1_14_0/BitCloud/lib/libBc_Coordinator_Atmega128rfa1_Atmega128rfa1_Gcc.a(machwdManager.o)
 .text.MACHWD_DataReq
                0x00011ca2        0xa ./../../../../../../Atmel_lib/BitCloud_MEGARF_1_14_0/BitCloud/lib/libBc_Coordinator_Atmega128rfa1_Atmega128rfa1_Gcc.a(machwdManager.o)
                0x00011ca2                MACHWD_DataReq
 .text.MACHWD_SetTrxStateReq
                0x00011cac        0xc ./../../../../../../Atmel_lib/BitCloud_MEGARF_1_14_0/BitCloud/lib/libBc_Coordinator_Atmega128rfa1_Atmega128rfa1_Gcc.a(machwdManager.o)
                0x00011cac                MACHWD_SetTrxStateReq
 .text.MACHWD_SetReq
                0x00011cb8        0xc ./../../../../../../Atmel_lib/BitCloud_MEGARF_1_14_0/BitCloud/lib/libBc_Coordinator_Atmega128rfa1_Atmega128rfa1_Gcc.a(machwdManager.o)
                0x00011cb8                MACHWD_SetReq
 .text.MACHWD_EdReq
                0x00011cc4        0xc ./../../../../../../Atmel_lib/BitCloud_MEGARF_1_14_0/BitCloud/lib/libBc_Coordinator_Atmega128rfa1_Atmega128rfa1_Gcc.a(machwdManager.o)
                0x00011cc4                MACHWD_EdReq
 .text.RF_RandomReq
                0x00011cd0       0x14 ./../../../../../../Atmel_lib/BitCloud_MEGARF_1_14_0/BitCloud/lib/libBc_Coordinator_Atmega128rfa1_Atmega128rfa1_Gcc.a(machwdManager.o)
                0x00011cd0                RF_RandomReq
 .text.MACHWD_Reset
                0x00011ce4       0x46 ./../../../../../../Atmel_lib/BitCloud_MEGARF_1_14_0/BitCloud/lib/libBc_Coordinator_Atmega128rfa1_Atmega128rfa1_Gcc.a(machwdManager.o)
                0x00011ce4                MACHWD_Reset
 .text.MAC_PHY_HWD_TaskHandler
                0x00011d2a      0x1b0 ./../../../../../../Atmel_lib/BitCloud_MEGARF_1_14_0/BitCloud/lib/libBc_Coordinator_Atmega128rfa1_Atmega128rfa1_Gcc.a(machwdManager.o)
                0x00011d2a                MAC_PHY_HWD_TaskHandler
 .text.machwdRegAccessReqHandler
                0x00011eda       0x66 ./../../../../../../Atmel_lib/BitCloud_MEGARF_1_14_0/BitCloud/lib/libBc_Coordinator_Atmega128rfa1_Atmega128rfa1_Gcc.a(machwdRegAccessHandler.o)
                0x00011eda                machwdRegAccessReqHandler
 .text.machwdRegAccessTaskHandler
                0x00011f40       0x48 ./../../../../../../Atmel_lib/BitCloud_MEGARF_1_14_0/BitCloud/lib/libBc_Coordinator_Atmega128rfa1_Atmega128rfa1_Gcc.a(machwdRegAccessHandler.o)
                0x00011f40                machwdRegAccessTaskHandler
 .text.machwdReset
                0x00011f88       0xc6 ./../../../../../../Atmel_lib/BitCloud_MEGARF_1_14_0/BitCloud/lib/libBc_Coordinator_Atmega128rfa1_Atmega128rfa1_Gcc.a(machwdResetHandler.o)
                0x00011f88                machwdReset
 .text.machwdRndReqHandler
                0x0001204e       0x3a ./../../../../../../Atmel_lib/BitCloud_MEGARF_1_14_0/BitCloud/lib/libBc_Coordinator_Atmega128rfa1_Atmega128rfa1_Gcc.a(machwdRndHandler.o)
                0x0001204e                machwdRndReqHandler
 .text.machwdRndTaskHandler
                0x00012088       0x32 ./../../../../../../Atmel_lib/BitCloud_MEGARF_1_14_0/BitCloud/lib/libBc_Coordinator_Atmega128rfa1_Atmega128rfa1_Gcc.a(machwdRndHandler.o)
                0x00012088                machwdRndTaskHandler
 .text.machwdResetRndHandler
                0x000120ba        0x6 ./../../../../../../Atmel_lib/BitCloud_MEGARF_1_14_0/BitCloud/lib/libBc_Coordinator_Atmega128rfa1_Atmega128rfa1_Gcc.a(machwdRndHandler.o)
                0x000120ba                machwdResetRndHandler
 .text.machwdResetRxBuffer
                0x000120c0       0x62 ./../../../../../../Atmel_lib/BitCloud_MEGARF_1_14_0/BitCloud/lib/libBc_Coordinator_Atmega128rfa1_Atmega128rfa1_Gcc.a(machwdRxBuffer.o)
                0x000120c0                machwdResetRxBuffer
 .text.machwdNextBuffer
                0x00012122       0x10 ./../../../../../../Atmel_lib/BitCloud_MEGARF_1_14_0/BitCloud/lib/libBc_Coordinator_Atmega128rfa1_Atmega128rfa1_Gcc.a(machwdRxBuffer.o)
                0x00012122                machwdNextBuffer
 .text.machwdReleaseBuffer
                0x00012132       0x62 ./../../../../../../Atmel_lib/BitCloud_MEGARF_1_14_0/BitCloud/lib/libBc_Coordinator_Atmega128rfa1_Atmega128rfa1_Gcc.a(machwdRxBuffer.o)
                0x00012132                machwdReleaseBuffer
 .text.machwdNextBufferPresent
                0x00012194       0x26 ./../../../../../../Atmel_lib/BitCloud_MEGARF_1_14_0/BitCloud/lib/libBc_Coordinator_Atmega128rfa1_Atmega128rfa1_Gcc.a(machwdRxBuffer.o)
                0x00012194                machwdNextBufferPresent
 .text.machwdRxFrameTaskHandler
                0x000121ba       0x46 ./../../../../../../Atmel_lib/BitCloud_MEGARF_1_14_0/BitCloud/lib/libBc_Coordinator_Atmega128rfa1_Atmega128rfa1_Gcc.a(machwdRxFrameHandler.o)
                0x000121ba                machwdRxFrameTaskHandler
 .text.machwdRxFrameIndTaskHandler
                0x00012200       0xa2 ./../../../../../../Atmel_lib/BitCloud_MEGARF_1_14_0/BitCloud/lib/libBc_Coordinator_Atmega128rfa1_Atmega128rfa1_Gcc.a(machwdRxFrameHandler.o)
                0x00012200                machwdRxFrameIndTaskHandler
 .text.executePhySetReq
                0x000122a2       0x32 ./../../../../../../Atmel_lib/BitCloud_MEGARF_1_14_0/BitCloud/lib/libBc_Coordinator_Atmega128rfa1_Atmega128rfa1_Gcc.a(machwdSetHandler.o)
 .text.executeSetReq
                0x000122d4       0x5c ./../../../../../../Atmel_lib/BitCloud_MEGARF_1_14_0/BitCloud/lib/libBc_Coordinator_Atmega128rfa1_Atmega128rfa1_Gcc.a(machwdSetHandler.o)
 .text.machwdSetReqHandler
                0x00012330       0xba ./../../../../../../Atmel_lib/BitCloud_MEGARF_1_14_0/BitCloud/lib/libBc_Coordinator_Atmega128rfa1_Atmega128rfa1_Gcc.a(machwdSetHandler.o)
                0x00012330                machwdSetReqHandler
 .text.machwdSetTaskHandler
                0x000123ea       0x3a ./../../../../../../Atmel_lib/BitCloud_MEGARF_1_14_0/BitCloud/lib/libBc_Coordinator_Atmega128rfa1_Atmega128rfa1_Gcc.a(machwdSetHandler.o)
                0x000123ea                machwdSetTaskHandler
 .text.machwdResetSetHandler
                0x00012424        0xe ./../../../../../../Atmel_lib/BitCloud_MEGARF_1_14_0/BitCloud/lib/libBc_Coordinator_Atmega128rfa1_Atmega128rfa1_Gcc.a(machwdSetHandler.o)
                0x00012424                machwdResetSetHandler
 .text.machwdSendTrxCmd
                0x00012432       0x1c ./../../../../../../Atmel_lib/BitCloud_MEGARF_1_14_0/BitCloud/lib/libBc_Coordinator_Atmega128rfa1_Atmega128rfa1_Gcc.a(machwdTrxCtrl.o)
                0x00012432                machwdSendTrxCmd
 .text.machwdGetPhyTrxCmd
                0x0001244e       0x14 ./../../../../../../Atmel_lib/BitCloud_MEGARF_1_14_0/BitCloud/lib/libBc_Coordinator_Atmega128rfa1_Atmega128rfa1_Gcc.a(machwdTrxCtrl.o)
                0x0001244e                machwdGetPhyTrxCmd
 .text.machwdConvertTrxCmdToTrxState
                0x00012462       0x14 ./../../../../../../Atmel_lib/BitCloud_MEGARF_1_14_0/BitCloud/lib/libBc_Coordinator_Atmega128rfa1_Atmega128rfa1_Gcc.a(machwdTrxCtrl.o)
                0x00012462                machwdConvertTrxCmdToTrxState
 .text.machwdConvertTrxStateToTrxCmd
                0x00012476       0x16 ./../../../../../../Atmel_lib/BitCloud_MEGARF_1_14_0/BitCloud/lib/libBc_Coordinator_Atmega128rfa1_Atmega128rfa1_Gcc.a(machwdTrxCtrl.o)
                0x00012476                machwdConvertTrxStateToTrxCmd
 .text.machwdTrxReqHandler
                0x0001248c       0x40 ./../../../../../../Atmel_lib/BitCloud_MEGARF_1_14_0/BitCloud/lib/libBc_Coordinator_Atmega128rfa1_Atmega128rfa1_Gcc.a(machwdTrxHandler.o)
                0x0001248c                machwdTrxReqHandler
 .text.machwdTrxTaskHandler
                0x000124cc       0x40 ./../../../../../../Atmel_lib/BitCloud_MEGARF_1_14_0/BitCloud/lib/libBc_Coordinator_Atmega128rfa1_Atmega128rfa1_Gcc.a(machwdTrxHandler.o)
                0x000124cc                machwdTrxTaskHandler
 .text.machwdResetTrxHandler
                0x0001250c        0x6 ./../../../../../../Atmel_lib/BitCloud_MEGARF_1_14_0/BitCloud/lib/libBc_Coordinator_Atmega128rfa1_Atmega128rfa1_Gcc.a(machwdTrxHandler.o)
                0x0001250c                machwdResetTrxHandler
 .text.executeDataReq
                0x00012512       0x28 ./../../../../../../Atmel_lib/BitCloud_MEGARF_1_14_0/BitCloud/lib/libBc_Coordinator_Atmega128rfa1_Atmega128rfa1_Gcc.a(machwdTxFrameHandler.o)
 .text.machwdTxFrameReqHandler
                0x0001253a       0x44 ./../../../../../../Atmel_lib/BitCloud_MEGARF_1_14_0/BitCloud/lib/libBc_Coordinator_Atmega128rfa1_Atmega128rfa1_Gcc.a(machwdTxFrameHandler.o)
                0x0001253a                machwdTxFrameReqHandler
 .text.machwdTxFrameTaskHandler
                0x0001257e       0x3a ./../../../../../../Atmel_lib/BitCloud_MEGARF_1_14_0/BitCloud/lib/libBc_Coordinator_Atmega128rfa1_Atmega128rfa1_Gcc.a(machwdTxFrameHandler.o)
                0x0001257e                machwdTxFrameTaskHandler
 .text.machwdResetTxFrameHandler
                0x000125b8        0xa ./../../../../../../Atmel_lib/BitCloud_MEGARF_1_14_0/BitCloud/lib/libBc_Coordinator_Atmega128rfa1_Atmega128rfa1_Gcc.a(machwdTxFrameHandler.o)
                0x000125b8                machwdResetTxFrameHandler
 .text.postponeAction
                0x000125c2       0x2c ./../../../../../../Atmel_lib/BitCloud_MEGARF_1_14_0/BitCloud/lib/libBc_Coordinator_Atmega128rfa1_Atmega128rfa1_Gcc.a(machwiManager.o)
 .text.putReqInQueue
                0x000125ee       0x2c ./../../../../../../Atmel_lib/BitCloud_MEGARF_1_14_0/BitCloud/lib/libBc_Coordinator_Atmega128rfa1_Atmega128rfa1_Gcc.a(machwiManager.o)
 .text.machwiSendConfToUpperLayer
                0x0001261a       0xf2 ./../../../../../../Atmel_lib/BitCloud_MEGARF_1_14_0/BitCloud/lib/libBc_Coordinator_Atmega128rfa1_Atmega128rfa1_Gcc.a(machwiManager.o)
                0x0001261a                machwiSendConfToUpperLayer
 .text.MAC_HWI_TaskHandler
                0x0001270c       0xd8 ./../../../../../../Atmel_lib/BitCloud_MEGARF_1_14_0/BitCloud/lib/libBc_Coordinator_Atmega128rfa1_Atmega128rfa1_Gcc.a(machwiManager.o)
                0x0001270c                MAC_HWI_TaskHandler
 .text.MAC_AssociateResp
                0x000127e4        0xc ./../../../../../../Atmel_lib/BitCloud_MEGARF_1_14_0/BitCloud/lib/libBc_Coordinator_Atmega128rfa1_Atmega128rfa1_Gcc.a(machwiManager.o)
                0x000127e4                MAC_AssociateResp
 .text.MAC_ResetReq
                0x000127f0       0x58 ./../../../../../../Atmel_lib/BitCloud_MEGARF_1_14_0/BitCloud/lib/libBc_Coordinator_Atmega128rfa1_Atmega128rfa1_Gcc.a(machwiManager.o)
                0x000127f0                MAC_ResetReq
 .text.MAC_RxEnableReq
                0x00012848        0xc ./../../../../../../Atmel_lib/BitCloud_MEGARF_1_14_0/BitCloud/lib/libBc_Coordinator_Atmega128rfa1_Atmega128rfa1_Gcc.a(machwiManager.o)
                0x00012848                MAC_RxEnableReq
 .text.MAC_ScanReq
                0x00012854        0xc ./../../../../../../Atmel_lib/BitCloud_MEGARF_1_14_0/BitCloud/lib/libBc_Coordinator_Atmega128rfa1_Atmega128rfa1_Gcc.a(machwiManager.o)
                0x00012854                MAC_ScanReq
 .text.MAC_SetReq
                0x00012860        0xc ./../../../../../../Atmel_lib/BitCloud_MEGARF_1_14_0/BitCloud/lib/libBc_Coordinator_Atmega128rfa1_Atmega128rfa1_Gcc.a(machwiManager.o)
                0x00012860                MAC_SetReq
 .text.MAC_StartReq
                0x0001286c        0xc ./../../../../../../Atmel_lib/BitCloud_MEGARF_1_14_0/BitCloud/lib/libBc_Coordinator_Atmega128rfa1_Atmega128rfa1_Gcc.a(machwiManager.o)
                0x0001286c                MAC_StartReq
 .text.MAC_DataReq
                0x00012878        0xc ./../../../../../../Atmel_lib/BitCloud_MEGARF_1_14_0/BitCloud/lib/libBc_Coordinator_Atmega128rfa1_Atmega128rfa1_Gcc.a(machwiManager.o)
                0x00012878                MAC_DataReq
 .text.machwiSendAssociateInd
                0x00012884        0xe ./../../../../../../Atmel_lib/BitCloud_MEGARF_1_14_0/BitCloud/lib/libBc_Coordinator_Atmega128rfa1_Atmega128rfa1_Gcc.a(machwiManager.o)
                0x00012884                machwiSendAssociateInd
 .text.machwiSendDataInd
                0x00012892        0xe ./../../../../../../Atmel_lib/BitCloud_MEGARF_1_14_0/BitCloud/lib/libBc_Coordinator_Atmega128rfa1_Atmega128rfa1_Gcc.a(machwiManager.o)
                0x00012892                machwiSendDataInd
 .text.machwiSendBeaconNotifyInd
                0x000128a0        0xe ./../../../../../../Atmel_lib/BitCloud_MEGARF_1_14_0/BitCloud/lib/libBc_Coordinator_Atmega128rfa1_Atmega128rfa1_Gcc.a(machwiManager.o)
                0x000128a0                machwiSendBeaconNotifyInd
 .text.machwiSendSyncLossNotifyInd
                0x000128ae        0xe ./../../../../../../Atmel_lib/BitCloud_MEGARF_1_14_0/BitCloud/lib/libBc_Coordinator_Atmega128rfa1_Atmega128rfa1_Gcc.a(machwiManager.o)
                0x000128ae                machwiSendSyncLossNotifyInd
 .text.machwiSendOrphanInd
                0x000128bc        0xe ./../../../../../../Atmel_lib/BitCloud_MEGARF_1_14_0/BitCloud/lib/libBc_Coordinator_Atmega128rfa1_Atmega128rfa1_Gcc.a(machwiManager.o)
                0x000128bc                machwiSendOrphanInd
 .text.machwiSendPollInd
                0x000128ca        0xe ./../../../../../../Atmel_lib/BitCloud_MEGARF_1_14_0/BitCloud/lib/libBc_Coordinator_Atmega128rfa1_Atmega128rfa1_Gcc.a(machwiManager.o)
                0x000128ca                machwiSendPollInd
 .text.machwiTxTransactionReq
                0x000128d8        0x8 ./../../../../../../Atmel_lib/BitCloud_MEGARF_1_14_0/BitCloud/lib/libBc_Coordinator_Atmega128rfa1_Atmega128rfa1_Gcc.a(machwiManager.o)
                0x000128d8                machwiTxTransactionReq
 .text.machwiTxBeaconReq
                0x000128e0        0x8 ./../../../../../../Atmel_lib/BitCloud_MEGARF_1_14_0/BitCloud/lib/libBc_Coordinator_Atmega128rfa1_Atmega128rfa1_Gcc.a(machwiManager.o)
                0x000128e0                machwiTxBeaconReq
 .text.MAC_IsActiveTransaction
                0x000128e8       0x18 ./../../../../../../Atmel_lib/BitCloud_MEGARF_1_14_0/BitCloud/lib/libBc_Coordinator_Atmega128rfa1_Atmega128rfa1_Gcc.a(machwiManager.o)
                0x000128e8                MAC_IsActiveTransaction
 .text.machwdDataConfirm
                0x00012900       0x22 ./../../../../../../Atmel_lib/BitCloud_MEGARF_1_14_0/BitCloud/lib/libBc_Coordinator_Atmega128rfa1_Atmega128rfa1_Gcc.a(machwiOrphanHandler.o)
 .text.machwiOrphanRespHandler
                0x00012922      0x18e ./../../../../../../Atmel_lib/BitCloud_MEGARF_1_14_0/BitCloud/lib/libBc_Coordinator_Atmega128rfa1_Atmega128rfa1_Gcc.a(machwiOrphanHandler.o)
                0x00012922                machwiOrphanRespHandler
 .text.machwiOrphanNotificationInd
                0x00012ab0       0x44 ./../../../../../../Atmel_lib/BitCloud_MEGARF_1_14_0/BitCloud/lib/libBc_Coordinator_Atmega128rfa1_Atmega128rfa1_Gcc.a(machwiOrphanHandler.o)
                0x00012ab0                machwiOrphanNotificationInd
 .text.MACHWD_DataInd
                0x00012af4       0x7a ./../../../../../../Atmel_lib/BitCloud_MEGARF_1_14_0/BitCloud/lib/libBc_Coordinator_Atmega128rfa1_Atmega128rfa1_Gcc.a(machwiPanServer.o)
                0x00012af4                MACHWD_DataInd
 .text.machwiEnableBeaconTransmission
                0x00012b6e        0x8 ./../../../../../../Atmel_lib/BitCloud_MEGARF_1_14_0/BitCloud/lib/libBc_Coordinator_Atmega128rfa1_Atmega128rfa1_Gcc.a(machwiPanServer.o)
                0x00012b6e                machwiEnableBeaconTransmission
 .text.machwiResetPanServer
                0x00012b76        0x6 ./../../../../../../Atmel_lib/BitCloud_MEGARF_1_14_0/BitCloud/lib/libBc_Coordinator_Atmega128rfa1_Atmega128rfa1_Gcc.a(machwiPanServer.o)
                0x00012b76                machwiResetPanServer
 .text.switchingCompleted
                0x00012b7c       0x12 ./../../../../../../Atmel_lib/BitCloud_MEGARF_1_14_0/BitCloud/lib/libBc_Coordinator_Atmega128rfa1_Atmega128rfa1_Gcc.a(machwiPollHandler.o)
 .text.completeHandling
                0x00012b8e       0x18 ./../../../../../../Atmel_lib/BitCloud_MEGARF_1_14_0/BitCloud/lib/libBc_Coordinator_Atmega128rfa1_Atmega128rfa1_Gcc.a(machwiPollHandler.o)
 .text.machwdDataConfirm
                0x00012ba6       0x6e ./../../../../../../Atmel_lib/BitCloud_MEGARF_1_14_0/BitCloud/lib/libBc_Coordinator_Atmega128rfa1_Atmega128rfa1_Gcc.a(machwiPollHandler.o)
 .text.halPollTimerFired
                0x00012c14        0x6 ./../../../../../../Atmel_lib/BitCloud_MEGARF_1_14_0/BitCloud/lib/libBc_Coordinator_Atmega128rfa1_Atmega128rfa1_Gcc.a(machwiPollHandler.o)
 .text.machwiResetPollHandler
                0x00012c1a        0x6 ./../../../../../../Atmel_lib/BitCloud_MEGARF_1_14_0/BitCloud/lib/libBc_Coordinator_Atmega128rfa1_Atmega128rfa1_Gcc.a(machwiPollHandler.o)
                0x00012c1a                machwiResetPollHandler
 .text.machwiPollInd
                0x00012c20       0x5a ./../../../../../../Atmel_lib/BitCloud_MEGARF_1_14_0/BitCloud/lib/libBc_Coordinator_Atmega128rfa1_Atmega128rfa1_Gcc.a(machwiPollHandler.o)
                0x00012c20                machwiPollInd
 .text.machwiDataIndication
                0x00012c7a      0x1cc ./../../../../../../Atmel_lib/BitCloud_MEGARF_1_14_0/BitCloud/lib/libBc_Coordinator_Atmega128rfa1_Atmega128rfa1_Gcc.a(machwiPollHandler.o)
                0x00012c7a                machwiDataIndication
 .text.machwiPollReqHandler
                0x00012e46      0x15c ./../../../../../../Atmel_lib/BitCloud_MEGARF_1_14_0/BitCloud/lib/libBc_Coordinator_Atmega128rfa1_Atmega128rfa1_Gcc.a(machwiPollHandler.o)
                0x00012e46                machwiPollReqHandler
 .text.machwiPurgeReqHandler
                0x00012fa2       0x2e ./../../../../../../Atmel_lib/BitCloud_MEGARF_1_14_0/BitCloud/lib/libBc_Coordinator_Atmega128rfa1_Atmega128rfa1_Gcc.a(machwiPurgeHandler.o)
                0x00012fa2                machwiPurgeReqHandler
 .text.finishResetOperationsAndGenerateConfirm
                0x00012fd0        0xe ./../../../../../../Atmel_lib/BitCloud_MEGARF_1_14_0/BitCloud/lib/libBc_Coordinator_Atmega128rfa1_Atmega128rfa1_Gcc.a(machwiResetHandler.o)
 .text.machwdSetTrxStateConfirm
                0x00012fde        0x6 ./../../../../../../Atmel_lib/BitCloud_MEGARF_1_14_0/BitCloud/lib/libBc_Coordinator_Atmega128rfa1_Atmega128rfa1_Gcc.a(machwiResetHandler.o)
 .text.machwdSetConfirm
                0x00012fe4       0x1c ./../../../../../../Atmel_lib/BitCloud_MEGARF_1_14_0/BitCloud/lib/libBc_Coordinator_Atmega128rfa1_Atmega128rfa1_Gcc.a(machwiResetHandler.o)
 .text.machwiResetReqHandler
                0x00013000       0x72 ./../../../../../../Atmel_lib/BitCloud_MEGARF_1_14_0/BitCloud/lib/libBc_Coordinator_Atmega128rfa1_Atmega128rfa1_Gcc.a(machwiResetHandler.o)
                0x00013000                machwiResetReqHandler
 .text.machwdSetTrxStateConfirm
                0x00013072       0x12 ./../../../../../../Atmel_lib/BitCloud_MEGARF_1_14_0/BitCloud/lib/libBc_Coordinator_Atmega128rfa1_Atmega128rfa1_Gcc.a(machwiRxEnableHandler.o)
 .text.machwiRxEnableReqHandler
                0x00013084       0x3a ./../../../../../../Atmel_lib/BitCloud_MEGARF_1_14_0/BitCloud/lib/libBc_Coordinator_Atmega128rfa1_Atmega128rfa1_Gcc.a(machwiRxEnableHandler.o)
                0x00013084                machwiRxEnableReqHandler
 .text.setNextChannel
                0x000130be       0x7a ./../../../../../../Atmel_lib/BitCloud_MEGARF_1_14_0/BitCloud/lib/libBc_Coordinator_Atmega128rfa1_Atmega128rfa1_Gcc.a(machwiScanHandler.o)
 .text.switchToActiveChannel
                0x00013138       0x2c ./../../../../../../Atmel_lib/BitCloud_MEGARF_1_14_0/BitCloud/lib/libBc_Coordinator_Atmega128rfa1_Atmega128rfa1_Gcc.a(machwiScanHandler.o)
 .text.halScanTimerFired
                0x00013164       0x2a ./../../../../../../Atmel_lib/BitCloud_MEGARF_1_14_0/BitCloud/lib/libBc_Coordinator_Atmega128rfa1_Atmega128rfa1_Gcc.a(machwiScanHandler.o)
 .text.machwdDataConfirm
                0x0001318e       0x76 ./../../../../../../Atmel_lib/BitCloud_MEGARF_1_14_0/BitCloud/lib/libBc_Coordinator_Atmega128rfa1_Atmega128rfa1_Gcc.a(machwiScanHandler.o)
 .text.machwdEdConfirm
                0x00013204       0xf0 ./../../../../../../Atmel_lib/BitCloud_MEGARF_1_14_0/BitCloud/lib/libBc_Coordinator_Atmega128rfa1_Atmega128rfa1_Gcc.a(machwiScanHandler.o)
 .text.trxStateHandling
                0x000132f4       0x1a ./../../../../../../Atmel_lib/BitCloud_MEGARF_1_14_0/BitCloud/lib/libBc_Coordinator_Atmega128rfa1_Atmega128rfa1_Gcc.a(machwiScanHandler.o)
 .text.finishScan
                0x0001330e        0xe ./../../../../../../Atmel_lib/BitCloud_MEGARF_1_14_0/BitCloud/lib/libBc_Coordinator_Atmega128rfa1_Atmega128rfa1_Gcc.a(machwiScanHandler.o)
 .text.generateScanConfirm
                0x0001331c       0x12 ./../../../../../../Atmel_lib/BitCloud_MEGARF_1_14_0/BitCloud/lib/libBc_Coordinator_Atmega128rfa1_Atmega128rfa1_Gcc.a(machwiScanHandler.o)
 .text.machwdSetConfirm
                0x0001332e      0x2ea ./../../../../../../Atmel_lib/BitCloud_MEGARF_1_14_0/BitCloud/lib/libBc_Coordinator_Atmega128rfa1_Atmega128rfa1_Gcc.a(machwiScanHandler.o)
 .text.machwdSetTrxStateConfirm
                0x00013618       0xf2 ./../../../../../../Atmel_lib/BitCloud_MEGARF_1_14_0/BitCloud/lib/libBc_Coordinator_Atmega128rfa1_Atmega128rfa1_Gcc.a(machwiScanHandler.o)
 .text.machwiScanReqHandler
                0x0001370a      0x1a0 ./../../../../../../Atmel_lib/BitCloud_MEGARF_1_14_0/BitCloud/lib/libBc_Coordinator_Atmega128rfa1_Atmega128rfa1_Gcc.a(machwiScanHandler.o)
                0x0001370a                machwiScanReqHandler
 .text.machwiBeaconInd
                0x000138aa      0x2da ./../../../../../../Atmel_lib/BitCloud_MEGARF_1_14_0/BitCloud/lib/libBc_Coordinator_Atmega128rfa1_Atmega128rfa1_Gcc.a(machwiScanHandler.o)
                0x000138aa                machwiBeaconInd
 .text.machwiCoordRealignmentCommandInd
                0x00013b84       0xe6 ./../../../../../../Atmel_lib/BitCloud_MEGARF_1_14_0/BitCloud/lib/libBc_Coordinator_Atmega128rfa1_Atmega128rfa1_Gcc.a(machwiScanHandler.o)
                0x00013b84                machwiCoordRealignmentCommandInd
 .text.machwiResetScanHandler
                0x00013c6a        0x6 ./../../../../../../Atmel_lib/BitCloud_MEGARF_1_14_0/BitCloud/lib/libBc_Coordinator_Atmega128rfa1_Atmega128rfa1_Gcc.a(machwiScanHandler.o)
                0x00013c6a                machwiResetScanHandler
 .text.machwdSetConfirm
                0x00013c70        0xe ./../../../../../../Atmel_lib/BitCloud_MEGARF_1_14_0/BitCloud/lib/libBc_Coordinator_Atmega128rfa1_Atmega128rfa1_Gcc.a(machwiSetGetHandler.o)
 .text.machwiGetReqHandler
                0x00013c7e       0x4c ./../../../../../../Atmel_lib/BitCloud_MEGARF_1_14_0/BitCloud/lib/libBc_Coordinator_Atmega128rfa1_Atmega128rfa1_Gcc.a(machwiSetGetHandler.o)
                0x00013c7e                machwiGetReqHandler
 .text.machwiSetReqHandler
                0x00013cca       0xae ./../../../../../../Atmel_lib/BitCloud_MEGARF_1_14_0/BitCloud/lib/libBc_Coordinator_Atmega128rfa1_Atmega128rfa1_Gcc.a(machwiSetGetHandler.o)
                0x00013cca                machwiSetReqHandler
 .text.setHandling
                0x00013d78       0x64 ./../../../../../../Atmel_lib/BitCloud_MEGARF_1_14_0/BitCloud/lib/libBc_Coordinator_Atmega128rfa1_Atmega128rfa1_Gcc.a(machwiStartHandler.o)
 .text.setStartReqParam
                0x00013ddc       0xa8 ./../../../../../../Atmel_lib/BitCloud_MEGARF_1_14_0/BitCloud/lib/libBc_Coordinator_Atmega128rfa1_Atmega128rfa1_Gcc.a(machwiStartHandler.o)
 .text.generateConfirm
                0x00013e84       0x3a ./../../../../../../Atmel_lib/BitCloud_MEGARF_1_14_0/BitCloud/lib/libBc_Coordinator_Atmega128rfa1_Atmega128rfa1_Gcc.a(machwiStartHandler.o)
 .text.machwdSetConfirm
                0x00013ebe      0x19e ./../../../../../../Atmel_lib/BitCloud_MEGARF_1_14_0/BitCloud/lib/libBc_Coordinator_Atmega128rfa1_Atmega128rfa1_Gcc.a(machwiStartHandler.o)
 .text.machwdDataConfirm
                0x0001405c       0x36 ./../../../../../../Atmel_lib/BitCloud_MEGARF_1_14_0/BitCloud/lib/libBc_Coordinator_Atmega128rfa1_Atmega128rfa1_Gcc.a(machwiStartHandler.o)
 .text.machwiStartReqHandler
                0x00014092       0x56 ./../../../../../../Atmel_lib/BitCloud_MEGARF_1_14_0/BitCloud/lib/libBc_Coordinator_Atmega128rfa1_Atmega128rfa1_Gcc.a(machwiStartHandler.o)
                0x00014092                machwiStartReqHandler
 .text.machwiResetStartHandler
                0x000140e8        0xa ./../../../../../../Atmel_lib/BitCloud_MEGARF_1_14_0/BitCloud/lib/libBc_Coordinator_Atmega128rfa1_Atmega128rfa1_Gcc.a(machwiStartHandler.o)
                0x000140e8                machwiResetStartHandler
 .text.machwdSetTrxStateConfirm
                0x000140f2        0xc ./../../../../../../Atmel_lib/BitCloud_MEGARF_1_14_0/BitCloud/lib/libBc_Coordinator_Atmega128rfa1_Atmega128rfa1_Gcc.a(machwiSwitchRxCtrl.o)
 .text.machwiSwitchRxAccordToRxOnWhenIdle
                0x000140fe       0x2a ./../../../../../../Atmel_lib/BitCloud_MEGARF_1_14_0/BitCloud/lib/libBc_Coordinator_Atmega128rfa1_Atmega128rfa1_Gcc.a(machwiSwitchRxCtrl.o)
                0x000140fe                machwiSwitchRxAccordToRxOnWhenIdle
 .text.machwdDataConfirmEmptyData
                0x00014128        0x6 ./../../../../../../Atmel_lib/BitCloud_MEGARF_1_14_0/BitCloud/lib/libBc_Coordinator_Atmega128rfa1_Atmega128rfa1_Gcc.a(machwiTransactionHandler.o)
 .text.machwiResetTransactionHandler
                0x0001412e        0xa ./../../../../../../Atmel_lib/BitCloud_MEGARF_1_14_0/BitCloud/lib/libBc_Coordinator_Atmega128rfa1_Atmega128rfa1_Gcc.a(machwiTransactionHandler.o)
                0x0001412e                machwiResetTransactionHandler
 .text.machwiSendTransactionEvent
                0x00014138      0x1da ./../../../../../../Atmel_lib/BitCloud_MEGARF_1_14_0/BitCloud/lib/libBc_Coordinator_Atmega128rfa1_Atmega128rfa1_Gcc.a(machwiTransactionHandler.o)
                0x00014138                machwiSendTransactionEvent
 .text.machwdDataConfirm
                0x00014312       0xbc ./../../../../../../Atmel_lib/BitCloud_MEGARF_1_14_0/BitCloud/lib/libBc_Coordinator_Atmega128rfa1_Atmega128rfa1_Gcc.a(machwiTransactionHandler.o)
 .text.replyWithEmptyDataFrame
                0x000143ce       0x98 ./../../../../../../Atmel_lib/BitCloud_MEGARF_1_14_0/BitCloud/lib/libBc_Coordinator_Atmega128rfa1_Atmega128rfa1_Gcc.a(machwiTransactionHandler.o)
                0x000143ce                replyWithEmptyDataFrame
 .text.stopTransactionTimer
                0x00014466        0xa ./../../../../../../Atmel_lib/BitCloud_MEGARF_1_14_0/BitCloud/lib/libBc_Coordinator_Atmega128rfa1_Atmega128rfa1_Gcc.a(machwiTransactionQueue.o)
 .text.transactionTimerFired
                0x00014470       0x5e ./../../../../../../Atmel_lib/BitCloud_MEGARF_1_14_0/BitCloud/lib/libBc_Coordinator_Atmega128rfa1_Atmega128rfa1_Gcc.a(machwiTransactionQueue.o)
 .text.machwiPutTransactionToQueue
                0x000144ce       0x76 ./../../../../../../Atmel_lib/BitCloud_MEGARF_1_14_0/BitCloud/lib/libBc_Coordinator_Atmega128rfa1_Atmega128rfa1_Gcc.a(machwiTransactionQueue.o)
                0x000144ce                machwiPutTransactionToQueue
 .text.machwiGetActivatedTransactionFromQueue
                0x00014544       0x20 ./../../../../../../Atmel_lib/BitCloud_MEGARF_1_14_0/BitCloud/lib/libBc_Coordinator_Atmega128rfa1_Atmega128rfa1_Gcc.a(machwiTransactionQueue.o)
                0x00014544                machwiGetActivatedTransactionFromQueue
 .text.machwiTestAndKickQueueTransactions
                0x00014564      0x24c ./../../../../../../Atmel_lib/BitCloud_MEGARF_1_14_0/BitCloud/lib/libBc_Coordinator_Atmega128rfa1_Atmega128rfa1_Gcc.a(machwiTransactionQueue.o)
                0x00014564                machwiTestAndKickQueueTransactions
 .text.machwiFillPendingAddrSpecAndList
                0x000147b0        0x8 ./../../../../../../Atmel_lib/BitCloud_MEGARF_1_14_0/BitCloud/lib/libBc_Coordinator_Atmega128rfa1_Atmega128rfa1_Gcc.a(machwiTransactionQueue.o)
                0x000147b0                machwiFillPendingAddrSpecAndList
 .text.machwiDeleteTransactionFromQueue
                0x000147b8       0x2c ./../../../../../../Atmel_lib/BitCloud_MEGARF_1_14_0/BitCloud/lib/libBc_Coordinator_Atmega128rfa1_Atmega128rfa1_Gcc.a(machwiTransactionQueue.o)
                0x000147b8                machwiDeleteTransactionFromQueue
 .text.machwiPurgeTransactionFromQueue
                0x000147e4       0x3a ./../../../../../../Atmel_lib/BitCloud_MEGARF_1_14_0/BitCloud/lib/libBc_Coordinator_Atmega128rfa1_Atmega128rfa1_Gcc.a(machwiTransactionQueue.o)
                0x000147e4                machwiPurgeTransactionFromQueue
 .text.machwiResetTransactionQueue
                0x0001481e       0x3a ./../../../../../../Atmel_lib/BitCloud_MEGARF_1_14_0/BitCloud/lib/libBc_Coordinator_Atmega128rfa1_Atmega128rfa1_Gcc.a(machwiTransactionQueue.o)
                0x0001481e                machwiResetTransactionQueue
 .text.machwiTransactionQueueEmpty
                0x00014858       0x14 ./../../../../../../Atmel_lib/BitCloud_MEGARF_1_14_0/BitCloud/lib/libBc_Coordinator_Atmega128rfa1_Atmega128rfa1_Gcc.a(machwiTransactionQueue.o)
                0x00014858                machwiTransactionQueueEmpty
 .text.RF_Init  0x0001486c       0x2e ./../../../../../../Atmel_lib/BitCloud_MEGARF_1_14_0/BitCloud/lib/libBc_Coordinator_Atmega128rfa1_Atmega128rfa1_Gcc.a(phyInit.o)
                0x0001486c                RF_Init
 .text.PHY_RegWriteReq
                0x0001489a       0x3c ./../../../../../../Atmel_lib/BitCloud_MEGARF_1_14_0/BitCloud/lib/libBc_Coordinator_Atmega128rfa1_Atmega128rfa1_Gcc.a(phyRegAccess.o)
                0x0001489a                PHY_RegWriteReq
 .text.PHY_RegReadReq
                0x000148d6       0x3c ./../../../../../../Atmel_lib/BitCloud_MEGARF_1_14_0/BitCloud/lib/libBc_Coordinator_Atmega128rfa1_Atmega128rfa1_Gcc.a(phyRegAccess.o)
                0x000148d6                PHY_RegReadReq
 .text.PHY_Reset
                0x00014912       0xae ./../../../../../../Atmel_lib/BitCloud_MEGARF_1_14_0/BitCloud/lib/libBc_Coordinator_Atmega128rfa1_Atmega128rfa1_Gcc.a(phyReset.o)
                0x00014912                PHY_Reset
 .text.phyRxEndInterrupt
                0x000149c0      0x2d4 ./../../../../../../Atmel_lib/BitCloud_MEGARF_1_14_0/BitCloud/lib/libBc_Coordinator_Atmega128rfa1_Atmega128rfa1_Gcc.a(phyRfIrqDispatcher.o)
                0x000149c0                phyRxEndInterrupt
 .text.phyTxEndInterrupt
                0x00014c94       0x8a ./../../../../../../Atmel_lib/BitCloud_MEGARF_1_14_0/BitCloud/lib/libBc_Coordinator_Atmega128rfa1_Atmega128rfa1_Gcc.a(phyRfIrqDispatcher.o)
                0x00014c94                phyTxEndInterrupt
 .text.phyRestoreRfIrqMask
                0x00014d1e        0x6 ./../../../../../../Atmel_lib/BitCloud_MEGARF_1_14_0/BitCloud/lib/libBc_Coordinator_Atmega128rfa1_Atmega128rfa1_Gcc.a(phyRfIrqDispatcher.o)
                0x00014d1e                phyRestoreRfIrqMask
 .text.phyClearRfIrqMask
                0x00014d24        0xa ./../../../../../../Atmel_lib/BitCloud_MEGARF_1_14_0/BitCloud/lib/libBc_Coordinator_Atmega128rfa1_Atmega128rfa1_Gcc.a(phyRfIrqDispatcher.o)
                0x00014d24                phyClearRfIrqMask
 .text.phyGetDataStatus
                0x00014d2e       0x16 ./../../../../../../Atmel_lib/BitCloud_MEGARF_1_14_0/BitCloud/lib/libBc_Coordinator_Atmega128rfa1_Atmega128rfa1_Gcc.a(phyRfIrqDispatcher.o)
                0x00014d2e                phyGetDataStatus
 .text.PHY_RndReq
                0x00014d44       0xee ./../../../../../../Atmel_lib/BitCloud_MEGARF_1_14_0/BitCloud/lib/libBc_Coordinator_Atmega128rfa1_Atmega128rfa1_Gcc.a(phyRnd.o)
                0x00014d44                PHY_RndReq
 .text.PHY_DownloadFrame
                0x00014e32      0x196 ./../../../../../../Atmel_lib/BitCloud_MEGARF_1_14_0/BitCloud/lib/libBc_Coordinator_Atmega128rfa1_Atmega128rfa1_Gcc.a(phyRxFrame.o)
                0x00014e32                PHY_DownloadFrame
 .text.PHY_SetReq
                0x00014fc8      0x1f2 ./../../../../../../Atmel_lib/BitCloud_MEGARF_1_14_0/BitCloud/lib/libBc_Coordinator_Atmega128rfa1_Atmega128rfa1_Gcc.a(phySet.o)
                0x00014fc8                PHY_SetReq
 .text.PHY_SetTrxStateReq
                0x000151ba       0x80 ./../../../../../../Atmel_lib/BitCloud_MEGARF_1_14_0/BitCloud/lib/libBc_Coordinator_Atmega128rfa1_Atmega128rfa1_Gcc.a(phySetTrxState.o)
                0x000151ba                PHY_SetTrxStateReq
 .text.PHY_DataReq
                0x0001523a       0x28 ./../../../../../../Atmel_lib/BitCloud_MEGARF_1_14_0/BitCloud/lib/libBc_Coordinator_Atmega128rfa1_Atmega128rfa1_Gcc.a(phyTxFrame.o)
                0x0001523a                PHY_DataReq
 .text.machwdCalibReqHandler
                0x00015262       0x42 ./../../../../../../Atmel_lib/BitCloud_MEGARF_1_14_0/BitCloud/lib/libBc_Coordinator_Atmega128rfa1_Atmega128rfa1_Gcc.a(machwdCalibHandler.o)
                0x00015262                machwdCalibReqHandler
 .text.machwdCalibTaskHandler
                0x000152a4       0x34 ./../../../../../../Atmel_lib/BitCloud_MEGARF_1_14_0/BitCloud/lib/libBc_Coordinator_Atmega128rfa1_Atmega128rfa1_Gcc.a(machwdCalibHandler.o)
                0x000152a4                machwdCalibTaskHandler
 .text.machwdResetCalibHandler
                0x000152d8        0x6 ./../../../../../../Atmel_lib/BitCloud_MEGARF_1_14_0/BitCloud/lib/libBc_Coordinator_Atmega128rfa1_Atmega128rfa1_Gcc.a(machwdCalibHandler.o)
                0x000152d8                machwdResetCalibHandler
 .text.machwdEdReqHandler
                0x000152de       0x28 ./../../../../../../Atmel_lib/BitCloud_MEGARF_1_14_0/BitCloud/lib/libBc_Coordinator_Atmega128rfa1_Atmega128rfa1_Gcc.a(machwdEdHandler.o)
                0x000152de                machwdEdReqHandler
 .text.machwdEdTaskHandler
                0x00015306       0x28 ./../../../../../../Atmel_lib/BitCloud_MEGARF_1_14_0/BitCloud/lib/libBc_Coordinator_Atmega128rfa1_Atmega128rfa1_Gcc.a(machwdEdHandler.o)
                0x00015306                machwdEdTaskHandler
 .text.machwdResetEdHandler
                0x0001532e        0x6 ./../../../../../../Atmel_lib/BitCloud_MEGARF_1_14_0/BitCloud/lib/libBc_Coordinator_Atmega128rfa1_Atmega128rfa1_Gcc.a(machwdEdHandler.o)
                0x0001532e                machwdResetEdHandler
 .text.composePanIdAndAddress
                0x00015334       0x56 ./../../../../../../Atmel_lib/BitCloud_MEGARF_1_14_0/BitCloud/lib/libBc_Coordinator_Atmega128rfa1_Atmega128rfa1_Gcc.a(machwdFrameRoutine.o)
 .text.parsePanIdAndAddress
                0x0001538a       0x58 ./../../../../../../Atmel_lib/BitCloud_MEGARF_1_14_0/BitCloud/lib/libBc_Coordinator_Atmega128rfa1_Atmega128rfa1_Gcc.a(machwdFrameRoutine.o)
 .text.machwdParseFrame
                0x000153e2      0x282 ./../../../../../../Atmel_lib/BitCloud_MEGARF_1_14_0/BitCloud/lib/libBc_Coordinator_Atmega128rfa1_Atmega128rfa1_Gcc.a(machwdFrameRoutine.o)
                0x000153e2                machwdParseFrame
 .text.machwdComposeFrame
                0x00015664      0x1c0 ./../../../../../../Atmel_lib/BitCloud_MEGARF_1_14_0/BitCloud/lib/libBc_Coordinator_Atmega128rfa1_Atmega128rfa1_Gcc.a(machwdFrameRoutine.o)
                0x00015664                machwdComposeFrame
 .text.machwdGetHandlerId
                0x00015824       0x48 ./../../../../../../Atmel_lib/BitCloud_MEGARF_1_14_0/BitCloud/lib/libBc_Coordinator_Atmega128rfa1_Atmega128rfa1_Gcc.a(machwdHandlerCtrl.o)
                0x00015824                machwdGetHandlerId
 .text.setHandling
                0x0001586c       0x64 ./../../../../../../Atmel_lib/BitCloud_MEGARF_1_14_0/BitCloud/lib/libBc_Coordinator_Atmega128rfa1_Atmega128rfa1_Gcc.a(machwiAssociateHandler.o)
 .text.completeHandling
                0x000158d0       0x18 ./../../../../../../Atmel_lib/BitCloud_MEGARF_1_14_0/BitCloud/lib/libBc_Coordinator_Atmega128rfa1_Atmega128rfa1_Gcc.a(machwiAssociateHandler.o)
 .text.machwdSetConfirm
                0x000158e8      0x18c ./../../../../../../Atmel_lib/BitCloud_MEGARF_1_14_0/BitCloud/lib/libBc_Coordinator_Atmega128rfa1_Atmega128rfa1_Gcc.a(machwiAssociateHandler.o)
 .text.machwdDataConfirm
                0x00015a74       0xba ./../../../../../../Atmel_lib/BitCloud_MEGARF_1_14_0/BitCloud/lib/libBc_Coordinator_Atmega128rfa1_Atmega128rfa1_Gcc.a(machwiAssociateHandler.o)
 .text.associateTimerFired
                0x00015b2e      0x100 ./../../../../../../Atmel_lib/BitCloud_MEGARF_1_14_0/BitCloud/lib/libBc_Coordinator_Atmega128rfa1_Atmega128rfa1_Gcc.a(machwiAssociateHandler.o)
 .text.switchingCompleted
                0x00015c2e       0x12 ./../../../../../../Atmel_lib/BitCloud_MEGARF_1_14_0/BitCloud/lib/libBc_Coordinator_Atmega128rfa1_Atmega128rfa1_Gcc.a(machwiAssociateHandler.o)
 .text.machwiResetAssociateHandler
                0x00015c40        0x6 ./../../../../../../Atmel_lib/BitCloud_MEGARF_1_14_0/BitCloud/lib/libBc_Coordinator_Atmega128rfa1_Atmega128rfa1_Gcc.a(machwiAssociateHandler.o)
                0x00015c40                machwiResetAssociateHandler
 .text.machwiAssociateReqInd
                0x00015c46       0x52 ./../../../../../../Atmel_lib/BitCloud_MEGARF_1_14_0/BitCloud/lib/libBc_Coordinator_Atmega128rfa1_Atmega128rfa1_Gcc.a(machwiAssociateHandler.o)
                0x00015c46                machwiAssociateReqInd
 .text.machwiAssociateReqHandler
                0x00015c98       0x9a ./../../../../../../Atmel_lib/BitCloud_MEGARF_1_14_0/BitCloud/lib/libBc_Coordinator_Atmega128rfa1_Atmega128rfa1_Gcc.a(machwiAssociateHandler.o)
                0x00015c98                machwiAssociateReqHandler
 .text.machwiAssociateRespHandler
                0x00015d32       0x20 ./../../../../../../Atmel_lib/BitCloud_MEGARF_1_14_0/BitCloud/lib/libBc_Coordinator_Atmega128rfa1_Atmega128rfa1_Gcc.a(machwiAssociateHandler.o)
                0x00015d32                machwiAssociateRespHandler
 .text.machwiAssociateRespInd
                0x00015d52      0x132 ./../../../../../../Atmel_lib/BitCloud_MEGARF_1_14_0/BitCloud/lib/libBc_Coordinator_Atmega128rfa1_Atmega128rfa1_Gcc.a(machwiAssociateHandler.o)
                0x00015d52                machwiAssociateRespInd
 .text.machwdDataConfirm
                0x00015e84       0x20 ./../../../../../../Atmel_lib/BitCloud_MEGARF_1_14_0/BitCloud/lib/libBc_Coordinator_Atmega128rfa1_Atmega128rfa1_Gcc.a(machwiBeaconHandler.o)
 .text.machwiSendBeacon
                0x00015ea4      0x102 ./../../../../../../Atmel_lib/BitCloud_MEGARF_1_14_0/BitCloud/lib/libBc_Coordinator_Atmega128rfa1_Atmega128rfa1_Gcc.a(machwiBeaconHandler.o)
                0x00015ea4                machwiSendBeacon
 .text.machwdDataConfirm
                0x00015fa6       0x26 ./../../../../../../Atmel_lib/BitCloud_MEGARF_1_14_0/BitCloud/lib/libBc_Coordinator_Atmega128rfa1_Atmega128rfa1_Gcc.a(machwiDataHandler.o)
 .text.machwiConvertmachwdDataConfirmTypes
                0x00015fcc       0x14 ./../../../../../../Atmel_lib/BitCloud_MEGARF_1_14_0/BitCloud/lib/libBc_Coordinator_Atmega128rfa1_Atmega128rfa1_Gcc.a(machwiDataHandler.o)
                0x00015fcc                machwiConvertmachwdDataConfirmTypes
 .text.machwiPrepareDataFrame
                0x00015fe0      0x10e ./../../../../../../Atmel_lib/BitCloud_MEGARF_1_14_0/BitCloud/lib/libBc_Coordinator_Atmega128rfa1_Atmega128rfa1_Gcc.a(machwiDataHandler.o)
                0x00015fe0                machwiPrepareDataFrame
 .text.machwiDataReqHandler
                0x000160ee       0x62 ./../../../../../../Atmel_lib/BitCloud_MEGARF_1_14_0/BitCloud/lib/libBc_Coordinator_Atmega128rfa1_Atmega128rfa1_Gcc.a(machwiDataHandler.o)
                0x000160ee                machwiDataReqHandler
 .text.machwiCalculateAddressHash
                0x00016150       0x2e ./../../../../../../Atmel_lib/BitCloud_MEGARF_1_14_0/BitCloud/lib/libBc_Coordinator_Atmega128rfa1_Atmega128rfa1_Gcc.a(machwiTransactionHash.o)
 .text.machwiCalculateTransactionHash
                0x0001617e       0x32 ./../../../../../../Atmel_lib/BitCloud_MEGARF_1_14_0/BitCloud/lib/libBc_Coordinator_Atmega128rfa1_Atmega128rfa1_Gcc.a(machwiTransactionHash.o)
 .text.machwiTransctionHashInsert
                0x000161b0       0x2c ./../../../../../../Atmel_lib/BitCloud_MEGARF_1_14_0/BitCloud/lib/libBc_Coordinator_Atmega128rfa1_Atmega128rfa1_Gcc.a(machwiTransactionHash.o)
                0x000161b0                machwiTransctionHashInsert
 .text.machwiTransactionHashRemove
                0x000161dc       0x68 ./../../../../../../Atmel_lib/BitCloud_MEGARF_1_14_0/BitCloud/lib/libBc_Coordinator_Atmega128rfa1_Atmega128rfa1_Gcc.a(machwiTransactionHash.o)
                0x000161dc                machwiTransactionHashRemove
 .text.machwiIsNoDataPending
                0x00016244       0x2a ./../../../../../../Atmel_lib/BitCloud_MEGARF_1_14_0/BitCloud/lib/libBc_Coordinator_Atmega128rfa1_Atmega128rfa1_Gcc.a(machwiTransactionHash.o)
                0x00016244                machwiIsNoDataPending
 .text.machwiTransactionHashClear
                0x0001626e       0x10 ./../../../../../../Atmel_lib/BitCloud_MEGARF_1_14_0/BitCloud/lib/libBc_Coordinator_Atmega128rfa1_Atmega128rfa1_Gcc.a(machwiTransactionHash.o)
                0x0001626e                machwiTransactionHashClear
 .text.PHY_CalibReq
                0x0001627e       0x86 ./../../../../../../Atmel_lib/BitCloud_MEGARF_1_14_0/BitCloud/lib/libBc_Coordinator_Atmega128rfa1_Atmega128rfa1_Gcc.a(phyCalib.o)
                0x0001627e                PHY_CalibReq
 .text.PHY_EdReq
                0x00016304       0x40 ./../../../../../../Atmel_lib/BitCloud_MEGARF_1_14_0/BitCloud/lib/libBc_Coordinator_Atmega128rfa1_Atmega128rfa1_Gcc.a(phyEd.o)
                0x00016304                PHY_EdReq
 .text.phySetRTimerSource
                0x00016344        0x6 ./../../../../../../Atmel_lib/BitCloud_MEGARF_1_14_0/BitCloud/lib/libBc_Coordinator_Atmega128rfa1_Atmega128rfa1_Gcc.a(phyRtimerIrqDispatcher.o)
                0x00016344                phySetRTimerSource
 .text.phyDispatcheRTimerEvent
                0x0001634a       0xb2 ./../../../../../../Atmel_lib/BitCloud_MEGARF_1_14_0/BitCloud/lib/libBc_Coordinator_Atmega128rfa1_Atmega128rfa1_Gcc.a(phyRtimerIrqDispatcher.o)
                0x0001634a                phyDispatcheRTimerEvent
 .text.HAL_Init
                0x000163fc       0x3c ./../../../../../../Atmel_lib/BitCloud_MEGARF_1_14_0/BitCloud/lib/libHAL_AtmlStk600_Atmega128rfa1_8Mhz_Gcc.a(halInit.o)
                0x000163fc                HAL_Init
 .text.HAL_EnableRxTxSwitcher
                0x00016438        0x6 ./../../../../../../Atmel_lib/BitCloud_MEGARF_1_14_0/BitCloud/lib/libHAL_AtmlStk600_Atmega128rfa1_8Mhz_Gcc.a(halRfCtrl.o)
                0x00016438                HAL_EnableRxTxSwitcher
 .text.HAL_InitAntennaDiversity
                0x0001643e        0x2 ./../../../../../../Atmel_lib/BitCloud_MEGARF_1_14_0/BitCloud/lib/libHAL_AtmlStk600_Atmega128rfa1_8Mhz_Gcc.a(halRfCtrl.o)
                0x0001643e                HAL_InitAntennaDiversity
 .text.HAL_EnableRxAntennaDiversity
                0x00016440        0x2 ./../../../../../../Atmel_lib/BitCloud_MEGARF_1_14_0/BitCloud/lib/libHAL_AtmlStk600_Atmega128rfa1_8Mhz_Gcc.a(halRfCtrl.o)
                0x00016440                HAL_EnableRxAntennaDiversity
 .text.HAL_EnableTxAntennaDiversity
                0x00016442        0x2 ./../../../../../../Atmel_lib/BitCloud_MEGARF_1_14_0/BitCloud/lib/libHAL_AtmlStk600_Atmega128rfa1_8Mhz_Gcc.a(halRfCtrl.o)
                0x00016442                HAL_EnableTxAntennaDiversity
 .text.halReadUid
                0x00016444      0x144 ./../../../../../../Atmel_lib/BitCloud_MEGARF_1_14_0/BitCloud/lib/libHAL_AtmlStk600_Atmega128rfa1_8Mhz_Gcc.a(halUid.o)
                0x00016444                halReadUid
 .text.HAL_ReadUid
                0x00016588       0x44 ./../../../../../../Atmel_lib/BitCloud_MEGARF_1_14_0/BitCloud/lib/libHAL_AtmlStk600_Atmega128rfa1_8Mhz_Gcc.a(halUid.o)
                0x00016588                HAL_ReadUid
 .text.HAL_InitMacIsr
                0x000165cc        0x8 ./../../../../../../Atmel_lib/BitCloud_MEGARF_1_14_0/BitCloud/lib/libHAL_AtmlStk600_Atmega128rfa1_8Mhz_Gcc.a(halMacIsr.o)
                0x000165cc                HAL_InitMacIsr
 .text.HAL_StartRtimer
                0x000165d4       0x72 ./../../../../../../Atmel_lib/BitCloud_MEGARF_1_14_0/BitCloud/lib/libHAL_AtmlStk600_Atmega128rfa1_8Mhz_Gcc.a(halMacIsr.o)
                0x000165d4                HAL_StartRtimer
 .text.HAL_StopRtimer
                0x00016646       0x14 ./../../../../../../Atmel_lib/BitCloud_MEGARF_1_14_0/BitCloud/lib/libHAL_AtmlStk600_Atmega128rfa1_8Mhz_Gcc.a(halMacIsr.o)
                0x00016646                HAL_StopRtimer
 .text.__vector_43
                0x0001665a       0xba ./../../../../../../Atmel_lib/BitCloud_MEGARF_1_14_0/BitCloud/lib/libHAL_AtmlStk600_Atmega128rfa1_8Mhz_Gcc.a(halMacIsr.o)
                0x0001665a                __vector_43
 .text.__vector_60
                0x00016714       0x50 ./../../../../../../Atmel_lib/BitCloud_MEGARF_1_14_0/BitCloud/lib/libHAL_AtmlStk600_Atmega128rfa1_8Mhz_Gcc.a(halMacIsr.o)
                0x00016714                __vector_60
 .text.__vector_63
                0x00016764       0x50 ./../../../../../../Atmel_lib/BitCloud_MEGARF_1_14_0/BitCloud/lib/libHAL_AtmlStk600_Atmega128rfa1_8Mhz_Gcc.a(halMacIsr.o)
                0x00016764                __vector_63
 .text.libgcc   0x000167b4       0x3e c:/program files (x86)/atmel/avr tools/avr toolchain/bin/../lib/gcc/avr/4.5.1/avr51\libgcc.a(_mulsi3.o)
                0x000167b4                __mulsi3
 .text.libgcc   0x000167f2       0x18 c:/program files (x86)/atmel/avr tools/avr toolchain/bin/../lib/gcc/avr/4.5.1/avr51\libgcc.a(_udivmodqi4.o)
                0x000167f2                __udivmodqi4
 .text.libgcc   0x0001680a       0x28 c:/program files (x86)/atmel/avr tools/avr toolchain/bin/../lib/gcc/avr/4.5.1/avr51\libgcc.a(_udivmodhi4.o)
                0x0001680a                __udivmodhi4
 .text.libgcc   0x00016832       0x44 c:/program files (x86)/atmel/avr tools/avr toolchain/bin/../lib/gcc/avr/4.5.1/avr51\libgcc.a(_udivmodsi4.o)
                0x00016832                __udivmodsi4
 .text.libgcc   0x00016876       0x38 c:/program files (x86)/atmel/avr tools/avr toolchain/bin/../lib/gcc/avr/4.5.1/avr51\libgcc.a(_prologue.o)
                0x00016876                __prologue_saves__
 .text.libgcc   0x000168ae       0x36 c:/program files (x86)/atmel/avr tools/avr toolchain/bin/../lib/gcc/avr/4.5.1/avr51\libgcc.a(_epilogue.o)
                0x000168ae                __epilogue_restores__
 .text.libgcc   0x000168e4        0xc c:/program files (x86)/atmel/avr tools/avr toolchain/bin/../lib/gcc/avr/4.5.1/avr51\libgcc.a(_tablejump.o)
                0x000168e4                __tablejump2__
                0x000168e8                __tablejump__
 .text.avr-libc
                0x000168f0       0xbc c:/program files (x86)/atmel/avr tools/avr toolchain/bin/../lib/gcc/avr/4.5.1/../../../../avr/lib/avr51\libc.a(rand.o)
                0x00016986                rand_r
                0x0001698c                rand
                0x00016996                srand
 .text.avr-libc
                0x000169ac       0x12 c:/program files (x86)/atmel/avr tools/avr toolchain/bin/../lib/gcc/avr/4.5.1/../../../../avr/lib/avr51\libc.a(memcpy_P.o)
                0x000169ac                memcpy_P
 .text.avr-libc
                0x000169be       0x1a c:/program files (x86)/atmel/avr tools/avr toolchain/bin/../lib/gcc/avr/4.5.1/../../../../avr/lib/avr51\libc.a(memcmp.o)
                0x000169be                memcmp
 .text.avr-libc
                0x000169d8       0x12 c:/program files (x86)/atmel/avr tools/avr toolchain/bin/../lib/gcc/avr/4.5.1/../../../../avr/lib/avr51\libc.a(memcpy.o)
                0x000169d8                memcpy
 .text.avr-libc
                0x000169ea       0x24 c:/program files (x86)/atmel/avr tools/avr toolchain/bin/../lib/gcc/avr/4.5.1/../../../../avr/lib/avr51\libc.a(memmove.o)
                0x000169ea                memmove
 .text.avr-libc
                0x00016a0e        0xe c:/program files (x86)/atmel/avr tools/avr toolchain/bin/../lib/gcc/avr/4.5.1/../../../../avr/lib/avr51\libc.a(memset.o)
                0x00016a0e                memset
 .text.libgcc   0x00016a1c       0x36 c:/program files (x86)/atmel/avr tools/avr toolchain/bin/../lib/gcc/avr/4.5.1/avr51\libgcc.a(_divmodsi4.o)
                0x00016a1c                __divmodsi4
                0x00016a52                PROVIDE (__text_end, .)

.data           0x00800200       0xb0 load address 0x00016a52
                0x00800200                PROVIDE (__data_start, .)
 *(.data*)
 .data          0x00800200       0x35 Coordinator_Stk600_Atmega128rfa1_8Mhz_Gcc/Obj/WSNDemoApp.o
                0x00800200                appNwkInfo
 .data          0x00800235        0x9 ./../../../../../../Atmel_lib/BitCloud_MEGARF_1_14_0/BitCloud/lib/libHAL_AtmlStk600_Atmega128rfa1_8Mhz_Gcc.a(usart.o)
 .data          0x0080023e        0x6 ./../../../../../../Atmel_lib/BitCloud_MEGARF_1_14_0/BitCloud/lib/libBc_Coordinator_Atmega128rfa1_Atmega128rfa1_Gcc.a(nwk.o)
 .data          0x00800244       0x16 ./../../../../../../Atmel_lib/BitCloud_MEGARF_1_14_0/BitCloud/lib/libBc_Coordinator_Atmega128rfa1_Atmega128rfa1_Gcc.a(taskManager.o)
 .data          0x0080025a       0x26 ./../../../../../../Atmel_lib/BitCloud_MEGARF_1_14_0/BitCloud/lib/libBc_Coordinator_Atmega128rfa1_Atmega128rfa1_Gcc.a(zdo.o)
 .data          0x00800280       0x18 ./../../../../../../Atmel_lib/BitCloud_MEGARF_1_14_0/BitCloud/lib/libBc_Coordinator_Atmega128rfa1_Atmega128rfa1_Gcc.a(machwdTrxCtrl.o)
 .data          0x00800298        0x5 ./../../../../../../Atmel_lib/BitCloud_MEGARF_1_14_0/BitCloud/lib/libBc_Coordinator_Atmega128rfa1_Atmega128rfa1_Gcc.a(machwiSetGetHandler.o)
 .data          0x0080029d        0x8 ./../../../../../../Atmel_lib/BitCloud_MEGARF_1_14_0/BitCloud/lib/libBc_Coordinator_Atmega128rfa1_Atmega128rfa1_Gcc.a(phyRfIrqDispatcher.o)
 .data          0x008002a5        0x2 ./../../../../../../Atmel_lib/BitCloud_MEGARF_1_14_0/BitCloud/lib/libBc_Coordinator_Atmega128rfa1_Atmega128rfa1_Gcc.a(machwdFrameRoutine.o)
 .data          0x008002a7        0x4 ./../../../../../../Atmel_lib/BitCloud_MEGARF_1_14_0/BitCloud/lib/libBc_Coordinator_Atmega128rfa1_Atmega128rfa1_Gcc.a(machwiDataHandler.o)
 .data          0x008002ab        0x4 c:/program files (x86)/atmel/avr tools/avr toolchain/bin/../lib/gcc/avr/4.5.1/../../../../avr/lib/avr51\libc.a(rand.o)
 *(.rodata*)
 *(.gnu.linkonce.d*)
                0x008002b0                . = ALIGN (0x2)
 *fill*         0x008002af        0x1 00
                0x008002b0                PROVIDE (__data_end, .)

.bss            0x008002b0     0x1511 load address 0x00016b02
                0x008002b0                PROVIDE (__bss_start, .)
 *(.bss*)
 .bss           0x008002b0        0x2 Coordinator_Stk600_Atmega128rfa1_8Mhz_Gcc/Obj/WSNSensorManager.o
 .bss           0x008002b2        0xe Coordinator_Stk600_Atmega128rfa1_8Mhz_Gcc/Obj/WSNCoord.o
 .bss           0x008002c0       0xfe Coordinator_Stk600_Atmega128rfa1_8Mhz_Gcc/Obj/WSNMessageSender.o
 .bss           0x008003be       0xe4 Coordinator_Stk600_Atmega128rfa1_8Mhz_Gcc/Obj/WSNCommandHandler.o
 .bss           0x008004a2      0x11c Coordinator_Stk600_Atmega128rfa1_8Mhz_Gcc/Obj/WSNDemoApp.o
 .bss           0x008005be      0x16c Coordinator_Stk600_Atmega128rfa1_8Mhz_Gcc/Obj/WSNUARTManager.o
 .bss           0x0080072a        0x8 Coordinator_Stk600_Atmega128rfa1_8Mhz_Gcc/Obj/pdsWriteData.o
 .bss           0x00800732       0x1a Coordinator_Stk600_Atmega128rfa1_8Mhz_Gcc/Obj/buttons.o
 .bss           0x0080074c        0x1 Coordinator_Stk600_Atmega128rfa1_8Mhz_Gcc/Obj/bspTaskManager.o
                0x0080074c                bspTaskFlags
 .bss           0x0080074d        0x2 ./../../../../../../Atmel_lib/BitCloud_MEGARF_1_14_0/BitCloud/lib/libHAL_AtmlStk600_Atmega128rfa1_8Mhz_Gcc.a(appTimer.o)
 .bss           0x0080074f        0x8 ./../../../../../../Atmel_lib/BitCloud_MEGARF_1_14_0/BitCloud/lib/libHAL_AtmlStk600_Atmega128rfa1_8Mhz_Gcc.a(usart.o)
                0x0080074f                halPointDescrip
                0x00800753                halEnableDtrWakeUp
                0x00800754                dtrWakeUpCallback
 .bss           0x00800757        0x1 ./../../../../../../Atmel_lib/BitCloud_MEGARF_1_14_0/BitCloud/lib/libHAL_AtmlStk600_Atmega128rfa1_8Mhz_Gcc.a(eeprom.o)
                0x00800757                halEepromState
 .bss           0x00800758        0x9 ./../../../../../../Atmel_lib/BitCloud_MEGARF_1_14_0/BitCloud/lib/libHAL_AtmlStk600_Atmega128rfa1_8Mhz_Gcc.a(halSleepTimerClock.o)
                0x00800758                halSleepTimerOvfw
 .bss           0x00800761        0x6 ./../../../../../../Atmel_lib/BitCloud_MEGARF_1_14_0/BitCloud/lib/libHAL_AtmlStk600_Atmega128rfa1_8Mhz_Gcc.a(halAppClock.o)
                0x00800761                halAppTimeOvfw
 .bss           0x00800767       0x10 ./../../../../../../Atmel_lib/BitCloud_MEGARF_1_14_0/BitCloud/lib/libHAL_AtmlStk600_Atmega128rfa1_8Mhz_Gcc.a(halIrq.o)
                0x00800767                IrqCallbackList
 .bss           0x00800777        0x4 ./../../../../../../Atmel_lib/BitCloud_MEGARF_1_14_0/BitCloud/lib/libHAL_AtmlStk600_Atmega128rfa1_8Mhz_Gcc.a(halSleep.o)
 .bss           0x0080077b        0x5 ./../../../../../../Atmel_lib/BitCloud_MEGARF_1_14_0/BitCloud/lib/libHAL_AtmlStk600_Atmega128rfa1_8Mhz_Gcc.a(halTaskManager.o)
                0x0080077b                halTaskFlags0
                0x0080077c                halTaskFlags1
                0x0080077d                halTaskFlags2
                0x0080077e                halTaskFlags3
                0x0080077f                halTaskFlags4
 .bss           0x00800780        0x2 ./../../../../../../Atmel_lib/BitCloud_MEGARF_1_14_0/BitCloud/lib/libHAL_AtmlStk600_Atmega128rfa1_8Mhz_Gcc.a(i2cPacket.o)
 .bss           0x00800782        0x2 ./../../../../../../Atmel_lib/BitCloud_MEGARF_1_14_0/BitCloud/lib/libHAL_AtmlStk600_Atmega128rfa1_8Mhz_Gcc.a(adc.o)
                0x00800782                adcDesc
 .bss           0x00800784       0x10 ./../../../../../../Atmel_lib/BitCloud_MEGARF_1_14_0/BitCloud/lib/libHAL_AtmlStk600_Atmega128rfa1_8Mhz_Gcc.a(sleep.o)
                0x00800784                halSleepControl
 .bss           0x00800794        0x2 ./../../../../../../Atmel_lib/BitCloud_MEGARF_1_14_0/BitCloud/lib/libHAL_AtmlStk600_Atmega128rfa1_8Mhz_Gcc.a(halSecurityModule.o)
 .bss           0x00800796        0x1 ./../../../../../../Atmel_lib/BitCloud_MEGARF_1_14_0/BitCloud/lib/libHAL_AtmlStk600_Atmega128rfa1_8Mhz_Gcc.a(halClkCtrl.o)
 .bss           0x00800797        0x2 ./../../../../../../Atmel_lib/BitCloud_MEGARF_1_14_0/BitCloud/lib/libHAL_AtmlStk600_Atmega128rfa1_8Mhz_Gcc.a(halSpi.o)
                0x00800797                halRealSpiDescripPointer
 .bss           0x00800799       0x36 ./../../../../../../Atmel_lib/BitCloud_MEGARF_1_14_0/BitCloud/lib/libBc_Coordinator_Atmega128rfa1_Atmega128rfa1_Gcc.a(aps.o)
                0x00800799                apsState
 .bss           0x008007cf        0x1 ./../../../../../../Atmel_lib/BitCloud_MEGARF_1_14_0/BitCloud/lib/libBc_Coordinator_Atmega128rfa1_Atmega128rfa1_Gcc.a(phyStateMachine.o)
                0x008007cf                __wasRequest
 .bss           0x008007d0        0x6 ./../../../../../../Atmel_lib/BitCloud_MEGARF_1_14_0/BitCloud/lib/libBc_Coordinator_Atmega128rfa1_Atmega128rfa1_Gcc.a(sysEvents.o)
 .bss           0x008007d6        0x2 ./../../../../../../Atmel_lib/BitCloud_MEGARF_1_14_0/BitCloud/lib/libBc_Coordinator_Atmega128rfa1_Atmega128rfa1_Gcc.a(taskManager.o)
                0x008007d6                SYS_taskFlag
 .bss           0x008007d8        0x4 ./../../../../../../Atmel_lib/BitCloud_MEGARF_1_14_0/BitCloud/lib/libBc_Coordinator_Atmega128rfa1_Atmega128rfa1_Gcc.a(machwdManager.o)
                0x008007d8                __wasPostTask
 .bss           0x008007dc        0x1 ./../../../../../../Atmel_lib/BitCloud_MEGARF_1_14_0/BitCloud/lib/libBc_Coordinator_Atmega128rfa1_Atmega128rfa1_Gcc.a(machwdRegAccessHandler.o)
 .bss           0x008007dd        0x1 ./../../../../../../Atmel_lib/BitCloud_MEGARF_1_14_0/BitCloud/lib/libBc_Coordinator_Atmega128rfa1_Atmega128rfa1_Gcc.a(machwdRndHandler.o)
 .bss           0x008007de        0x4 ./../../../../../../Atmel_lib/BitCloud_MEGARF_1_14_0/BitCloud/lib/libBc_Coordinator_Atmega128rfa1_Atmega128rfa1_Gcc.a(machwdSetHandler.o)
 .bss           0x008007e2        0x1 ./../../../../../../Atmel_lib/BitCloud_MEGARF_1_14_0/BitCloud/lib/libBc_Coordinator_Atmega128rfa1_Atmega128rfa1_Gcc.a(machwdTrxHandler.o)
 .bss           0x008007e3        0x2 ./../../../../../../Atmel_lib/BitCloud_MEGARF_1_14_0/BitCloud/lib/libBc_Coordinator_Atmega128rfa1_Atmega128rfa1_Gcc.a(machwdTxFrameHandler.o)
 .bss           0x008007e5        0x1 ./../../../../../../Atmel_lib/BitCloud_MEGARF_1_14_0/BitCloud/lib/libBc_Coordinator_Atmega128rfa1_Atmega128rfa1_Gcc.a(machwiScanHandler.o)
 .bss           0x008007e6        0x1 ./../../../../../../Atmel_lib/BitCloud_MEGARF_1_14_0/BitCloud/lib/libBc_Coordinator_Atmega128rfa1_Atmega128rfa1_Gcc.a(phyRfIrqDispatcher.o)
 .bss           0x008007e7        0x1 ./../../../../../../Atmel_lib/BitCloud_MEGARF_1_14_0/BitCloud/lib/libBc_Coordinator_Atmega128rfa1_Atmega128rfa1_Gcc.a(phySet.o)
 .bss           0x008007e8        0x1 ./../../../../../../Atmel_lib/BitCloud_MEGARF_1_14_0/BitCloud/lib/libBc_Coordinator_Atmega128rfa1_Atmega128rfa1_Gcc.a(machwdCalibHandler.o)
 .bss           0x008007e9        0x1 ./../../../../../../Atmel_lib/BitCloud_MEGARF_1_14_0/BitCloud/lib/libBc_Coordinator_Atmega128rfa1_Atmega128rfa1_Gcc.a(machwdEdHandler.o)
 .bss           0x008007ea        0x4 ./../../../../../../Atmel_lib/BitCloud_MEGARF_1_14_0/BitCloud/lib/libBc_Coordinator_Atmega128rfa1_Atmega128rfa1_Gcc.a(machwdHandlerCtrl.o)
                0x008007ea                __handlers
                0x008007ec                __macRequest
 .bss           0x008007ee       0x20 ./../../../../../../Atmel_lib/BitCloud_MEGARF_1_14_0/BitCloud/lib/libBc_Coordinator_Atmega128rfa1_Atmega128rfa1_Gcc.a(machwiTransactionHash.o)
 .bss           0x0080080e        0x8 ./../../../../../../Atmel_lib/BitCloud_MEGARF_1_14_0/BitCloud/lib/libHAL_AtmlStk600_Atmega128rfa1_8Mhz_Gcc.a(halUid.o)
 *(COMMON)
 COMMON         0x00800816       0x2e Coordinator_Stk600_Atmega128rfa1_8Mhz_Gcc/Obj/pdsMem.o
                0x00800816                pdsMem
 COMMON         0x00800844        0x6 Coordinator_Stk600_Atmega128rfa1_8Mhz_Gcc/Obj/fakeBSP.o
                0x00800844                readBatteryDataCallback
                0x00800846                readTemperatureDataCallback
                0x00800848                readLightDataCallback
 COMMON         0x0080084a      0x940 Coordinator_Stk600_Atmega128rfa1_8Mhz_Gcc/Obj/csMem.o
                0x0080084a                stackBuffers
                0x0080105f                csAIB
                0x00801061                csZIB
                0x00801090                csPIB
                0x008010c8                csSIB
                0x00801104                csNIB
 COMMON         0x0080118a        0x8 ./../../../../../../Atmel_lib/BitCloud_MEGARF_1_14_0/BitCloud/lib/libHAL_AtmlStk600_Atmega128rfa1_8Mhz_Gcc.a(eeprom.o)
                0x0080118a                halEepromParams
                0x00801190                halEepromDone
 COMMON         0x00801192        0x2 ./../../../../../../Atmel_lib/BitCloud_MEGARF_1_14_0/BitCloud/lib/libHAL_AtmlStk600_Atmega128rfa1_8Mhz_Gcc.a(halTaskManager.o)
                0x00801192                extHandler
 COMMON         0x00801194        0xa ./../../../../../../Atmel_lib/BitCloud_MEGARF_1_14_0/BitCloud/lib/libHAL_AtmlStk600_Atmega128rfa1_8Mhz_Gcc.a(halSpi.o)
                0x00801194                rxSlaveBuffer
 COMMON         0x0080119e       0xbc ./../../../../../../Atmel_lib/BitCloud_MEGARF_1_14_0/BitCloud/lib/libBc_Coordinator_Atmega128rfa1_Atmega128rfa1_Gcc.a(aps.o)
                0x0080119e                apsMem
 COMMON         0x0080125a      0x10c ./../../../../../../Atmel_lib/BitCloud_MEGARF_1_14_0/BitCloud/lib/libBc_Coordinator_Atmega128rfa1_Atmega128rfa1_Gcc.a(nwk.o)
                0x0080125a                nwkMem
 COMMON         0x00801366      0x3ab ./../../../../../../Atmel_lib/BitCloud_MEGARF_1_14_0/BitCloud/lib/libBc_Coordinator_Atmega128rfa1_Atmega128rfa1_Gcc.a(zdo.o)
                0x00801366                zdoMem
 COMMON         0x00801711       0x88 ./../../../../../../Atmel_lib/BitCloud_MEGARF_1_14_0/BitCloud/lib/libBc_Coordinator_Atmega128rfa1_Atmega128rfa1_Gcc.a(macMem.o)
                0x00801711                macMem
 COMMON         0x00801799        0x1 ./../../../../../../Atmel_lib/BitCloud_MEGARF_1_14_0/BitCloud/lib/libBc_Coordinator_Atmega128rfa1_Atmega128rfa1_Gcc.a(machwdTrxCtrl.o)
                0x00801799                __sourceHandler
 COMMON         0x0080179a        0x1 ./../../../../../../Atmel_lib/BitCloud_MEGARF_1_14_0/BitCloud/lib/libBc_Coordinator_Atmega128rfa1_Atmega128rfa1_Gcc.a(machwdEdHandler.o)
                0x0080179a                __energyLevel
 COMMON         0x0080179b       0x21 ./../../../../../../Atmel_lib/BitCloud_MEGARF_1_14_0/BitCloud/lib/libBc_Coordinator_Atmega128rfa1_Atmega128rfa1_Gcc.a(machwdFrameRoutine.o)
                0x0080179b                txBuffer
 COMMON         0x008017bc        0x5 ./../../../../../../Atmel_lib/BitCloud_MEGARF_1_14_0/BitCloud/lib/libHAL_AtmlStk600_Atmega128rfa1_8Mhz_Gcc.a(halMacIsr.o)
                0x008017bc                __rtimer
                0x008017c1                PROVIDE (__bss_end, .)

.noinit         0x008017c1        0x1 load address 0x00018013
 *(.noinit*)
 .noinit        0x008017c1        0x1 ./../../../../../../Atmel_lib/BitCloud_MEGARF_1_14_0/BitCloud/lib/WdtInitatmega128rfa1_Gcc.o
                0x008017c1                halResetReason
                0x008017c2                PROVIDE (__heap_start, .)
                0x008017c2                __stack_start = .
                0x00016a52                __data_load_start = LOADADDR (.data)
                0x00016b02                __data_load_end = (__data_load_start + SIZEOF (.data))

.eeprom         0x00810000     0x1000
 FILL mask 0xff
                0x00810000        0x1 BYTE 0xff
                0x00811000                . = ((. + 0x1000) - 0x1)
 *fill*         0x00810001      0xfff ff

/DISCARD/
 *(.init9)
 *(.fini*)
Address of section .data set to 0x800200
LOAD Coordinator_Stk600_Atmega128rfa1_8Mhz_Gcc/Obj/WSNSensorManager.o
LOAD Coordinator_Stk600_Atmega128rfa1_8Mhz_Gcc/Obj/WSNVisualizer.o
LOAD Coordinator_Stk600_Atmega128rfa1_8Mhz_Gcc/Obj/WSNEndDevice.o
LOAD Coordinator_Stk600_Atmega128rfa1_8Mhz_Gcc/Obj/WSNCoord.o
LOAD Coordinator_Stk600_Atmega128rfa1_8Mhz_Gcc/Obj/WSNMessageSender.o
LOAD Coordinator_Stk600_Atmega128rfa1_8Mhz_Gcc/Obj/WSNCommandHandler.o
LOAD Coordinator_Stk600_Atmega128rfa1_8Mhz_Gcc/Obj/WSNRouter.o
LOAD Coordinator_Stk600_Atmega128rfa1_8Mhz_Gcc/Obj/WSNDemoApp.o
LOAD Coordinator_Stk600_Atmega128rfa1_8Mhz_Gcc/Obj/WSNUARTManager.o
LOAD Coordinator_Stk600_Atmega128rfa1_8Mhz_Gcc/Obj/pdsMem.o
LOAD Coordinator_Stk600_Atmega128rfa1_8Mhz_Gcc/Obj/pdsWriteData.o
LOAD Coordinator_Stk600_Atmega128rfa1_8Mhz_Gcc/Obj/pdsDataServer.o
LOAD Coordinator_Stk600_Atmega128rfa1_8Mhz_Gcc/Obj/pdsInit.o
LOAD Coordinator_Stk600_Atmega128rfa1_8Mhz_Gcc/Obj/pdsTimer.o
LOAD Coordinator_Stk600_Atmega128rfa1_8Mhz_Gcc/Obj/pdsEvents.o
LOAD Coordinator_Stk600_Atmega128rfa1_8Mhz_Gcc/Obj/pdsMemAccess.o
LOAD Coordinator_Stk600_Atmega128rfa1_8Mhz_Gcc/Obj/pdsCrcService.o
LOAD Coordinator_Stk600_Atmega128rfa1_8Mhz_Gcc/Obj/fakeBSP.o
LOAD Coordinator_Stk600_Atmega128rfa1_8Mhz_Gcc/Obj/buttons.o
LOAD Coordinator_Stk600_Atmega128rfa1_8Mhz_Gcc/Obj/leds.o
LOAD Coordinator_Stk600_Atmega128rfa1_8Mhz_Gcc/Obj/bspTaskManager.o
LOAD Coordinator_Stk600_Atmega128rfa1_8Mhz_Gcc/Obj/csPersistentMem.o
LOAD Coordinator_Stk600_Atmega128rfa1_8Mhz_Gcc/Obj/csMem.o
LOAD Coordinator_Stk600_Atmega128rfa1_8Mhz_Gcc/Obj/configServer.o
START GROUP
LOAD ./../../../../../../Atmel_lib/BitCloud_MEGARF_1_14_0/BitCloud/lib/libHAL_AtmlStk600_Atmega128rfa1_8Mhz_Gcc.a
LOAD ./../../../../../../Atmel_lib/BitCloud_MEGARF_1_14_0/BitCloud/lib/libBc_Coordinator_Atmega128rfa1_Atmega128rfa1_Gcc.a
LOAD ./../../../../../../Atmel_lib/BitCloud_MEGARF_1_14_0/BitCloud/lib/WdtInitatmega128rfa1_Gcc.o
END GROUP
LOAD c:/program files (x86)/atmel/avr tools/avr toolchain/bin/../lib/gcc/avr/4.5.1/avr51\libgcc.a
LOAD c:/program files (x86)/atmel/avr tools/avr toolchain/bin/../lib/gcc/avr/4.5.1/../../../../avr/lib/avr51\libc.a
LOAD c:/program files (x86)/atmel/avr tools/avr toolchain/bin/../lib/gcc/avr/4.5.1/avr51\libgcc.a
OUTPUT(Coordinator_Stk600_Atmega128rfa1_8Mhz_Gcc/Exe/WSNDemo.elf elf32-avr)
LOAD linker stubs

.stab           0x00000000      0x9d8
 .stab          0x00000000      0x6cc c:/program files (x86)/atmel/avr tools/avr toolchain/bin/../lib/gcc/avr/4.5.1/../../../../avr/lib/avr51/crtm128rfa1.o
 .stab          0x000006cc       0x84 c:/program files (x86)/atmel/avr tools/avr toolchain/bin/../lib/gcc/avr/4.5.1/../../../../avr/lib/avr51\libc.a(memcpy_P.o)
                                 0x90 (size before relaxing)
 .stab          0x00000750       0xb4 c:/program files (x86)/atmel/avr tools/avr toolchain/bin/../lib/gcc/avr/4.5.1/../../../../avr/lib/avr51\libc.a(memcmp.o)
                                 0xc0 (size before relaxing)
 .stab          0x00000804       0x84 c:/program files (x86)/atmel/avr tools/avr toolchain/bin/../lib/gcc/avr/4.5.1/../../../../avr/lib/avr51\libc.a(memcpy.o)
                                 0x90 (size before relaxing)
 .stab          0x00000888       0xe4 c:/program files (x86)/atmel/avr tools/avr toolchain/bin/../lib/gcc/avr/4.5.1/../../../../avr/lib/avr51\libc.a(memmove.o)
                                 0xf0 (size before relaxing)
 .stab          0x0000096c       0x6c c:/program files (x86)/atmel/avr tools/avr toolchain/bin/../lib/gcc/avr/4.5.1/../../../../avr/lib/avr51\libc.a(memset.o)
                                 0x78 (size before relaxing)

.stabstr        0x00000000      0x2e0
 .stabstr       0x00000000      0x2e0 c:/program files (x86)/atmel/avr tools/avr toolchain/bin/../lib/gcc/avr/4.5.1/../../../../avr/lib/avr51/crtm128rfa1.o

.debug_abbrev   0x00000000     0x2840
 .debug_abbrev  0x00000000      0x142 Coordinator_Stk600_Atmega128rfa1_8Mhz_Gcc/Obj/WSNSensorManager.o
 .debug_abbrev  0x00000142       0xb0 Coordinator_Stk600_Atmega128rfa1_8Mhz_Gcc/Obj/WSNVisualizer.o
 .debug_abbrev  0x000001f2        0x1 Coordinator_Stk600_Atmega128rfa1_8Mhz_Gcc/Obj/WSNEndDevice.o
 .debug_abbrev  0x000001f3      0x217 Coordinator_Stk600_Atmega128rfa1_8Mhz_Gcc/Obj/WSNCoord.o
 .debug_abbrev  0x0000040a      0x293 Coordinator_Stk600_Atmega128rfa1_8Mhz_Gcc/Obj/WSNMessageSender.o
 .debug_abbrev  0x0000069d      0x1f1 Coordinator_Stk600_Atmega128rfa1_8Mhz_Gcc/Obj/WSNCommandHandler.o
 .debug_abbrev  0x0000088e        0x1 Coordinator_Stk600_Atmega128rfa1_8Mhz_Gcc/Obj/WSNRouter.o
 .debug_abbrev  0x0000088f      0x3a7 Coordinator_Stk600_Atmega128rfa1_8Mhz_Gcc/Obj/WSNDemoApp.o
 .debug_abbrev  0x00000c36      0x201 Coordinator_Stk600_Atmega128rfa1_8Mhz_Gcc/Obj/WSNUARTManager.o
 .debug_abbrev  0x00000e37       0xe0 Coordinator_Stk600_Atmega128rfa1_8Mhz_Gcc/Obj/pdsMem.o
 .debug_abbrev  0x00000f17      0x222 Coordinator_Stk600_Atmega128rfa1_8Mhz_Gcc/Obj/pdsWriteData.o
 .debug_abbrev  0x00001139      0x1dd Coordinator_Stk600_Atmega128rfa1_8Mhz_Gcc/Obj/pdsDataServer.o
 .debug_abbrev  0x00001316      0x179 Coordinator_Stk600_Atmega128rfa1_8Mhz_Gcc/Obj/pdsInit.o
 .debug_abbrev  0x0000148f      0x130 Coordinator_Stk600_Atmega128rfa1_8Mhz_Gcc/Obj/pdsTimer.o
 .debug_abbrev  0x000015bf      0x161 Coordinator_Stk600_Atmega128rfa1_8Mhz_Gcc/Obj/pdsEvents.o
 .debug_abbrev  0x00001720      0x1d1 Coordinator_Stk600_Atmega128rfa1_8Mhz_Gcc/Obj/pdsMemAccess.o
 .debug_abbrev  0x000018f1      0x14d Coordinator_Stk600_Atmega128rfa1_8Mhz_Gcc/Obj/pdsCrcService.o
 .debug_abbrev  0x00001a3e      0x1e7 Coordinator_Stk600_Atmega128rfa1_8Mhz_Gcc/Obj/fakeBSP.o
 .debug_abbrev  0x00001c25      0x23b Coordinator_Stk600_Atmega128rfa1_8Mhz_Gcc/Obj/buttons.o
 .debug_abbrev  0x00001e60       0xd6 Coordinator_Stk600_Atmega128rfa1_8Mhz_Gcc/Obj/leds.o
 .debug_abbrev  0x00001f36      0x116 Coordinator_Stk600_Atmega128rfa1_8Mhz_Gcc/Obj/bspTaskManager.o
 .debug_abbrev  0x0000204c      0x1e0 Coordinator_Stk600_Atmega128rfa1_8Mhz_Gcc/Obj/csPersistentMem.o
 .debug_abbrev  0x0000222c      0x1eb Coordinator_Stk600_Atmega128rfa1_8Mhz_Gcc/Obj/csMem.o
 .debug_abbrev  0x00002417      0x26c Coordinator_Stk600_Atmega128rfa1_8Mhz_Gcc/Obj/configServer.o
 .debug_abbrev  0x00002683       0xf0 c:/program files (x86)/atmel/avr tools/avr toolchain/bin/../lib/gcc/avr/4.5.1/avr51\libgcc.a(_ashldi3.o)
 .debug_abbrev  0x00002773       0xcd c:/program files (x86)/atmel/avr tools/avr toolchain/bin/../lib/gcc/avr/4.5.1/../../../../avr/lib/avr51\libc.a(rand.o)

.debug_info     0x00000000    0x15e31
 .debug_info    0x00000000      0x696 Coordinator_Stk600_Atmega128rfa1_8Mhz_Gcc/Obj/WSNSensorManager.o
 .debug_info    0x00000696      0x4ce Coordinator_Stk600_Atmega128rfa1_8Mhz_Gcc/Obj/WSNVisualizer.o
 .debug_info    0x00000b64        0x0 Coordinator_Stk600_Atmega128rfa1_8Mhz_Gcc/Obj/WSNEndDevice.o
 .debug_info    0x00000b64      0xf15 Coordinator_Stk600_Atmega128rfa1_8Mhz_Gcc/Obj/WSNCoord.o
 .debug_info    0x00001a79      0xfc2 Coordinator_Stk600_Atmega128rfa1_8Mhz_Gcc/Obj/WSNMessageSender.o
 .debug_info    0x00002a3b      0x963 Coordinator_Stk600_Atmega128rfa1_8Mhz_Gcc/Obj/WSNCommandHandler.o
 .debug_info    0x0000339e        0x0 Coordinator_Stk600_Atmega128rfa1_8Mhz_Gcc/Obj/WSNRouter.o
 .debug_info    0x0000339e     0x2bd5 Coordinator_Stk600_Atmega128rfa1_8Mhz_Gcc/Obj/WSNDemoApp.o
 .debug_info    0x00005f73      0xac6 Coordinator_Stk600_Atmega128rfa1_8Mhz_Gcc/Obj/WSNUARTManager.o
 .debug_info    0x00006a39      0x4e1 Coordinator_Stk600_Atmega128rfa1_8Mhz_Gcc/Obj/pdsMem.o
 .debug_info    0x00006f1a      0x98c Coordinator_Stk600_Atmega128rfa1_8Mhz_Gcc/Obj/pdsWriteData.o
 .debug_info    0x000078a6      0xbe4 Coordinator_Stk600_Atmega128rfa1_8Mhz_Gcc/Obj/pdsDataServer.o
 .debug_info    0x0000848a      0x6ee Coordinator_Stk600_Atmega128rfa1_8Mhz_Gcc/Obj/pdsInit.o
 .debug_info    0x00008b78      0x57e Coordinator_Stk600_Atmega128rfa1_8Mhz_Gcc/Obj/pdsTimer.o
 .debug_info    0x000090f6      0x77a Coordinator_Stk600_Atmega128rfa1_8Mhz_Gcc/Obj/pdsEvents.o
 .debug_info    0x00009870      0x88d Coordinator_Stk600_Atmega128rfa1_8Mhz_Gcc/Obj/pdsMemAccess.o
 .debug_info    0x0000a0fd      0x733 Coordinator_Stk600_Atmega128rfa1_8Mhz_Gcc/Obj/pdsCrcService.o
 .debug_info    0x0000a830      0x5ed Coordinator_Stk600_Atmega128rfa1_8Mhz_Gcc/Obj/fakeBSP.o
 .debug_info    0x0000ae1d      0x5df Coordinator_Stk600_Atmega128rfa1_8Mhz_Gcc/Obj/buttons.o
 .debug_info    0x0000b3fc      0x2d8 Coordinator_Stk600_Atmega128rfa1_8Mhz_Gcc/Obj/leds.o
 .debug_info    0x0000b6d4      0x237 Coordinator_Stk600_Atmega128rfa1_8Mhz_Gcc/Obj/bspTaskManager.o
 .debug_info    0x0000b90b     0x365a Coordinator_Stk600_Atmega128rfa1_8Mhz_Gcc/Obj/csPersistentMem.o
 .debug_info    0x0000ef65     0x3575 Coordinator_Stk600_Atmega128rfa1_8Mhz_Gcc/Obj/csMem.o
 .debug_info    0x000124da     0x36b3 Coordinator_Stk600_Atmega128rfa1_8Mhz_Gcc/Obj/configServer.o
 .debug_info    0x00015b8d      0x184 c:/program files (x86)/atmel/avr tools/avr toolchain/bin/../lib/gcc/avr/4.5.1/avr51\libgcc.a(_ashldi3.o)
 .debug_info    0x00015d11      0x120 c:/program files (x86)/atmel/avr tools/avr toolchain/bin/../lib/gcc/avr/4.5.1/../../../../avr/lib/avr51\libc.a(rand.o)

.debug_line     0x00000000     0x897c
 .debug_line    0x00000000      0x43f Coordinator_Stk600_Atmega128rfa1_8Mhz_Gcc/Obj/WSNSensorManager.o
 .debug_line    0x0000043f      0x450 Coordinator_Stk600_Atmega128rfa1_8Mhz_Gcc/Obj/WSNVisualizer.o
 .debug_line    0x0000088f       0x24 Coordinator_Stk600_Atmega128rfa1_8Mhz_Gcc/Obj/WSNEndDevice.o
 .debug_line    0x000008b3      0x714 Coordinator_Stk600_Atmega128rfa1_8Mhz_Gcc/Obj/WSNCoord.o
 .debug_line    0x00000fc7      0x690 Coordinator_Stk600_Atmega128rfa1_8Mhz_Gcc/Obj/WSNMessageSender.o
 .debug_line    0x00001657      0x46b Coordinator_Stk600_Atmega128rfa1_8Mhz_Gcc/Obj/WSNCommandHandler.o
 .debug_line    0x00001ac2       0x24 Coordinator_Stk600_Atmega128rfa1_8Mhz_Gcc/Obj/WSNRouter.o
 .debug_line    0x00001ae6      0xc64 Coordinator_Stk600_Atmega128rfa1_8Mhz_Gcc/Obj/WSNDemoApp.o
 .debug_line    0x0000274a      0x76f Coordinator_Stk600_Atmega128rfa1_8Mhz_Gcc/Obj/WSNUARTManager.o
 .debug_line    0x00002eb9      0x327 Coordinator_Stk600_Atmega128rfa1_8Mhz_Gcc/Obj/pdsMem.o
 .debug_line    0x000031e0      0x741 Coordinator_Stk600_Atmega128rfa1_8Mhz_Gcc/Obj/pdsWriteData.o
 .debug_line    0x00003921      0x802 Coordinator_Stk600_Atmega128rfa1_8Mhz_Gcc/Obj/pdsDataServer.o
 .debug_line    0x00004123      0x47c Coordinator_Stk600_Atmega128rfa1_8Mhz_Gcc/Obj/pdsInit.o
 .debug_line    0x0000459f      0x433 Coordinator_Stk600_Atmega128rfa1_8Mhz_Gcc/Obj/pdsTimer.o
 .debug_line    0x000049d2      0x490 Coordinator_Stk600_Atmega128rfa1_8Mhz_Gcc/Obj/pdsEvents.o
 .debug_line    0x00004e62      0x61b Coordinator_Stk600_Atmega128rfa1_8Mhz_Gcc/Obj/pdsMemAccess.o
 .debug_line    0x0000547d      0x48c Coordinator_Stk600_Atmega128rfa1_8Mhz_Gcc/Obj/pdsCrcService.o
 .debug_line    0x00005909      0x57d Coordinator_Stk600_Atmega128rfa1_8Mhz_Gcc/Obj/fakeBSP.o
 .debug_line    0x00005e86      0x6aa Coordinator_Stk600_Atmega128rfa1_8Mhz_Gcc/Obj/buttons.o
 .debug_line    0x00006530      0x34d Coordinator_Stk600_Atmega128rfa1_8Mhz_Gcc/Obj/leds.o
 .debug_line    0x0000687d      0x323 Coordinator_Stk600_Atmega128rfa1_8Mhz_Gcc/Obj/bspTaskManager.o
 .debug_line    0x00006ba0      0x87e Coordinator_Stk600_Atmega128rfa1_8Mhz_Gcc/Obj/csPersistentMem.o
 .debug_line    0x0000741e      0x875 Coordinator_Stk600_Atmega128rfa1_8Mhz_Gcc/Obj/csMem.o
 .debug_line    0x00007c93      0xa73 Coordinator_Stk600_Atmega128rfa1_8Mhz_Gcc/Obj/configServer.o
 .debug_line    0x00008706      0x113 c:/program files (x86)/atmel/avr tools/avr toolchain/bin/../lib/gcc/avr/4.5.1/avr51\libgcc.a(_ashldi3.o)
 .debug_line    0x00008819      0x163 c:/program files (x86)/atmel/avr tools/avr toolchain/bin/../lib/gcc/avr/4.5.1/../../../../avr/lib/avr51\libc.a(rand.o)

.debug_frame    0x00000000      0xae0
 .debug_frame   0x00000000       0x70 Coordinator_Stk600_Atmega128rfa1_8Mhz_Gcc/Obj/WSNSensorManager.o
 .debug_frame   0x00000070       0xd0 Coordinator_Stk600_Atmega128rfa1_8Mhz_Gcc/Obj/WSNVisualizer.o
 .debug_frame   0x00000140       0xa0 Coordinator_Stk600_Atmega128rfa1_8Mhz_Gcc/Obj/WSNCoord.o
 .debug_frame   0x000001e0       0x70 Coordinator_Stk600_Atmega128rfa1_8Mhz_Gcc/Obj/WSNMessageSender.o
 .debug_frame   0x00000250       0x50 Coordinator_Stk600_Atmega128rfa1_8Mhz_Gcc/Obj/WSNCommandHandler.o
 .debug_frame   0x000002a0      0x170 Coordinator_Stk600_Atmega128rfa1_8Mhz_Gcc/Obj/WSNDemoApp.o
 .debug_frame   0x00000410       0x90 Coordinator_Stk600_Atmega128rfa1_8Mhz_Gcc/Obj/WSNUARTManager.o
 .debug_frame   0x000004a0       0x90 Coordinator_Stk600_Atmega128rfa1_8Mhz_Gcc/Obj/pdsWriteData.o
 .debug_frame   0x00000530       0xf0 Coordinator_Stk600_Atmega128rfa1_8Mhz_Gcc/Obj/pdsDataServer.o
 .debug_frame   0x00000620       0x20 Coordinator_Stk600_Atmega128rfa1_8Mhz_Gcc/Obj/pdsInit.o
 .debug_frame   0x00000640       0x60 Coordinator_Stk600_Atmega128rfa1_8Mhz_Gcc/Obj/pdsTimer.o
 .debug_frame   0x000006a0       0x30 Coordinator_Stk600_Atmega128rfa1_8Mhz_Gcc/Obj/pdsEvents.o
 .debug_frame   0x000006d0       0x70 Coordinator_Stk600_Atmega128rfa1_8Mhz_Gcc/Obj/pdsMemAccess.o
 .debug_frame   0x00000740       0x40 Coordinator_Stk600_Atmega128rfa1_8Mhz_Gcc/Obj/pdsCrcService.o
 .debug_frame   0x00000780      0x110 Coordinator_Stk600_Atmega128rfa1_8Mhz_Gcc/Obj/fakeBSP.o
 .debug_frame   0x00000890       0xd0 Coordinator_Stk600_Atmega128rfa1_8Mhz_Gcc/Obj/buttons.o
 .debug_frame   0x00000960       0x60 Coordinator_Stk600_Atmega128rfa1_8Mhz_Gcc/Obj/leds.o
 .debug_frame   0x000009c0       0x20 Coordinator_Stk600_Atmega128rfa1_8Mhz_Gcc/Obj/bspTaskManager.o
 .debug_frame   0x000009e0       0x20 Coordinator_Stk600_Atmega128rfa1_8Mhz_Gcc/Obj/csMem.o
 .debug_frame   0x00000a00       0x70 Coordinator_Stk600_Atmega128rfa1_8Mhz_Gcc/Obj/configServer.o
 .debug_frame   0x00000a70       0x20 c:/program files (x86)/atmel/avr tools/avr toolchain/bin/../lib/gcc/avr/4.5.1/avr51\libgcc.a(_ashldi3.o)
 .debug_frame   0x00000a90       0x50 c:/program files (x86)/atmel/avr tools/avr toolchain/bin/../lib/gcc/avr/4.5.1/../../../../avr/lib/avr51\libc.a(rand.o)

.debug_loc      0x00000000     0x1b69
 .debug_loc     0x00000000       0x95 Coordinator_Stk600_Atmega128rfa1_8Mhz_Gcc/Obj/WSNSensorManager.o
 .debug_loc     0x00000095       0xf0 Coordinator_Stk600_Atmega128rfa1_8Mhz_Gcc/Obj/WSNCoord.o
 .debug_loc     0x00000185      0x2a2 Coordinator_Stk600_Atmega128rfa1_8Mhz_Gcc/Obj/WSNMessageSender.o
 .debug_loc     0x00000427      0x124 Coordinator_Stk600_Atmega128rfa1_8Mhz_Gcc/Obj/WSNCommandHandler.o
 .debug_loc     0x0000054b      0x308 Coordinator_Stk600_Atmega128rfa1_8Mhz_Gcc/Obj/WSNDemoApp.o
 .debug_loc     0x00000853      0x267 Coordinator_Stk600_Atmega128rfa1_8Mhz_Gcc/Obj/WSNUARTManager.o
 .debug_loc     0x00000aba      0x206 Coordinator_Stk600_Atmega128rfa1_8Mhz_Gcc/Obj/pdsWriteData.o
 .debug_loc     0x00000cc0      0x299 Coordinator_Stk600_Atmega128rfa1_8Mhz_Gcc/Obj/pdsDataServer.o
 .debug_loc     0x00000f59      0x112 Coordinator_Stk600_Atmega128rfa1_8Mhz_Gcc/Obj/pdsInit.o
 .debug_loc     0x0000106b       0x69 Coordinator_Stk600_Atmega128rfa1_8Mhz_Gcc/Obj/pdsTimer.o
 .debug_loc     0x000010d4       0x76 Coordinator_Stk600_Atmega128rfa1_8Mhz_Gcc/Obj/pdsEvents.o
 .debug_loc     0x0000114a      0x36d Coordinator_Stk600_Atmega128rfa1_8Mhz_Gcc/Obj/pdsMemAccess.o
 .debug_loc     0x000014b7      0x161 Coordinator_Stk600_Atmega128rfa1_8Mhz_Gcc/Obj/pdsCrcService.o
 .debug_loc     0x00001618       0x8d Coordinator_Stk600_Atmega128rfa1_8Mhz_Gcc/Obj/fakeBSP.o
 .debug_loc     0x000016a5      0x1c8 Coordinator_Stk600_Atmega128rfa1_8Mhz_Gcc/Obj/buttons.o
 .debug_loc     0x0000186d       0x29 Coordinator_Stk600_Atmega128rfa1_8Mhz_Gcc/Obj/leds.o
 .debug_loc     0x00001896       0x3c Coordinator_Stk600_Atmega128rfa1_8Mhz_Gcc/Obj/bspTaskManager.o
 .debug_loc     0x000018d2      0x116 Coordinator_Stk600_Atmega128rfa1_8Mhz_Gcc/Obj/configServer.o
 .debug_loc     0x000019e8       0x6d c:/program files (x86)/atmel/avr tools/avr toolchain/bin/../lib/gcc/avr/4.5.1/avr51\libgcc.a(_ashldi3.o)
 .debug_loc     0x00001a55      0x114 c:/program files (x86)/atmel/avr tools/avr toolchain/bin/../lib/gcc/avr/4.5.1/../../../../avr/lib/avr51\libc.a(rand.o)

.debug_pubnames
                0x00000000      0xea7
 .debug_pubnames
                0x00000000       0x5a Coordinator_Stk600_Atmega128rfa1_8Mhz_Gcc/Obj/WSNSensorManager.o
 .debug_pubnames
                0x0000005a      0x12c Coordinator_Stk600_Atmega128rfa1_8Mhz_Gcc/Obj/WSNVisualizer.o
 .debug_pubnames
                0x00000186       0x99 Coordinator_Stk600_Atmega128rfa1_8Mhz_Gcc/Obj/WSNCoord.o
 .debug_pubnames
                0x0000021f       0x62 Coordinator_Stk600_Atmega128rfa1_8Mhz_Gcc/Obj/WSNMessageSender.o
 .debug_pubnames
                0x00000281       0x65 Coordinator_Stk600_Atmega128rfa1_8Mhz_Gcc/Obj/WSNCommandHandler.o
 .debug_pubnames
                0x000002e6      0x172 Coordinator_Stk600_Atmega128rfa1_8Mhz_Gcc/Obj/WSNDemoApp.o
 .debug_pubnames
                0x00000458       0x5d Coordinator_Stk600_Atmega128rfa1_8Mhz_Gcc/Obj/WSNUARTManager.o
 .debug_pubnames
                0x000004b5       0x1d Coordinator_Stk600_Atmega128rfa1_8Mhz_Gcc/Obj/pdsMem.o
 .debug_pubnames
                0x000004d2       0xab Coordinator_Stk600_Atmega128rfa1_8Mhz_Gcc/Obj/pdsWriteData.o
 .debug_pubnames
                0x0000057d       0xfb Coordinator_Stk600_Atmega128rfa1_8Mhz_Gcc/Obj/pdsDataServer.o
 .debug_pubnames
                0x00000678       0x1f Coordinator_Stk600_Atmega128rfa1_8Mhz_Gcc/Obj/pdsInit.o
 .debug_pubnames
                0x00000697       0x51 Coordinator_Stk600_Atmega128rfa1_8Mhz_Gcc/Obj/pdsTimer.o
 .debug_pubnames
                0x000006e8       0x28 Coordinator_Stk600_Atmega128rfa1_8Mhz_Gcc/Obj/pdsEvents.o
 .debug_pubnames
                0x00000710       0xa9 Coordinator_Stk600_Atmega128rfa1_8Mhz_Gcc/Obj/pdsMemAccess.o
 .debug_pubnames
                0x000007b9       0x52 Coordinator_Stk600_Atmega128rfa1_8Mhz_Gcc/Obj/pdsCrcService.o
 .debug_pubnames
                0x0000080b      0x203 Coordinator_Stk600_Atmega128rfa1_8Mhz_Gcc/Obj/fakeBSP.o
 .debug_pubnames
                0x00000a0e       0x6a Coordinator_Stk600_Atmega128rfa1_8Mhz_Gcc/Obj/buttons.o
 .debug_pubnames
                0x00000a78       0x64 Coordinator_Stk600_Atmega128rfa1_8Mhz_Gcc/Obj/leds.o
 .debug_pubnames
                0x00000adc       0x37 Coordinator_Stk600_Atmega128rfa1_8Mhz_Gcc/Obj/bspTaskManager.o
 .debug_pubnames
                0x00000b13      0x209 Coordinator_Stk600_Atmega128rfa1_8Mhz_Gcc/Obj/csPersistentMem.o
 .debug_pubnames
                0x00000d1c       0xca Coordinator_Stk600_Atmega128rfa1_8Mhz_Gcc/Obj/csMem.o
 .debug_pubnames
                0x00000de6       0x71 Coordinator_Stk600_Atmega128rfa1_8Mhz_Gcc/Obj/configServer.o
 .debug_pubnames
                0x00000e57       0x20 c:/program files (x86)/atmel/avr tools/avr toolchain/bin/../lib/gcc/avr/4.5.1/avr51\libgcc.a(_ashldi3.o)
 .debug_pubnames
                0x00000e77       0x30 c:/program files (x86)/atmel/avr tools/avr toolchain/bin/../lib/gcc/avr/4.5.1/../../../../avr/lib/avr51\libc.a(rand.o)

.debug_pubtypes
                0x00000000     0x545a
 .debug_pubtypes
                0x00000000      0x16b Coordinator_Stk600_Atmega128rfa1_8Mhz_Gcc/Obj/WSNSensorManager.o
 .debug_pubtypes
                0x0000016b       0xb8 Coordinator_Stk600_Atmega128rfa1_8Mhz_Gcc/Obj/WSNVisualizer.o
 .debug_pubtypes
                0x00000223      0x3df Coordinator_Stk600_Atmega128rfa1_8Mhz_Gcc/Obj/WSNCoord.o
 .debug_pubtypes
                0x00000602      0x38a Coordinator_Stk600_Atmega128rfa1_8Mhz_Gcc/Obj/WSNMessageSender.o
 .debug_pubtypes
                0x0000098c      0x2b4 Coordinator_Stk600_Atmega128rfa1_8Mhz_Gcc/Obj/WSNCommandHandler.o
 .debug_pubtypes
                0x00000c40      0x910 Coordinator_Stk600_Atmega128rfa1_8Mhz_Gcc/Obj/WSNDemoApp.o
 .debug_pubtypes
                0x00001550      0x227 Coordinator_Stk600_Atmega128rfa1_8Mhz_Gcc/Obj/WSNUARTManager.o
 .debug_pubtypes
                0x00001777      0x16b Coordinator_Stk600_Atmega128rfa1_8Mhz_Gcc/Obj/pdsMem.o
 .debug_pubtypes
                0x000018e2      0x210 Coordinator_Stk600_Atmega128rfa1_8Mhz_Gcc/Obj/pdsWriteData.o
 .debug_pubtypes
                0x00001af2      0x255 Coordinator_Stk600_Atmega128rfa1_8Mhz_Gcc/Obj/pdsDataServer.o
 .debug_pubtypes
                0x00001d47      0x1b5 Coordinator_Stk600_Atmega128rfa1_8Mhz_Gcc/Obj/pdsInit.o
 .debug_pubtypes
                0x00001efc      0x16b Coordinator_Stk600_Atmega128rfa1_8Mhz_Gcc/Obj/pdsTimer.o
 .debug_pubtypes
                0x00002067      0x230 Coordinator_Stk600_Atmega128rfa1_8Mhz_Gcc/Obj/pdsEvents.o
 .debug_pubtypes
                0x00002297      0x1ec Coordinator_Stk600_Atmega128rfa1_8Mhz_Gcc/Obj/pdsMemAccess.o
 .debug_pubtypes
                0x00002483      0x210 Coordinator_Stk600_Atmega128rfa1_8Mhz_Gcc/Obj/pdsCrcService.o
 .debug_pubtypes
                0x00002693       0x7a Coordinator_Stk600_Atmega128rfa1_8Mhz_Gcc/Obj/fakeBSP.o
 .debug_pubtypes
                0x0000270d       0xda Coordinator_Stk600_Atmega128rfa1_8Mhz_Gcc/Obj/buttons.o
 .debug_pubtypes
                0x000027e7       0x2b Coordinator_Stk600_Atmega128rfa1_8Mhz_Gcc/Obj/leds.o
 .debug_pubtypes
                0x00002812       0x49 Coordinator_Stk600_Atmega128rfa1_8Mhz_Gcc/Obj/bspTaskManager.o
 .debug_pubtypes
                0x0000285b      0xe7c Coordinator_Stk600_Atmega128rfa1_8Mhz_Gcc/Obj/csPersistentMem.o
 .debug_pubtypes
                0x000036d7      0xea9 Coordinator_Stk600_Atmega128rfa1_8Mhz_Gcc/Obj/csMem.o
 .debug_pubtypes
                0x00004580      0xe66 Coordinator_Stk600_Atmega128rfa1_8Mhz_Gcc/Obj/configServer.o
 .debug_pubtypes
                0x000053e6       0x62 c:/program files (x86)/atmel/avr tools/avr toolchain/bin/../lib/gcc/avr/4.5.1/avr51\libgcc.a(_ashldi3.o)
 .debug_pubtypes
                0x00005448       0x12 c:/program files (x86)/atmel/avr tools/avr toolchain/bin/../lib/gcc/avr/4.5.1/../../../../avr/lib/avr51\libc.a(rand.o)

.debug_aranges  0x00000000      0x6d0
 .debug_aranges
                0x00000000       0x48 Coordinator_Stk600_Atmega128rfa1_8Mhz_Gcc/Obj/WSNSensorManager.o
 .debug_aranges
                0x00000048       0x78 Coordinator_Stk600_Atmega128rfa1_8Mhz_Gcc/Obj/WSNVisualizer.o
 .debug_aranges
                0x000000c0       0x60 Coordinator_Stk600_Atmega128rfa1_8Mhz_Gcc/Obj/WSNCoord.o
 .debug_aranges
                0x00000120       0x48 Coordinator_Stk600_Atmega128rfa1_8Mhz_Gcc/Obj/WSNMessageSender.o
 .debug_aranges
                0x00000168       0x38 Coordinator_Stk600_Atmega128rfa1_8Mhz_Gcc/Obj/WSNCommandHandler.o
 .debug_aranges
                0x000001a0       0xc8 Coordinator_Stk600_Atmega128rfa1_8Mhz_Gcc/Obj/WSNDemoApp.o
 .debug_aranges
                0x00000268       0x58 Coordinator_Stk600_Atmega128rfa1_8Mhz_Gcc/Obj/WSNUARTManager.o
 .debug_aranges
                0x000002c0       0x58 Coordinator_Stk600_Atmega128rfa1_8Mhz_Gcc/Obj/pdsWriteData.o
 .debug_aranges
                0x00000318       0x88 Coordinator_Stk600_Atmega128rfa1_8Mhz_Gcc/Obj/pdsDataServer.o
 .debug_aranges
                0x000003a0       0x20 Coordinator_Stk600_Atmega128rfa1_8Mhz_Gcc/Obj/pdsInit.o
 .debug_aranges
                0x000003c0       0x40 Coordinator_Stk600_Atmega128rfa1_8Mhz_Gcc/Obj/pdsTimer.o
 .debug_aranges
                0x00000400       0x28 Coordinator_Stk600_Atmega128rfa1_8Mhz_Gcc/Obj/pdsEvents.o
 .debug_aranges
                0x00000428       0x48 Coordinator_Stk600_Atmega128rfa1_8Mhz_Gcc/Obj/pdsMemAccess.o
 .debug_aranges
                0x00000470       0x30 Coordinator_Stk600_Atmega128rfa1_8Mhz_Gcc/Obj/pdsCrcService.o
 .debug_aranges
                0x000004a0       0x98 Coordinator_Stk600_Atmega128rfa1_8Mhz_Gcc/Obj/fakeBSP.o
 .debug_aranges
                0x00000538       0x78 Coordinator_Stk600_Atmega128rfa1_8Mhz_Gcc/Obj/buttons.o
 .debug_aranges
                0x000005b0       0x40 Coordinator_Stk600_Atmega128rfa1_8Mhz_Gcc/Obj/leds.o
 .debug_aranges
                0x000005f0       0x20 Coordinator_Stk600_Atmega128rfa1_8Mhz_Gcc/Obj/bspTaskManager.o
 .debug_aranges
                0x00000610       0x20 Coordinator_Stk600_Atmega128rfa1_8Mhz_Gcc/Obj/csMem.o
 .debug_aranges
                0x00000630       0x48 Coordinator_Stk600_Atmega128rfa1_8Mhz_Gcc/Obj/configServer.o
 .debug_aranges
                0x00000678       0x20 c:/program files (x86)/atmel/avr tools/avr toolchain/bin/../lib/gcc/avr/4.5.1/avr51\libgcc.a(_ashldi3.o)
 .debug_aranges
                0x00000698       0x38 c:/program files (x86)/atmel/avr tools/avr toolchain/bin/../lib/gcc/avr/4.5.1/../../../../avr/lib/avr51\libc.a(rand.o)

.debug_ranges   0x00000000      0x608
 .debug_ranges  0x00000000       0x38 Coordinator_Stk600_Atmega128rfa1_8Mhz_Gcc/Obj/WSNSensorManager.o
 .debug_ranges  0x00000038       0x68 Coordinator_Stk600_Atmega128rfa1_8Mhz_Gcc/Obj/WSNVisualizer.o
 .debug_ranges  0x000000a0       0x50 Coordinator_Stk600_Atmega128rfa1_8Mhz_Gcc/Obj/WSNCoord.o
 .debug_ranges  0x000000f0       0x38 Coordinator_Stk600_Atmega128rfa1_8Mhz_Gcc/Obj/WSNMessageSender.o
 .debug_ranges  0x00000128       0x28 Coordinator_Stk600_Atmega128rfa1_8Mhz_Gcc/Obj/WSNCommandHandler.o
 .debug_ranges  0x00000150       0xd0 Coordinator_Stk600_Atmega128rfa1_8Mhz_Gcc/Obj/WSNDemoApp.o
 .debug_ranges  0x00000220       0x60 Coordinator_Stk600_Atmega128rfa1_8Mhz_Gcc/Obj/WSNUARTManager.o
 .debug_ranges  0x00000280       0x78 Coordinator_Stk600_Atmega128rfa1_8Mhz_Gcc/Obj/pdsWriteData.o
 .debug_ranges  0x000002f8       0x90 Coordinator_Stk600_Atmega128rfa1_8Mhz_Gcc/Obj/pdsDataServer.o
 .debug_ranges  0x00000388       0x10 Coordinator_Stk600_Atmega128rfa1_8Mhz_Gcc/Obj/pdsInit.o
 .debug_ranges  0x00000398       0x30 Coordinator_Stk600_Atmega128rfa1_8Mhz_Gcc/Obj/pdsTimer.o
 .debug_ranges  0x000003c8       0x18 Coordinator_Stk600_Atmega128rfa1_8Mhz_Gcc/Obj/pdsEvents.o
 .debug_ranges  0x000003e0       0x68 Coordinator_Stk600_Atmega128rfa1_8Mhz_Gcc/Obj/pdsMemAccess.o
 .debug_ranges  0x00000448       0x20 Coordinator_Stk600_Atmega128rfa1_8Mhz_Gcc/Obj/pdsCrcService.o
 .debug_ranges  0x00000468       0x88 Coordinator_Stk600_Atmega128rfa1_8Mhz_Gcc/Obj/fakeBSP.o
 .debug_ranges  0x000004f0       0x68 Coordinator_Stk600_Atmega128rfa1_8Mhz_Gcc/Obj/buttons.o
 .debug_ranges  0x00000558       0x30 Coordinator_Stk600_Atmega128rfa1_8Mhz_Gcc/Obj/leds.o
 .debug_ranges  0x00000588       0x10 Coordinator_Stk600_Atmega128rfa1_8Mhz_Gcc/Obj/bspTaskManager.o
 .debug_ranges  0x00000598       0x10 Coordinator_Stk600_Atmega128rfa1_8Mhz_Gcc/Obj/csMem.o
 .debug_ranges  0x000005a8       0x38 Coordinator_Stk600_Atmega128rfa1_8Mhz_Gcc/Obj/configServer.o
 .debug_ranges  0x000005e0       0x28 c:/program files (x86)/atmel/avr tools/avr toolchain/bin/../lib/gcc/avr/4.5.1/../../../../avr/lib/avr51\libc.a(rand.o)

.debug_str      0x00000000     0x8536
 .debug_str     0x00000000      0x4e9 Coordinator_Stk600_Atmega128rfa1_8Mhz_Gcc/Obj/WSNSensorManager.o
                                0x58e (size before relaxing)
 .debug_str     0x000004e9      0x106 Coordinator_Stk600_Atmega128rfa1_8Mhz_Gcc/Obj/WSNVisualizer.o
                                0x49c (size before relaxing)
 .debug_str     0x000005ef      0xef6 Coordinator_Stk600_Atmega128rfa1_8Mhz_Gcc/Obj/WSNCoord.o
                               0x1483 (size before relaxing)
 .debug_str     0x000014e5      0x269 Coordinator_Stk600_Atmega128rfa1_8Mhz_Gcc/Obj/WSNMessageSender.o
                               0x1368 (size before relaxing)
 .debug_str     0x0000174e       0xf2 Coordinator_Stk600_Atmega128rfa1_8Mhz_Gcc/Obj/WSNCommandHandler.o
                                0x79e (size before relaxing)
 .debug_str     0x00001840     0x2146 Coordinator_Stk600_Atmega128rfa1_8Mhz_Gcc/Obj/WSNDemoApp.o
                               0x3304 (size before relaxing)
 .debug_str     0x00003986      0x5f1 Coordinator_Stk600_Atmega128rfa1_8Mhz_Gcc/Obj/WSNUARTManager.o
                                0xa47 (size before relaxing)
 .debug_str     0x00003f77      0x6f5 Coordinator_Stk600_Atmega128rfa1_8Mhz_Gcc/Obj/pdsMem.o
                                0x8fe (size before relaxing)
 .debug_str     0x0000466c      0x47c Coordinator_Stk600_Atmega128rfa1_8Mhz_Gcc/Obj/pdsWriteData.o
                                0xd58 (size before relaxing)
 .debug_str     0x00004ae8      0x1af Coordinator_Stk600_Atmega128rfa1_8Mhz_Gcc/Obj/pdsDataServer.o
                                0xd57 (size before relaxing)
 .debug_str     0x00004c97      0x12d Coordinator_Stk600_Atmega128rfa1_8Mhz_Gcc/Obj/pdsInit.o
                                0xa26 (size before relaxing)
 .debug_str     0x00004dc4       0xa7 Coordinator_Stk600_Atmega128rfa1_8Mhz_Gcc/Obj/pdsTimer.o
                                0x947 (size before relaxing)
 .debug_str     0x00004e6b      0x159 Coordinator_Stk600_Atmega128rfa1_8Mhz_Gcc/Obj/pdsEvents.o
                                0xc65 (size before relaxing)
 .debug_str     0x00004fc4      0x164 Coordinator_Stk600_Atmega128rfa1_8Mhz_Gcc/Obj/pdsMemAccess.o
                                0xaf1 (size before relaxing)
 .debug_str     0x00005128       0xb5 Coordinator_Stk600_Atmega128rfa1_8Mhz_Gcc/Obj/pdsCrcService.o
                                0xa80 (size before relaxing)
 .debug_str     0x000051dd      0x2cd Coordinator_Stk600_Atmega128rfa1_8Mhz_Gcc/Obj/fakeBSP.o
                                0x4c2 (size before relaxing)
 .debug_str     0x000054aa      0x26f Coordinator_Stk600_Atmega128rfa1_8Mhz_Gcc/Obj/buttons.o
                                0x4d6 (size before relaxing)
 .debug_str     0x00005719      0x183 Coordinator_Stk600_Atmega128rfa1_8Mhz_Gcc/Obj/leds.o
                                0x279 (size before relaxing)
 .debug_str     0x0000589c       0x7e Coordinator_Stk600_Atmega128rfa1_8Mhz_Gcc/Obj/bspTaskManager.o
                                0x2aa (size before relaxing)
 .debug_str     0x0000591a     0x25dd Coordinator_Stk600_Atmega128rfa1_8Mhz_Gcc/Obj/csPersistentMem.o
                               0x45b1 (size before relaxing)
 .debug_str     0x00007ef7      0x35b Coordinator_Stk600_Atmega128rfa1_8Mhz_Gcc/Obj/csMem.o
                               0x4135 (size before relaxing)
 .debug_str     0x00008252      0x146 Coordinator_Stk600_Atmega128rfa1_8Mhz_Gcc/Obj/configServer.o
                               0x47a8 (size before relaxing)
 .debug_str     0x00008398      0x122 c:/program files (x86)/atmel/avr tools/avr toolchain/bin/../lib/gcc/avr/4.5.1/avr51\libgcc.a(_ashldi3.o)
                                0x1a7 (size before relaxing)
 .debug_str     0x000084ba       0x7c c:/program files (x86)/atmel/avr tools/avr toolchain/bin/../lib/gcc/avr/4.5.1/../../../../avr/lib/avr51\libc.a(rand.o)
                                 0xba (size before relaxing)
