Archive member included because of file (symbol)

./../../../../../../Atmel_lib/BitCloud_SAM3S_EK_1_14_0/BitCloud/lib/libHAL_deRFusb23e06_At91sam3s4c_64Mhz_Gcc.a(atomic.o)
                              All_deRFusb23e06_At91sam3s4c_Rf231_Gcc/Obj/bspTaskManager.o (halStartAtomic)
./../../../../../../Atmel_lib/BitCloud_SAM3S_EK_1_14_0/BitCloud/lib/libHAL_deRFusb23e06_At91sam3s4c_64Mhz_Gcc.a(core_cm3.o)
                              ./../../../../../../Atmel_lib/BitCloud_SAM3S_EK_1_14_0/BitCloud/lib/libHAL_deRFusb23e06_At91sam3s4c_64Mhz_Gcc.a(atomic.o) (__get_PRIMASK)
./../../../../../../Atmel_lib/BitCloud_SAM3S_EK_1_14_0/BitCloud/lib/libHAL_deRFusb23e06_At91sam3s4c_64Mhz_Gcc.a(halVectorTable.o)
                              (__vector_table)
./../../../../../../Atmel_lib/BitCloud_SAM3S_EK_1_14_0/BitCloud/lib/libHAL_deRFusb23e06_At91sam3s4c_64Mhz_Gcc.a(halAppClock.o)
                              ./../../../../../../Atmel_lib/BitCloud_SAM3S_EK_1_14_0/BitCloud/lib/libHAL_deRFusb23e06_At91sam3s4c_64Mhz_Gcc.a(halVectorTable.o) (timerHandler)
./../../../../../../Atmel_lib/BitCloud_SAM3S_EK_1_14_0/BitCloud/lib/libHAL_deRFusb23e06_At91sam3s4c_64Mhz_Gcc.a(halUsart.o)
                              ./../../../../../../Atmel_lib/BitCloud_SAM3S_EK_1_14_0/BitCloud/lib/libHAL_deRFusb23e06_At91sam3s4c_64Mhz_Gcc.a(halVectorTable.o) (usart0Handler)
./../../../../../../Atmel_lib/BitCloud_SAM3S_EK_1_14_0/BitCloud/lib/libHAL_deRFusb23e06_At91sam3s4c_64Mhz_Gcc.a(halUart.o)
                              ./../../../../../../Atmel_lib/BitCloud_SAM3S_EK_1_14_0/BitCloud/lib/libHAL_deRFusb23e06_At91sam3s4c_64Mhz_Gcc.a(halVectorTable.o) (uart0Handler)
./../../../../../../Atmel_lib/BitCloud_SAM3S_EK_1_14_0/BitCloud/lib/libHAL_deRFusb23e06_At91sam3s4c_64Mhz_Gcc.a(halUsb.o)
                              ./../../../../../../Atmel_lib/BitCloud_SAM3S_EK_1_14_0/BitCloud/lib/libHAL_deRFusb23e06_At91sam3s4c_64Mhz_Gcc.a(halVectorTable.o) (usbHandler)
./../../../../../../Atmel_lib/BitCloud_SAM3S_EK_1_14_0/BitCloud/lib/libHAL_deRFusb23e06_At91sam3s4c_64Mhz_Gcc.a(halIrq.o)
                              ./../../../../../../Atmel_lib/BitCloud_SAM3S_EK_1_14_0/BitCloud/lib/libHAL_deRFusb23e06_At91sam3s4c_64Mhz_Gcc.a(halVectorTable.o) (pioaHandler)
./../../../../../../Atmel_lib/BitCloud_SAM3S_EK_1_14_0/BitCloud/lib/libHAL_deRFusb23e06_At91sam3s4c_64Mhz_Gcc.a(halHsmci.o)
                              ./../../../../../../Atmel_lib/BitCloud_SAM3S_EK_1_14_0/BitCloud/lib/libHAL_deRFusb23e06_At91sam3s4c_64Mhz_Gcc.a(halVectorTable.o) (hsmciHandler)
./../../../../../../Atmel_lib/BitCloud_SAM3S_EK_1_14_0/BitCloud/lib/libHAL_deRFusb23e06_At91sam3s4c_64Mhz_Gcc.a(halSleepTimerClock.o)
                              ./../../../../../../Atmel_lib/BitCloud_SAM3S_EK_1_14_0/BitCloud/lib/libHAL_deRFusb23e06_At91sam3s4c_64Mhz_Gcc.a(halVectorTable.o) (rttHandler)
./../../../../../../Atmel_lib/BitCloud_SAM3S_EK_1_14_0/BitCloud/lib/libHAL_deRFusb23e06_At91sam3s4c_64Mhz_Gcc.a(halSleep.o)
                              ./../../../../../../Atmel_lib/BitCloud_SAM3S_EK_1_14_0/BitCloud/lib/libHAL_deRFusb23e06_At91sam3s4c_64Mhz_Gcc.a(halSleepTimerClock.o) (halPowerOn)
./../../../../../../Atmel_lib/BitCloud_SAM3S_EK_1_14_0/BitCloud/lib/libHAL_deRFusb23e06_At91sam3s4c_64Mhz_Gcc.a(halStartupGcc.o)
                              ./../../../../../../Atmel_lib/BitCloud_SAM3S_EK_1_14_0/BitCloud/lib/libHAL_deRFusb23e06_At91sam3s4c_64Mhz_Gcc.a(halVectorTable.o) (gccReset)
./../../../../../../Atmel_lib/BitCloud_SAM3S_EK_1_14_0/BitCloud/lib/libHAL_deRFusb23e06_At91sam3s4c_64Mhz_Gcc.a(halRfCtrl.o)
                              ./../../../../../../Atmel_lib/BitCloud_SAM3S_EK_1_14_0/BitCloud/lib/libHAL_deRFusb23e06_At91sam3s4c_64Mhz_Gcc.a(halSleep.o) (halWaitRadio)
./../../../../../../Atmel_lib/BitCloud_SAM3S_EK_1_14_0/BitCloud/lib/libHAL_deRFusb23e06_At91sam3s4c_64Mhz_Gcc.a(halRfSpi.o)
                              ./../../../../../../Atmel_lib/BitCloud_SAM3S_EK_1_14_0/BitCloud/lib/libHAL_deRFusb23e06_At91sam3s4c_64Mhz_Gcc.a(halRfCtrl.o) (HAL_WriteByteRfSpi)
./../../../../../../Atmel_lib/BitCloud_SAM3S_EK_1_14_0/BitCloud/lib/libHAL_deRFusb23e06_At91sam3s4c_64Mhz_Gcc.a(halMacIsr.o)
                              ./../../../../../../Atmel_lib/BitCloud_SAM3S_EK_1_14_0/BitCloud/lib/libHAL_deRFusb23e06_At91sam3s4c_64Mhz_Gcc.a(halAppClock.o) (halMacTimerHandler)
./../../../../../../Atmel_lib/BitCloud_SAM3S_EK_1_14_0/BitCloud/lib/libHAL_deRFusb23e06_At91sam3s4c_64Mhz_Gcc.a(appTimer.o)
                              All_deRFusb23e06_At91sam3s4c_Rf231_Gcc/Obj/blink.o (HAL_StartAppTimer)
./../../../../../../Atmel_lib/BitCloud_SAM3S_EK_1_14_0/BitCloud/lib/libHAL_deRFusb23e06_At91sam3s4c_64Mhz_Gcc.a(halTaskManager.o)
                              ./../../../../../../Atmel_lib/BitCloud_SAM3S_EK_1_14_0/BitCloud/lib/libHAL_deRFusb23e06_At91sam3s4c_64Mhz_Gcc.a(halAppClock.o) (halTaskFlags)
./../../../../../../Atmel_lib/BitCloud_SAM3S_EK_1_14_0/BitCloud/lib/libHAL_deRFusb23e06_At91sam3s4c_64Mhz_Gcc.a(sleep.o)
                              ./../../../../../../Atmel_lib/BitCloud_SAM3S_EK_1_14_0/BitCloud/lib/libHAL_deRFusb23e06_At91sam3s4c_64Mhz_Gcc.a(halSleepTimerClock.o) (halSleepControl)
./../../../../../../Atmel_lib/BitCloud_SAM3S_EK_1_14_0/BitCloud/lib/libHAL_deRFusb23e06_At91sam3s4c_64Mhz_Gcc.a(timer.o)
                              ./../../../../../../Atmel_lib/BitCloud_SAM3S_EK_1_14_0/BitCloud/lib/libHAL_deRFusb23e06_At91sam3s4c_64Mhz_Gcc.a(appTimer.o) (halAddTimer)
./../../../../../../Atmel_lib/BitCloud_SAM3S_EK_1_14_0/BitCloud/lib/libHAL_deRFusb23e06_At91sam3s4c_64Mhz_Gcc.a(usart.o)
                              ./../../../../../../Atmel_lib/BitCloud_SAM3S_EK_1_14_0/BitCloud/lib/libHAL_deRFusb23e06_At91sam3s4c_64Mhz_Gcc.a(halTaskManager.o) (halSigUsartHandler)
./../../../../../../Atmel_lib/BitCloud_SAM3S_EK_1_14_0/BitCloud/lib/libHAL_deRFusb23e06_At91sam3s4c_64Mhz_Gcc.a(uart.o)
                              ./../../../../../../Atmel_lib/BitCloud_SAM3S_EK_1_14_0/BitCloud/lib/libHAL_deRFusb23e06_At91sam3s4c_64Mhz_Gcc.a(halUart.o) (halUartStoreRx)
./../../../../../../Atmel_lib/BitCloud_SAM3S_EK_1_14_0/BitCloud/lib/libHAL_deRFusb23e06_At91sam3s4c_64Mhz_Gcc.a(usb.o)
                              All_deRFusb23e06_At91sam3s4c_Rf231_Gcc/Obj/vcpVirtualUsart.o (HAL_RegisterEndOfBusResetHandler)
./../../../../../../Atmel_lib/BitCloud_SAM3S_EK_1_14_0/BitCloud/lib/libHAL_deRFusb23e06_At91sam3s4c_64Mhz_Gcc.a(eeprom.o)
                              All_deRFusb23e06_At91sam3s4c_Rf231_Gcc/Obj/pdsWriteData.o (HAL_ReadEeprom)
./../../../../../../Atmel_lib/BitCloud_SAM3S_EK_1_14_0/BitCloud/lib/libHAL_deRFusb23e06_At91sam3s4c_64Mhz_Gcc.a(sleepTimer.o)
                              ./../../../../../../Atmel_lib/BitCloud_SAM3S_EK_1_14_0/BitCloud/lib/libHAL_deRFusb23e06_At91sam3s4c_64Mhz_Gcc.a(sleep.o) (HAL_StartSleepTimer)
./../../../../../../Atmel_lib/BitCloud_SAM3S_EK_1_14_0/BitCloud/lib/libHAL_deRFusb23e06_At91sam3s4c_64Mhz_Gcc.a(halExceptionGcc.o)
                              ./../../../../../../Atmel_lib/BitCloud_SAM3S_EK_1_14_0/BitCloud/lib/libHAL_deRFusb23e06_At91sam3s4c_64Mhz_Gcc.a(halVectorTable.o) (halNmiHandler)
./../../../../../../Atmel_lib/BitCloud_SAM3S_EK_1_14_0/BitCloud/lib/libHAL_deRFusb23e06_At91sam3s4c_64Mhz_Gcc.a(halLowLevelInit.o)
                              ./../../../../../../Atmel_lib/BitCloud_SAM3S_EK_1_14_0/BitCloud/lib/libHAL_deRFusb23e06_At91sam3s4c_64Mhz_Gcc.a(halSleep.o) (halSwitchToRcClock)
./../../../../../../Atmel_lib/BitCloud_SAM3S_EK_1_14_0/BitCloud/lib/libHAL_deRFusb23e06_At91sam3s4c_64Mhz_Gcc.a(halExcHandler.o)
                              ./../../../../../../Atmel_lib/BitCloud_SAM3S_EK_1_14_0/BitCloud/lib/libHAL_deRFusb23e06_At91sam3s4c_64Mhz_Gcc.a(halExceptionGcc.o) (halCommonExcHandler)
./../../../../../../Atmel_lib/BitCloud_SAM3S_EK_1_14_0/BitCloud/lib/libHAL_deRFusb23e06_At91sam3s4c_64Mhz_Gcc.a(halFlash.o)
                              ./../../../../../../Atmel_lib/BitCloud_SAM3S_EK_1_14_0/BitCloud/lib/libHAL_deRFusb23e06_At91sam3s4c_64Mhz_Gcc.a(eeprom.o) (halFlashPrepareForWrite)
./../../../../../../Atmel_lib/BitCloud_SAM3S_EK_1_14_0/BitCloud/lib/libBc_All_At91sam3s4c_Rf231_Gcc.a(phyRfIrqDispatcher.o)
                              ./../../../../../../Atmel_lib/BitCloud_SAM3S_EK_1_14_0/BitCloud/lib/libHAL_deRFusb23e06_At91sam3s4c_64Mhz_Gcc.a(halRfCtrl.o) (phyDispatcheRfInterrupt)
./../../../../../../Atmel_lib/BitCloud_SAM3S_EK_1_14_0/BitCloud/lib/libBc_All_At91sam3s4c_Rf231_Gcc.a(phyRtimerIrqDispatcher.o)
                              ./../../../../../../Atmel_lib/BitCloud_SAM3S_EK_1_14_0/BitCloud/lib/libHAL_deRFusb23e06_At91sam3s4c_64Mhz_Gcc.a(halMacIsr.o) (phyDispatcheRTimerEvent)
./../../../../../../Atmel_lib/BitCloud_SAM3S_EK_1_14_0/BitCloud/lib/libBc_All_At91sam3s4c_Rf231_Gcc.a(phyRxTxIndicator.o)
                              ./../../../../../../Atmel_lib/BitCloud_SAM3S_EK_1_14_0/BitCloud/lib/libHAL_deRFusb23e06_At91sam3s4c_64Mhz_Gcc.a(halSleep.o) (phyRxTxSwitcherOn)
./../../../../../../Atmel_lib/BitCloud_SAM3S_EK_1_14_0/BitCloud/lib/libBc_All_At91sam3s4c_Rf231_Gcc.a(taskManager.o)
                              All_deRFusb23e06_At91sam3s4c_Rf231_Gcc/Obj/blink.o (SYS_RunTask)
./../../../../../../Atmel_lib/BitCloud_SAM3S_EK_1_14_0/BitCloud/lib/libBc_All_At91sam3s4c_Rf231_Gcc.a(zdo.o)
                              ./../../../../../../Atmel_lib/BitCloud_SAM3S_EK_1_14_0/BitCloud/lib/libBc_All_At91sam3s4c_Rf231_Gcc.a(taskManager.o) (ZDO_TaskHandler)
./../../../../../../Atmel_lib/BitCloud_SAM3S_EK_1_14_0/BitCloud/lib/libBc_All_At91sam3s4c_Rf231_Gcc.a(aps.o)
                              ./../../../../../../Atmel_lib/BitCloud_SAM3S_EK_1_14_0/BitCloud/lib/libBc_All_At91sam3s4c_Rf231_Gcc.a(zdo.o) (APS_BindReq)
./../../../../../../Atmel_lib/BitCloud_SAM3S_EK_1_14_0/BitCloud/lib/libBc_All_At91sam3s4c_Rf231_Gcc.a(bcSysSleep.o)
                              ./../../../../../../Atmel_lib/BitCloud_SAM3S_EK_1_14_0/BitCloud/lib/libBc_All_At91sam3s4c_Rf231_Gcc.a(zdo.o) (SYS_Sleep)
./../../../../../../Atmel_lib/BitCloud_SAM3S_EK_1_14_0/BitCloud/lib/libBc_All_At91sam3s4c_Rf231_Gcc.a(macMem.o)
                              ./../../../../../../Atmel_lib/BitCloud_SAM3S_EK_1_14_0/BitCloud/lib/libBc_All_At91sam3s4c_Rf231_Gcc.a(phyRfIrqDispatcher.o) (macMem)
./../../../../../../Atmel_lib/BitCloud_SAM3S_EK_1_14_0/BitCloud/lib/libBc_All_At91sam3s4c_Rf231_Gcc.a(macenvPib.o)
                              ./../../../../../../Atmel_lib/BitCloud_SAM3S_EK_1_14_0/BitCloud/lib/libBc_All_At91sam3s4c_Rf231_Gcc.a(zdo.o) (MAC_GetExtAddr)
./../../../../../../Atmel_lib/BitCloud_SAM3S_EK_1_14_0/BitCloud/lib/libBc_All_At91sam3s4c_Rf231_Gcc.a(machwdManager.o)
                              ./../../../../../../Atmel_lib/BitCloud_SAM3S_EK_1_14_0/BitCloud/lib/libBc_All_At91sam3s4c_Rf231_Gcc.a(zdo.o) (RF_RandomReq)
./../../../../../../Atmel_lib/BitCloud_SAM3S_EK_1_14_0/BitCloud/lib/libBc_All_At91sam3s4c_Rf231_Gcc.a(machwdRegAccessHandler.o)
                              ./../../../../../../Atmel_lib/BitCloud_SAM3S_EK_1_14_0/BitCloud/lib/libBc_All_At91sam3s4c_Rf231_Gcc.a(machwdManager.o) (machwdRegAccessReqHandler)
./../../../../../../Atmel_lib/BitCloud_SAM3S_EK_1_14_0/BitCloud/lib/libBc_All_At91sam3s4c_Rf231_Gcc.a(machwdResetHandler.o)
                              ./../../../../../../Atmel_lib/BitCloud_SAM3S_EK_1_14_0/BitCloud/lib/libBc_All_At91sam3s4c_Rf231_Gcc.a(machwdManager.o) (machwdReset)
./../../../../../../Atmel_lib/BitCloud_SAM3S_EK_1_14_0/BitCloud/lib/libBc_All_At91sam3s4c_Rf231_Gcc.a(machwdRndHandler.o)
                              ./../../../../../../Atmel_lib/BitCloud_SAM3S_EK_1_14_0/BitCloud/lib/libBc_All_At91sam3s4c_Rf231_Gcc.a(machwdManager.o) (machwdRndReqHandler)
./../../../../../../Atmel_lib/BitCloud_SAM3S_EK_1_14_0/BitCloud/lib/libBc_All_At91sam3s4c_Rf231_Gcc.a(machwdRxBuffer.o)
                              ./../../../../../../Atmel_lib/BitCloud_SAM3S_EK_1_14_0/BitCloud/lib/libBc_All_At91sam3s4c_Rf231_Gcc.a(machwdResetHandler.o) (machwdResetRxBuffer)
./../../../../../../Atmel_lib/BitCloud_SAM3S_EK_1_14_0/BitCloud/lib/libBc_All_At91sam3s4c_Rf231_Gcc.a(machwdRxFrameHandler.o)
                              ./../../../../../../Atmel_lib/BitCloud_SAM3S_EK_1_14_0/BitCloud/lib/libBc_All_At91sam3s4c_Rf231_Gcc.a(machwdManager.o) (machwdRxFrameTaskHandler)
./../../../../../../Atmel_lib/BitCloud_SAM3S_EK_1_14_0/BitCloud/lib/libBc_All_At91sam3s4c_Rf231_Gcc.a(machwdSetHandler.o)
                              ./../../../../../../Atmel_lib/BitCloud_SAM3S_EK_1_14_0/BitCloud/lib/libBc_All_At91sam3s4c_Rf231_Gcc.a(machwdManager.o) (machwdSetReqHandler)
./../../../../../../Atmel_lib/BitCloud_SAM3S_EK_1_14_0/BitCloud/lib/libBc_All_At91sam3s4c_Rf231_Gcc.a(machwdTrxCtrl.o)
                              ./../../../../../../Atmel_lib/BitCloud_SAM3S_EK_1_14_0/BitCloud/lib/libBc_All_At91sam3s4c_Rf231_Gcc.a(machwdSetHandler.o) (machwdGetPhyTrxCmd)
./../../../../../../Atmel_lib/BitCloud_SAM3S_EK_1_14_0/BitCloud/lib/libBc_All_At91sam3s4c_Rf231_Gcc.a(machwdTrxHandler.o)
                              ./../../../../../../Atmel_lib/BitCloud_SAM3S_EK_1_14_0/BitCloud/lib/libBc_All_At91sam3s4c_Rf231_Gcc.a(machwdManager.o) (machwdTrxReqHandler)
./../../../../../../Atmel_lib/BitCloud_SAM3S_EK_1_14_0/BitCloud/lib/libBc_All_At91sam3s4c_Rf231_Gcc.a(machwdTxFrameHandler.o)
                              ./../../../../../../Atmel_lib/BitCloud_SAM3S_EK_1_14_0/BitCloud/lib/libBc_All_At91sam3s4c_Rf231_Gcc.a(machwdManager.o) (machwdTxFrameReqHandler)
./../../../../../../Atmel_lib/BitCloud_SAM3S_EK_1_14_0/BitCloud/lib/libBc_All_At91sam3s4c_Rf231_Gcc.a(machwiManager.o)
                              ./../../../../../../Atmel_lib/BitCloud_SAM3S_EK_1_14_0/BitCloud/lib/libBc_All_At91sam3s4c_Rf231_Gcc.a(taskManager.o) (MAC_HWI_TaskHandler)
./../../../../../../Atmel_lib/BitCloud_SAM3S_EK_1_14_0/BitCloud/lib/libBc_All_At91sam3s4c_Rf231_Gcc.a(machwiOrphanHandler.o)
                              ./../../../../../../Atmel_lib/BitCloud_SAM3S_EK_1_14_0/BitCloud/lib/libBc_All_At91sam3s4c_Rf231_Gcc.a(machwiManager.o) (machwiOrphanRespHandler)
./../../../../../../Atmel_lib/BitCloud_SAM3S_EK_1_14_0/BitCloud/lib/libBc_All_At91sam3s4c_Rf231_Gcc.a(machwiPanServer.o)
                              ./../../../../../../Atmel_lib/BitCloud_SAM3S_EK_1_14_0/BitCloud/lib/libBc_All_At91sam3s4c_Rf231_Gcc.a(machwdManager.o) (MACHWD_DataInd)
./../../../../../../Atmel_lib/BitCloud_SAM3S_EK_1_14_0/BitCloud/lib/libBc_All_At91sam3s4c_Rf231_Gcc.a(machwiPollHandler.o)
                              ./../../../../../../Atmel_lib/BitCloud_SAM3S_EK_1_14_0/BitCloud/lib/libBc_All_At91sam3s4c_Rf231_Gcc.a(machwiPanServer.o) (machwiPollInd)
./../../../../../../Atmel_lib/BitCloud_SAM3S_EK_1_14_0/BitCloud/lib/libBc_All_At91sam3s4c_Rf231_Gcc.a(machwiPurgeHandler.o)
                              ./../../../../../../Atmel_lib/BitCloud_SAM3S_EK_1_14_0/BitCloud/lib/libBc_All_At91sam3s4c_Rf231_Gcc.a(machwiManager.o) (machwiPurgeReqHandler)
./../../../../../../Atmel_lib/BitCloud_SAM3S_EK_1_14_0/BitCloud/lib/libBc_All_At91sam3s4c_Rf231_Gcc.a(machwiResetHandler.o)
                              ./../../../../../../Atmel_lib/BitCloud_SAM3S_EK_1_14_0/BitCloud/lib/libBc_All_At91sam3s4c_Rf231_Gcc.a(machwiManager.o) (machwiResetReqHandler)
./../../../../../../Atmel_lib/BitCloud_SAM3S_EK_1_14_0/BitCloud/lib/libBc_All_At91sam3s4c_Rf231_Gcc.a(machwiRxEnableHandler.o)
                              ./../../../../../../Atmel_lib/BitCloud_SAM3S_EK_1_14_0/BitCloud/lib/libBc_All_At91sam3s4c_Rf231_Gcc.a(machwiManager.o) (machwiRxEnableReqHandler)
./../../../../../../Atmel_lib/BitCloud_SAM3S_EK_1_14_0/BitCloud/lib/libBc_All_At91sam3s4c_Rf231_Gcc.a(machwiScanHandler.o)
                              ./../../../../../../Atmel_lib/BitCloud_SAM3S_EK_1_14_0/BitCloud/lib/libBc_All_At91sam3s4c_Rf231_Gcc.a(machwiManager.o) (machwiScanReqHandler)
./../../../../../../Atmel_lib/BitCloud_SAM3S_EK_1_14_0/BitCloud/lib/libBc_All_At91sam3s4c_Rf231_Gcc.a(machwiSetGetHandler.o)
                              ./../../../../../../Atmel_lib/BitCloud_SAM3S_EK_1_14_0/BitCloud/lib/libBc_All_At91sam3s4c_Rf231_Gcc.a(machwiManager.o) (machwiGetReqHandler)
./../../../../../../Atmel_lib/BitCloud_SAM3S_EK_1_14_0/BitCloud/lib/libBc_All_At91sam3s4c_Rf231_Gcc.a(machwiStartHandler.o)
                              ./../../../../../../Atmel_lib/BitCloud_SAM3S_EK_1_14_0/BitCloud/lib/libBc_All_At91sam3s4c_Rf231_Gcc.a(machwiManager.o) (machwiStartReqHandler)
./../../../../../../Atmel_lib/BitCloud_SAM3S_EK_1_14_0/BitCloud/lib/libBc_All_At91sam3s4c_Rf231_Gcc.a(machwiSwitchRxCtrl.o)
                              ./../../../../../../Atmel_lib/BitCloud_SAM3S_EK_1_14_0/BitCloud/lib/libBc_All_At91sam3s4c_Rf231_Gcc.a(machwiPollHandler.o) (machwiSwitchRxAccordToRxOnWhenIdle)
./../../../../../../Atmel_lib/BitCloud_SAM3S_EK_1_14_0/BitCloud/lib/libBc_All_At91sam3s4c_Rf231_Gcc.a(machwiTransactionHandler.o)
                              ./../../../../../../Atmel_lib/BitCloud_SAM3S_EK_1_14_0/BitCloud/lib/libBc_All_At91sam3s4c_Rf231_Gcc.a(machwiResetHandler.o) (machwiResetTransactionHandler)
./../../../../../../Atmel_lib/BitCloud_SAM3S_EK_1_14_0/BitCloud/lib/libBc_All_At91sam3s4c_Rf231_Gcc.a(machwiTransactionQueue.o)
                              ./../../../../../../Atmel_lib/BitCloud_SAM3S_EK_1_14_0/BitCloud/lib/libBc_All_At91sam3s4c_Rf231_Gcc.a(machwiManager.o) (machwiGetActivatedTransactionFromQueue)
./../../../../../../Atmel_lib/BitCloud_SAM3S_EK_1_14_0/BitCloud/lib/libBc_All_At91sam3s4c_Rf231_Gcc.a(nwk.o)
                              ./../../../../../../Atmel_lib/BitCloud_SAM3S_EK_1_14_0/BitCloud/lib/libBc_All_At91sam3s4c_Rf231_Gcc.a(zdo.o) (NWK_GetShortAddr)
./../../../../../../Atmel_lib/BitCloud_SAM3S_EK_1_14_0/BitCloud/lib/libBc_All_At91sam3s4c_Rf231_Gcc.a(phyInit.o)
                              ./../../../../../../Atmel_lib/BitCloud_SAM3S_EK_1_14_0/BitCloud/lib/libBc_All_At91sam3s4c_Rf231_Gcc.a(taskManager.o) (RF_Init)
./../../../../../../Atmel_lib/BitCloud_SAM3S_EK_1_14_0/BitCloud/lib/libBc_All_At91sam3s4c_Rf231_Gcc.a(phyRegAccess.o)
                              ./../../../../../../Atmel_lib/BitCloud_SAM3S_EK_1_14_0/BitCloud/lib/libBc_All_At91sam3s4c_Rf231_Gcc.a(machwdRegAccessHandler.o) (PHY_RegWriteReq)
./../../../../../../Atmel_lib/BitCloud_SAM3S_EK_1_14_0/BitCloud/lib/libBc_All_At91sam3s4c_Rf231_Gcc.a(phyReset.o)
                              ./../../../../../../Atmel_lib/BitCloud_SAM3S_EK_1_14_0/BitCloud/lib/libBc_All_At91sam3s4c_Rf231_Gcc.a(machwdResetHandler.o) (PHY_Reset)
./../../../../../../Atmel_lib/BitCloud_SAM3S_EK_1_14_0/BitCloud/lib/libBc_All_At91sam3s4c_Rf231_Gcc.a(phyRfSpiProto.o)
                              ./../../../../../../Atmel_lib/BitCloud_SAM3S_EK_1_14_0/BitCloud/lib/libBc_All_At91sam3s4c_Rf231_Gcc.a(phyRxTxIndicator.o) (phyWriteRegister)
./../../../../../../Atmel_lib/BitCloud_SAM3S_EK_1_14_0/BitCloud/lib/libBc_All_At91sam3s4c_Rf231_Gcc.a(phyRnd.o)
                              ./../../../../../../Atmel_lib/BitCloud_SAM3S_EK_1_14_0/BitCloud/lib/libBc_All_At91sam3s4c_Rf231_Gcc.a(machwdRndHandler.o) (PHY_RndReq)
./../../../../../../Atmel_lib/BitCloud_SAM3S_EK_1_14_0/BitCloud/lib/libBc_All_At91sam3s4c_Rf231_Gcc.a(phyRxFrame.o)
                              ./../../../../../../Atmel_lib/BitCloud_SAM3S_EK_1_14_0/BitCloud/lib/libBc_All_At91sam3s4c_Rf231_Gcc.a(machwdRxFrameHandler.o) (PHY_DownloadFrame)
./../../../../../../Atmel_lib/BitCloud_SAM3S_EK_1_14_0/BitCloud/lib/libBc_All_At91sam3s4c_Rf231_Gcc.a(phySet.o)
                              ./../../../../../../Atmel_lib/BitCloud_SAM3S_EK_1_14_0/BitCloud/lib/libBc_All_At91sam3s4c_Rf231_Gcc.a(machwdResetHandler.o) (PHY_SetReq)
./../../../../../../Atmel_lib/BitCloud_SAM3S_EK_1_14_0/BitCloud/lib/libBc_All_At91sam3s4c_Rf231_Gcc.a(phySetTrxState.o)
                              ./../../../../../../Atmel_lib/BitCloud_SAM3S_EK_1_14_0/BitCloud/lib/libBc_All_At91sam3s4c_Rf231_Gcc.a(machwdSetHandler.o) (PHY_SetTrxStateReq)
./../../../../../../Atmel_lib/BitCloud_SAM3S_EK_1_14_0/BitCloud/lib/libBc_All_At91sam3s4c_Rf231_Gcc.a(phyStateMachine.o)
                              ./../../../../../../Atmel_lib/BitCloud_SAM3S_EK_1_14_0/BitCloud/lib/libBc_All_At91sam3s4c_Rf231_Gcc.a(phyRnd.o) (PHY_CheckStateTransition)
./../../../../../../Atmel_lib/BitCloud_SAM3S_EK_1_14_0/BitCloud/lib/libBc_All_At91sam3s4c_Rf231_Gcc.a(phyTxFrame.o)
                              ./../../../../../../Atmel_lib/BitCloud_SAM3S_EK_1_14_0/BitCloud/lib/libBc_All_At91sam3s4c_Rf231_Gcc.a(machwdTxFrameHandler.o) (PHY_DataReq)
./../../../../../../Atmel_lib/BitCloud_SAM3S_EK_1_14_0/BitCloud/lib/libBc_All_At91sam3s4c_Rf231_Gcc.a(queue.o)
                              ./../../../../../../Atmel_lib/BitCloud_SAM3S_EK_1_14_0/BitCloud/lib/libBc_All_At91sam3s4c_Rf231_Gcc.a(zdo.o) (deleteHeadQueueElem)
./../../../../../../Atmel_lib/BitCloud_SAM3S_EK_1_14_0/BitCloud/lib/libBc_All_At91sam3s4c_Rf231_Gcc.a(sysDuplicateTable.o)
                              ./../../../../../../Atmel_lib/BitCloud_SAM3S_EK_1_14_0/BitCloud/lib/libBc_All_At91sam3s4c_Rf231_Gcc.a(aps.o) (SYS_DuplicateTableReset)
./../../../../../../Atmel_lib/BitCloud_SAM3S_EK_1_14_0/BitCloud/lib/libBc_All_At91sam3s4c_Rf231_Gcc.a(sysEvents.o)
                              ./../../../../../../Atmel_lib/BitCloud_SAM3S_EK_1_14_0/BitCloud/lib/libBc_All_At91sam3s4c_Rf231_Gcc.a(zdo.o) (SYS_PostEvent)
./../../../../../../Atmel_lib/BitCloud_SAM3S_EK_1_14_0/BitCloud/lib/libBc_All_At91sam3s4c_Rf231_Gcc.a(sysTimer.o)
                              ./../../../../../../Atmel_lib/BitCloud_SAM3S_EK_1_14_0/BitCloud/lib/libBc_All_At91sam3s4c_Rf231_Gcc.a(aps.o) (SYS_StartTimer)
./../../../../../../Atmel_lib/BitCloud_SAM3S_EK_1_14_0/BitCloud/lib/libBc_All_At91sam3s4c_Rf231_Gcc.a(machwdCalibHandler.o)
                              ./../../../../../../Atmel_lib/BitCloud_SAM3S_EK_1_14_0/BitCloud/lib/libBc_All_At91sam3s4c_Rf231_Gcc.a(machwdManager.o) (machwdCalibReqHandler)
./../../../../../../Atmel_lib/BitCloud_SAM3S_EK_1_14_0/BitCloud/lib/libBc_All_At91sam3s4c_Rf231_Gcc.a(machwdEdHandler.o)
                              ./../../../../../../Atmel_lib/BitCloud_SAM3S_EK_1_14_0/BitCloud/lib/libBc_All_At91sam3s4c_Rf231_Gcc.a(machwdManager.o) (machwdEdReqHandler)
./../../../../../../Atmel_lib/BitCloud_SAM3S_EK_1_14_0/BitCloud/lib/libBc_All_At91sam3s4c_Rf231_Gcc.a(machwdFrameRoutine.o)
                              ./../../../../../../Atmel_lib/BitCloud_SAM3S_EK_1_14_0/BitCloud/lib/libBc_All_At91sam3s4c_Rf231_Gcc.a(machwdRxFrameHandler.o) (machwdParseFrame)
./../../../../../../Atmel_lib/BitCloud_SAM3S_EK_1_14_0/BitCloud/lib/libBc_All_At91sam3s4c_Rf231_Gcc.a(machwdHandlerCtrl.o)
                              ./../../../../../../Atmel_lib/BitCloud_SAM3S_EK_1_14_0/BitCloud/lib/libBc_All_At91sam3s4c_Rf231_Gcc.a(machwdManager.o) (machwdGetHandlerId)
./../../../../../../Atmel_lib/BitCloud_SAM3S_EK_1_14_0/BitCloud/lib/libBc_All_At91sam3s4c_Rf231_Gcc.a(machwiAssociateHandler.o)
                              ./../../../../../../Atmel_lib/BitCloud_SAM3S_EK_1_14_0/BitCloud/lib/libBc_All_At91sam3s4c_Rf231_Gcc.a(machwiResetHandler.o) (machwiResetAssociateHandler)
./../../../../../../Atmel_lib/BitCloud_SAM3S_EK_1_14_0/BitCloud/lib/libBc_All_At91sam3s4c_Rf231_Gcc.a(machwiBeaconHandler.o)
                              ./../../../../../../Atmel_lib/BitCloud_SAM3S_EK_1_14_0/BitCloud/lib/libBc_All_At91sam3s4c_Rf231_Gcc.a(machwiManager.o) (machwiSendBeacon)
./../../../../../../Atmel_lib/BitCloud_SAM3S_EK_1_14_0/BitCloud/lib/libBc_All_At91sam3s4c_Rf231_Gcc.a(machwiDataHandler.o)
                              ./../../../../../../Atmel_lib/BitCloud_SAM3S_EK_1_14_0/BitCloud/lib/libBc_All_At91sam3s4c_Rf231_Gcc.a(machwiOrphanHandler.o) (machwiConvertmachwdDataConfirmTypes)
./../../../../../../Atmel_lib/BitCloud_SAM3S_EK_1_14_0/BitCloud/lib/libBc_All_At91sam3s4c_Rf231_Gcc.a(phyCalib.o)
                              ./../../../../../../Atmel_lib/BitCloud_SAM3S_EK_1_14_0/BitCloud/lib/libBc_All_At91sam3s4c_Rf231_Gcc.a(machwdCalibHandler.o) (PHY_CalibReq)
./../../../../../../Atmel_lib/BitCloud_SAM3S_EK_1_14_0/BitCloud/lib/libBc_All_At91sam3s4c_Rf231_Gcc.a(phyEd.o)
                              ./../../../../../../Atmel_lib/BitCloud_SAM3S_EK_1_14_0/BitCloud/lib/libBc_All_At91sam3s4c_Rf231_Gcc.a(machwdEdHandler.o) (PHY_EdReq)
./../../../../../../Atmel_lib/BitCloud_SAM3S_EK_1_14_0/BitCloud/lib/libHAL_deRFusb23e06_At91sam3s4c_64Mhz_Gcc.a(halInit.o)
                              ./../../../../../../Atmel_lib/BitCloud_SAM3S_EK_1_14_0/BitCloud/lib/libBc_All_At91sam3s4c_Rf231_Gcc.a(taskManager.o) (HAL_Init)
./../../../../../../Atmel_lib/BitCloud_SAM3S_EK_1_14_0/BitCloud/lib/libHAL_deRFusb23e06_At91sam3s4c_64Mhz_Gcc.a(uid.o)
                              ./../../../../../../Atmel_lib/BitCloud_SAM3S_EK_1_14_0/BitCloud/lib/libBc_All_At91sam3s4c_Rf231_Gcc.a(zdo.o) (HAL_ReadUid)
./../../../../../../Atmel_lib/BitCloud_SAM3S_EK_1_14_0/BitCloud/lib/libHAL_deRFusb23e06_At91sam3s4c_64Mhz_Gcc.a(nv_basic.o)
                              ./../../../../../../Atmel_lib/BitCloud_SAM3S_EK_1_14_0/BitCloud/lib/libHAL_deRFusb23e06_At91sam3s4c_64Mhz_Gcc.a(uid.o) (get_nv_basic)
c:/users/user/desktop/winsync/code_files/sabre/_toolchains/yagarto_arm/bin/../lib/gcc/arm-none-eabi/4.5.1/../../../../arm-none-eabi/lib/thumb/v7m\libc.a(lib_a-memcmp.o)
                              ./../../../../../../Atmel_lib/BitCloud_SAM3S_EK_1_14_0/BitCloud/lib/libBc_All_At91sam3s4c_Rf231_Gcc.a(aps.o) (memcmp)
c:/users/user/desktop/winsync/code_files/sabre/_toolchains/yagarto_arm/bin/../lib/gcc/arm-none-eabi/4.5.1/../../../../arm-none-eabi/lib/thumb/v7m\libc.a(lib_a-memcpy.o)
                              All_deRFusb23e06_At91sam3s4c_Rf231_Gcc/Obj/vcpVirtualUsart.o (memcpy)
c:/users/user/desktop/winsync/code_files/sabre/_toolchains/yagarto_arm/bin/../lib/gcc/arm-none-eabi/4.5.1/../../../../arm-none-eabi/lib/thumb/v7m\libc.a(lib_a-memmove.o)
                              ./../../../../../../Atmel_lib/BitCloud_SAM3S_EK_1_14_0/BitCloud/lib/libBc_All_At91sam3s4c_Rf231_Gcc.a(zdo.o) (memmove)
c:/users/user/desktop/winsync/code_files/sabre/_toolchains/yagarto_arm/bin/../lib/gcc/arm-none-eabi/4.5.1/../../../../arm-none-eabi/lib/thumb/v7m\libc.a(lib_a-memset.o)
                              All_deRFusb23e06_At91sam3s4c_Rf231_Gcc/Obj/csMem.o (memset)
c:/users/user/desktop/winsync/code_files/sabre/_toolchains/yagarto_arm/bin/../lib/gcc/arm-none-eabi/4.5.1/../../../../arm-none-eabi/lib/thumb/v7m\libc.a(lib_a-rand.o)
                              ./../../../../../../Atmel_lib/BitCloud_SAM3S_EK_1_14_0/BitCloud/lib/libBc_All_At91sam3s4c_Rf231_Gcc.a(zdo.o) (srand)
c:/users/user/desktop/winsync/code_files/sabre/_toolchains/yagarto_arm/bin/../lib/gcc/arm-none-eabi/4.5.1/../../../../arm-none-eabi/lib/thumb/v7m\libc.a(lib_a-impure.o)
                              c:/users/user/desktop/winsync/code_files/sabre/_toolchains/yagarto_arm/bin/../lib/gcc/arm-none-eabi/4.5.1/../../../../arm-none-eabi/lib/thumb/v7m\libc.a(lib_a-rand.o) (_impure_ptr)

Allocating common symbols
Common symbol       size              file

stackBuffers        0xae8             All_deRFusb23e06_At91sam3s4c_Rf231_Gcc/Obj/csMem.o
readBatteryDataCallback
                    0x4               All_deRFusb23e06_At91sam3s4c_Rf231_Gcc/Obj/fakeBSP.o
csAIB               0x2               All_deRFusb23e06_At91sam3s4c_Rf231_Gcc/Obj/csMem.o
response            0x7               All_deRFusb23e06_At91sam3s4c_Rf231_Gcc/Obj/vcpCdcProtocol.o
deviceState         0x1               ./../../../../../../Atmel_lib/BitCloud_SAM3S_EK_1_14_0/BitCloud/lib/libHAL_deRFusb23e06_At91sam3s4c_64Mhz_Gcc.a(halUsb.o)
macMem              0x100             ./../../../../../../Atmel_lib/BitCloud_SAM3S_EK_1_14_0/BitCloud/lib/libBc_All_At91sam3s4c_Rf231_Gcc.a(macMem.o)
nwkMem              0x2e0             ./../../../../../../Atmel_lib/BitCloud_SAM3S_EK_1_14_0/BitCloud/lib/libBc_All_At91sam3s4c_Rf231_Gcc.a(nwk.o)
csZIB               0x38              All_deRFusb23e06_At91sam3s4c_Rf231_Gcc/Obj/csMem.o
csPIB               0x48              All_deRFusb23e06_At91sam3s4c_Rf231_Gcc/Obj/csMem.o
previousDeviceState
                    0x1               ./../../../../../../Atmel_lib/BitCloud_SAM3S_EK_1_14_0/BitCloud/lib/libHAL_deRFusb23e06_At91sam3s4c_64Mhz_Gcc.a(halUsb.o)
zdoMem              0x548             ./../../../../../../Atmel_lib/BitCloud_SAM3S_EK_1_14_0/BitCloud/lib/libBc_All_At91sam3s4c_Rf231_Gcc.a(zdo.o)
endpoints           0xe0              ./../../../../../../Atmel_lib/BitCloud_SAM3S_EK_1_14_0/BitCloud/lib/libHAL_deRFusb23e06_At91sam3s4c_64Mhz_Gcc.a(halUsb.o)
readTemperatureDataCallback
                    0x4               All_deRFusb23e06_At91sam3s4c_Rf231_Gcc/Obj/fakeBSP.o
csSIB               0x50              All_deRFusb23e06_At91sam3s4c_Rf231_Gcc/Obj/csMem.o
request             0xf               All_deRFusb23e06_At91sam3s4c_Rf231_Gcc/Obj/vcpCdcProtocol.o
apsMem              0x158             ./../../../../../../Atmel_lib/BitCloud_SAM3S_EK_1_14_0/BitCloud/lib/libBc_All_At91sam3s4c_Rf231_Gcc.a(aps.o)
txBuffer            0x21              ./../../../../../../Atmel_lib/BitCloud_SAM3S_EK_1_14_0/BitCloud/lib/libBc_All_At91sam3s4c_Rf231_Gcc.a(machwdFrameRoutine.o)
__rtimer            0x6               ./../../../../../../Atmel_lib/BitCloud_SAM3S_EK_1_14_0/BitCloud/lib/libHAL_deRFusb23e06_At91sam3s4c_64Mhz_Gcc.a(halMacIsr.o)
vcpControl          0x2               All_deRFusb23e06_At91sam3s4c_Rf231_Gcc/Obj/vcpVirtualUsart.o
halAvarRegState     0x48              ./../../../../../../Atmel_lib/BitCloud_SAM3S_EK_1_14_0/BitCloud/lib/libHAL_deRFusb23e06_At91sam3s4c_64Mhz_Gcc.a(halExcHandler.o)
readLightDataCallback
                    0x4               All_deRFusb23e06_At91sam3s4c_Rf231_Gcc/Obj/fakeBSP.o
csNIB               0x90              All_deRFusb23e06_At91sam3s4c_Rf231_Gcc/Obj/csMem.o

Discarded input sections

 .text          0x00000000        0x0 All_deRFusb23e06_At91sam3s4c_Rf231_Gcc/Obj/blink.o
 .text          0x00000000        0x0 All_deRFusb23e06_At91sam3s4c_Rf231_Gcc/Obj/pdsMem.o
 .data          0x00000000        0x0 All_deRFusb23e06_At91sam3s4c_Rf231_Gcc/Obj/pdsMem.o
 .bss           0x00000000        0x0 All_deRFusb23e06_At91sam3s4c_Rf231_Gcc/Obj/pdsMem.o
 .text          0x00000000        0x0 All_deRFusb23e06_At91sam3s4c_Rf231_Gcc/Obj/pdsWriteData.o
 .data          0x00000000        0x0 All_deRFusb23e06_At91sam3s4c_Rf231_Gcc/Obj/pdsWriteData.o
 .bss           0x00000000        0x0 All_deRFusb23e06_At91sam3s4c_Rf231_Gcc/Obj/pdsWriteData.o
 .text.pdsDummyCallback
                0x00000000        0x2 All_deRFusb23e06_At91sam3s4c_Rf231_Gcc/Obj/pdsWriteData.o
 .text.pdsWaitMemoryFree
                0x00000000       0x12 All_deRFusb23e06_At91sam3s4c_Rf231_Gcc/Obj/pdsWriteData.o
 .text.pdsRead  0x00000000       0x30 All_deRFusb23e06_At91sam3s4c_Rf231_Gcc/Obj/pdsWriteData.o
 .text.pdsWrite
                0x00000000       0x30 All_deRFusb23e06_At91sam3s4c_Rf231_Gcc/Obj/pdsWriteData.o
 .text          0x00000000        0x0 All_deRFusb23e06_At91sam3s4c_Rf231_Gcc/Obj/pdsDataServer.o
 .data          0x00000000        0x0 All_deRFusb23e06_At91sam3s4c_Rf231_Gcc/Obj/pdsDataServer.o
 .bss           0x00000000        0x0 All_deRFusb23e06_At91sam3s4c_Rf231_Gcc/Obj/pdsDataServer.o
 .text.PDS_ReadUserData
                0x00000000       0x4c All_deRFusb23e06_At91sam3s4c_Rf231_Gcc/Obj/pdsDataServer.o
 .text.PDS_WriteUserData
                0x00000000       0x4c All_deRFusb23e06_At91sam3s4c_Rf231_Gcc/Obj/pdsDataServer.o
 .text          0x00000000        0x0 All_deRFusb23e06_At91sam3s4c_Rf231_Gcc/Obj/pdsInit.o
 .data          0x00000000        0x0 All_deRFusb23e06_At91sam3s4c_Rf231_Gcc/Obj/pdsInit.o
 .bss           0x00000000        0x0 All_deRFusb23e06_At91sam3s4c_Rf231_Gcc/Obj/pdsInit.o
 .text          0x00000000        0x0 All_deRFusb23e06_At91sam3s4c_Rf231_Gcc/Obj/pdsTimer.o
 .data          0x00000000        0x0 All_deRFusb23e06_At91sam3s4c_Rf231_Gcc/Obj/pdsTimer.o
 .bss           0x00000000        0x0 All_deRFusb23e06_At91sam3s4c_Rf231_Gcc/Obj/pdsTimer.o
 .text          0x00000000        0x0 All_deRFusb23e06_At91sam3s4c_Rf231_Gcc/Obj/pdsEvents.o
 .data          0x00000000        0x0 All_deRFusb23e06_At91sam3s4c_Rf231_Gcc/Obj/pdsEvents.o
 .bss           0x00000000        0x0 All_deRFusb23e06_At91sam3s4c_Rf231_Gcc/Obj/pdsEvents.o
 .text          0x00000000        0x0 All_deRFusb23e06_At91sam3s4c_Rf231_Gcc/Obj/pdsMemAccess.o
 .data          0x00000000        0x0 All_deRFusb23e06_At91sam3s4c_Rf231_Gcc/Obj/pdsMemAccess.o
 .bss           0x00000000        0x0 All_deRFusb23e06_At91sam3s4c_Rf231_Gcc/Obj/pdsMemAccess.o
 .text          0x00000000        0x0 All_deRFusb23e06_At91sam3s4c_Rf231_Gcc/Obj/pdsCrcService.o
 .data          0x00000000        0x0 All_deRFusb23e06_At91sam3s4c_Rf231_Gcc/Obj/pdsCrcService.o
 .bss           0x00000000        0x0 All_deRFusb23e06_At91sam3s4c_Rf231_Gcc/Obj/pdsCrcService.o
 .text          0x00000000        0x0 All_deRFusb23e06_At91sam3s4c_Rf231_Gcc/Obj/vcpVirtualUsart.o
 .data          0x00000000        0x0 All_deRFusb23e06_At91sam3s4c_Rf231_Gcc/Obj/vcpVirtualUsart.o
 .bss           0x00000000        0x4 All_deRFusb23e06_At91sam3s4c_Rf231_Gcc/Obj/vcpVirtualUsart.o
 .text.vcpTmtCallback
                0x00000000       0x74 All_deRFusb23e06_At91sam3s4c_Rf231_Gcc/Obj/vcpVirtualUsart.o
 .text.VCP_OpenUsart
                0x00000000       0x50 All_deRFusb23e06_At91sam3s4c_Rf231_Gcc/Obj/vcpVirtualUsart.o
 .text.VCP_CloseUsart
                0x00000000       0x1c All_deRFusb23e06_At91sam3s4c_Rf231_Gcc/Obj/vcpVirtualUsart.o
 .text.VCP_WriteUsart
                0x00000000       0xe4 All_deRFusb23e06_At91sam3s4c_Rf231_Gcc/Obj/vcpVirtualUsart.o
 .text.vcpEnableReadPipe
                0x00000000       0x88 All_deRFusb23e06_At91sam3s4c_Rf231_Gcc/Obj/vcpVirtualUsart.o
 .text.vcpRcvCallback
                0x00000000       0x38 All_deRFusb23e06_At91sam3s4c_Rf231_Gcc/Obj/vcpVirtualUsart.o
 .text.VCP_ReadUsart
                0x00000000       0xec All_deRFusb23e06_At91sam3s4c_Rf231_Gcc/Obj/vcpVirtualUsart.o
 .text.VCP_IsTxEmpty
                0x00000000       0x28 All_deRFusb23e06_At91sam3s4c_Rf231_Gcc/Obj/vcpVirtualUsart.o
 COMMON         0x00000000        0x2 All_deRFusb23e06_At91sam3s4c_Rf231_Gcc/Obj/vcpVirtualUsart.o
 .text          0x00000000        0x0 All_deRFusb23e06_At91sam3s4c_Rf231_Gcc/Obj/vcpCdcProtocol.o
 .data          0x00000000        0x0 All_deRFusb23e06_At91sam3s4c_Rf231_Gcc/Obj/vcpCdcProtocol.o
 .bss           0x00000000        0x0 All_deRFusb23e06_At91sam3s4c_Rf231_Gcc/Obj/vcpCdcProtocol.o
 .text.vcpResponseSetLineCoding
                0x00000000        0x8 All_deRFusb23e06_At91sam3s4c_Rf231_Gcc/Obj/vcpCdcProtocol.o
 .text.vcpGetBaudRate
                0x00000000       0x10 All_deRFusb23e06_At91sam3s4c_Rf231_Gcc/Obj/vcpCdcProtocol.o
 .text.vcpGetStopBits
                0x00000000        0xc All_deRFusb23e06_At91sam3s4c_Rf231_Gcc/Obj/vcpCdcProtocol.o
 .text.vcpGetParity
                0x00000000        0xc All_deRFusb23e06_At91sam3s4c_Rf231_Gcc/Obj/vcpCdcProtocol.o
 .text.vcpGetDataLength
                0x00000000        0xc All_deRFusb23e06_At91sam3s4c_Rf231_Gcc/Obj/vcpCdcProtocol.o
 .text.vcpResponseGetLineCoding
                0x00000000       0x24 All_deRFusb23e06_At91sam3s4c_Rf231_Gcc/Obj/vcpCdcProtocol.o
 .text.vcpSetBaudRate
                0x00000000        0x2 All_deRFusb23e06_At91sam3s4c_Rf231_Gcc/Obj/vcpCdcProtocol.o
 .text.vcpSetStopBits
                0x00000000        0x2 All_deRFusb23e06_At91sam3s4c_Rf231_Gcc/Obj/vcpCdcProtocol.o
 .text.vcpSetParity
                0x00000000        0x2 All_deRFusb23e06_At91sam3s4c_Rf231_Gcc/Obj/vcpCdcProtocol.o
 .text.vcpSetDataLength
                0x00000000        0x2 All_deRFusb23e06_At91sam3s4c_Rf231_Gcc/Obj/vcpCdcProtocol.o
 .text.vcpRequestHandler
                0x00000000       0x40 All_deRFusb23e06_At91sam3s4c_Rf231_Gcc/Obj/vcpCdcProtocol.o
 COMMON         0x00000000       0x17 All_deRFusb23e06_At91sam3s4c_Rf231_Gcc/Obj/vcpCdcProtocol.o
 .text          0x00000000        0x0 All_deRFusb23e06_At91sam3s4c_Rf231_Gcc/Obj/usbSetupProcess.o
 .data          0x00000000        0x0 All_deRFusb23e06_At91sam3s4c_Rf231_Gcc/Obj/usbSetupProcess.o
 .bss           0x00000000        0x0 All_deRFusb23e06_At91sam3s4c_Rf231_Gcc/Obj/usbSetupProcess.o
 .text.setupProcessRequestHandler
                0x00000000       0x1c All_deRFusb23e06_At91sam3s4c_Rf231_Gcc/Obj/usbSetupProcess.o
 .text          0x00000000        0x0 All_deRFusb23e06_At91sam3s4c_Rf231_Gcc/Obj/usbDescriptors.o
 .data          0x00000000        0x0 All_deRFusb23e06_At91sam3s4c_Rf231_Gcc/Obj/usbDescriptors.o
 .bss           0x00000000        0x0 All_deRFusb23e06_At91sam3s4c_Rf231_Gcc/Obj/usbDescriptors.o
 .rodata        0x00000000       0x70 All_deRFusb23e06_At91sam3s4c_Rf231_Gcc/Obj/usbDescriptors.o
 .text          0x00000000        0x0 All_deRFusb23e06_At91sam3s4c_Rf231_Gcc/Obj/usbEnumeration.o
 .data          0x00000000       0x18 All_deRFusb23e06_At91sam3s4c_Rf231_Gcc/Obj/usbEnumeration.o
 .bss           0x00000000        0x2 All_deRFusb23e06_At91sam3s4c_Rf231_Gcc/Obj/usbEnumeration.o
 .text.sendZLP  0x00000000       0x12 All_deRFusb23e06_At91sam3s4c_Rf231_Gcc/Obj/usbEnumeration.o
 .text.runtimeSetConfiguration
                0x00000000        0xc All_deRFusb23e06_At91sam3s4c_Rf231_Gcc/Obj/usbEnumeration.o
 .text.runtimeGetDescriptorHandler
                0x00000000       0x6c All_deRFusb23e06_At91sam3s4c_Rf231_Gcc/Obj/usbEnumeration.o
 .text.runtimeRequestHandler
                0x00000000       0xb0 All_deRFusb23e06_At91sam3s4c_Rf231_Gcc/Obj/usbEnumeration.o
 .text.usbBusResetAction
                0x00000000       0x10 All_deRFusb23e06_At91sam3s4c_Rf231_Gcc/Obj/usbEnumeration.o
 .text.usbSetSerialNumber
                0x00000000       0x24 All_deRFusb23e06_At91sam3s4c_Rf231_Gcc/Obj/usbEnumeration.o
 .text          0x00000000        0x0 All_deRFusb23e06_At91sam3s4c_Rf231_Gcc/Obj/leds.o
 .data          0x00000000        0x0 All_deRFusb23e06_At91sam3s4c_Rf231_Gcc/Obj/leds.o
 .bss           0x00000000        0x0 All_deRFusb23e06_At91sam3s4c_Rf231_Gcc/Obj/leds.o
 .text.BSP_CloseLeds
                0x00000000       0x30 All_deRFusb23e06_At91sam3s4c_Rf231_Gcc/Obj/leds.o
 .text.BSP_OffLed
                0x00000000       0x28 All_deRFusb23e06_At91sam3s4c_Rf231_Gcc/Obj/leds.o
 .text          0x00000000        0x0 All_deRFusb23e06_At91sam3s4c_Rf231_Gcc/Obj/bspTaskManager.o
 .data          0x00000000        0x0 All_deRFusb23e06_At91sam3s4c_Rf231_Gcc/Obj/bspTaskManager.o
 .text          0x00000000        0x0 All_deRFusb23e06_At91sam3s4c_Rf231_Gcc/Obj/fakeBSP.o
 .data          0x00000000        0x0 All_deRFusb23e06_At91sam3s4c_Rf231_Gcc/Obj/fakeBSP.o
 .bss           0x00000000        0x0 All_deRFusb23e06_At91sam3s4c_Rf231_Gcc/Obj/fakeBSP.o
 .text.BSP_CloseButtons
                0x00000000        0x4 All_deRFusb23e06_At91sam3s4c_Rf231_Gcc/Obj/fakeBSP.o
 .text.BSP_ReadButtonsState
                0x00000000        0x4 All_deRFusb23e06_At91sam3s4c_Rf231_Gcc/Obj/fakeBSP.o
 .text.BSP_OpenTemperatureSensor
                0x00000000        0x4 All_deRFusb23e06_At91sam3s4c_Rf231_Gcc/Obj/fakeBSP.o
 .text.BSP_CloseTemperatureSensor
                0x00000000        0x4 All_deRFusb23e06_At91sam3s4c_Rf231_Gcc/Obj/fakeBSP.o
 .text.BSP_ReadTemperatureData
                0x00000000       0x3c All_deRFusb23e06_At91sam3s4c_Rf231_Gcc/Obj/fakeBSP.o
 .text.BSP_OpenLightSensor
                0x00000000        0x4 All_deRFusb23e06_At91sam3s4c_Rf231_Gcc/Obj/fakeBSP.o
 .text.BSP_CloseLightSensor
                0x00000000        0x4 All_deRFusb23e06_At91sam3s4c_Rf231_Gcc/Obj/fakeBSP.o
 .text.BSP_ReadLightData
                0x00000000       0x3c All_deRFusb23e06_At91sam3s4c_Rf231_Gcc/Obj/fakeBSP.o
 .text.BSP_OpenBatterySensor
                0x00000000        0x4 All_deRFusb23e06_At91sam3s4c_Rf231_Gcc/Obj/fakeBSP.o
 .text.BSP_CloseBatterySensor
                0x00000000        0x4 All_deRFusb23e06_At91sam3s4c_Rf231_Gcc/Obj/fakeBSP.o
 .text.BSP_ReadBatteryData
                0x00000000       0x3c All_deRFusb23e06_At91sam3s4c_Rf231_Gcc/Obj/fakeBSP.o
 .text.BSP_ReadSliders
                0x00000000        0x4 All_deRFusb23e06_At91sam3s4c_Rf231_Gcc/Obj/fakeBSP.o
 .text.BSP_OpenJoystick
                0x00000000        0x4 All_deRFusb23e06_At91sam3s4c_Rf231_Gcc/Obj/fakeBSP.o
 .text.BSP_CloseJoystick
                0x00000000        0x4 All_deRFusb23e06_At91sam3s4c_Rf231_Gcc/Obj/fakeBSP.o
 .text.BSP_ReadJoystickState
                0x00000000        0x4 All_deRFusb23e06_At91sam3s4c_Rf231_Gcc/Obj/fakeBSP.o
 .text          0x00000000        0x0 All_deRFusb23e06_At91sam3s4c_Rf231_Gcc/Obj/csPersistentMem.o
 .data          0x00000000        0x0 All_deRFusb23e06_At91sam3s4c_Rf231_Gcc/Obj/csPersistentMem.o
 .bss           0x00000000        0x0 All_deRFusb23e06_At91sam3s4c_Rf231_Gcc/Obj/csPersistentMem.o
 .text          0x00000000        0x0 All_deRFusb23e06_At91sam3s4c_Rf231_Gcc/Obj/csMem.o
 .bss           0x00000000        0x0 All_deRFusb23e06_At91sam3s4c_Rf231_Gcc/Obj/csMem.o
 .text          0x00000000        0x0 All_deRFusb23e06_At91sam3s4c_Rf231_Gcc/Obj/configServer.o
 .data          0x00000000        0x0 All_deRFusb23e06_At91sam3s4c_Rf231_Gcc/Obj/configServer.o
 .bss           0x00000000        0x0 All_deRFusb23e06_At91sam3s4c_Rf231_Gcc/Obj/configServer.o
 .text.CS_PdsDefaultValue
                0x00000000       0x80 All_deRFusb23e06_At91sam3s4c_Rf231_Gcc/Obj/configServer.o
 .text          0x00000000        0x0 ./../../../../../../Atmel_lib/BitCloud_SAM3S_EK_1_14_0/BitCloud/lib/libHAL_deRFusb23e06_At91sam3s4c_64Mhz_Gcc.a(atomic.o)
 .data          0x00000000        0x0 ./../../../../../../Atmel_lib/BitCloud_SAM3S_EK_1_14_0/BitCloud/lib/libHAL_deRFusb23e06_At91sam3s4c_64Mhz_Gcc.a(atomic.o)
 .bss           0x00000000        0x0 ./../../../../../../Atmel_lib/BitCloud_SAM3S_EK_1_14_0/BitCloud/lib/libHAL_deRFusb23e06_At91sam3s4c_64Mhz_Gcc.a(atomic.o)
 .text          0x00000000        0x0 ./../../../../../../Atmel_lib/BitCloud_SAM3S_EK_1_14_0/BitCloud/lib/libHAL_deRFusb23e06_At91sam3s4c_64Mhz_Gcc.a(core_cm3.o)
 .data          0x00000000        0x0 ./../../../../../../Atmel_lib/BitCloud_SAM3S_EK_1_14_0/BitCloud/lib/libHAL_deRFusb23e06_At91sam3s4c_64Mhz_Gcc.a(core_cm3.o)
 .bss           0x00000000        0x0 ./../../../../../../Atmel_lib/BitCloud_SAM3S_EK_1_14_0/BitCloud/lib/libHAL_deRFusb23e06_At91sam3s4c_64Mhz_Gcc.a(core_cm3.o)
 .text.__get_PSP
                0x00000000        0x6 ./../../../../../../Atmel_lib/BitCloud_SAM3S_EK_1_14_0/BitCloud/lib/libHAL_deRFusb23e06_At91sam3s4c_64Mhz_Gcc.a(core_cm3.o)
 .text.__set_PSP
                0x00000000        0x6 ./../../../../../../Atmel_lib/BitCloud_SAM3S_EK_1_14_0/BitCloud/lib/libHAL_deRFusb23e06_At91sam3s4c_64Mhz_Gcc.a(core_cm3.o)
 .text.__get_MSP
                0x00000000        0x6 ./../../../../../../Atmel_lib/BitCloud_SAM3S_EK_1_14_0/BitCloud/lib/libHAL_deRFusb23e06_At91sam3s4c_64Mhz_Gcc.a(core_cm3.o)
 .text.__set_MSP
                0x00000000        0x6 ./../../../../../../Atmel_lib/BitCloud_SAM3S_EK_1_14_0/BitCloud/lib/libHAL_deRFusb23e06_At91sam3s4c_64Mhz_Gcc.a(core_cm3.o)
 .text.__get_BASEPRI
                0x00000000        0x6 ./../../../../../../Atmel_lib/BitCloud_SAM3S_EK_1_14_0/BitCloud/lib/libHAL_deRFusb23e06_At91sam3s4c_64Mhz_Gcc.a(core_cm3.o)
 .text.__set_BASEPRI
                0x00000000        0x6 ./../../../../../../Atmel_lib/BitCloud_SAM3S_EK_1_14_0/BitCloud/lib/libHAL_deRFusb23e06_At91sam3s4c_64Mhz_Gcc.a(core_cm3.o)
 .text.__get_FAULTMASK
                0x00000000        0x6 ./../../../../../../Atmel_lib/BitCloud_SAM3S_EK_1_14_0/BitCloud/lib/libHAL_deRFusb23e06_At91sam3s4c_64Mhz_Gcc.a(core_cm3.o)
 .text.__set_FAULTMASK
                0x00000000        0x6 ./../../../../../../Atmel_lib/BitCloud_SAM3S_EK_1_14_0/BitCloud/lib/libHAL_deRFusb23e06_At91sam3s4c_64Mhz_Gcc.a(core_cm3.o)
 .text.__REV    0x00000000        0x4 ./../../../../../../Atmel_lib/BitCloud_SAM3S_EK_1_14_0/BitCloud/lib/libHAL_deRFusb23e06_At91sam3s4c_64Mhz_Gcc.a(core_cm3.o)
 .text.__REV16  0x00000000        0x4 ./../../../../../../Atmel_lib/BitCloud_SAM3S_EK_1_14_0/BitCloud/lib/libHAL_deRFusb23e06_At91sam3s4c_64Mhz_Gcc.a(core_cm3.o)
 .text.__REVSH  0x00000000        0x4 ./../../../../../../Atmel_lib/BitCloud_SAM3S_EK_1_14_0/BitCloud/lib/libHAL_deRFusb23e06_At91sam3s4c_64Mhz_Gcc.a(core_cm3.o)
 .text.__RBIT   0x00000000        0x6 ./../../../../../../Atmel_lib/BitCloud_SAM3S_EK_1_14_0/BitCloud/lib/libHAL_deRFusb23e06_At91sam3s4c_64Mhz_Gcc.a(core_cm3.o)
 .text.__LDREXB
                0x00000000        0x8 ./../../../../../../Atmel_lib/BitCloud_SAM3S_EK_1_14_0/BitCloud/lib/libHAL_deRFusb23e06_At91sam3s4c_64Mhz_Gcc.a(core_cm3.o)
 .text.__LDREXH
                0x00000000        0x8 ./../../../../../../Atmel_lib/BitCloud_SAM3S_EK_1_14_0/BitCloud/lib/libHAL_deRFusb23e06_At91sam3s4c_64Mhz_Gcc.a(core_cm3.o)
 .text.__LDREXW
                0x00000000        0x6 ./../../../../../../Atmel_lib/BitCloud_SAM3S_EK_1_14_0/BitCloud/lib/libHAL_deRFusb23e06_At91sam3s4c_64Mhz_Gcc.a(core_cm3.o)
 .text.__STREXB
                0x00000000        0x6 ./../../../../../../Atmel_lib/BitCloud_SAM3S_EK_1_14_0/BitCloud/lib/libHAL_deRFusb23e06_At91sam3s4c_64Mhz_Gcc.a(core_cm3.o)
 .text.__STREXH
                0x00000000        0x6 ./../../../../../../Atmel_lib/BitCloud_SAM3S_EK_1_14_0/BitCloud/lib/libHAL_deRFusb23e06_At91sam3s4c_64Mhz_Gcc.a(core_cm3.o)
 .text.__STREXW
                0x00000000        0x6 ./../../../../../../Atmel_lib/BitCloud_SAM3S_EK_1_14_0/BitCloud/lib/libHAL_deRFusb23e06_At91sam3s4c_64Mhz_Gcc.a(core_cm3.o)
 .text.__get_CONTROL
                0x00000000        0x6 ./../../../../../../Atmel_lib/BitCloud_SAM3S_EK_1_14_0/BitCloud/lib/libHAL_deRFusb23e06_At91sam3s4c_64Mhz_Gcc.a(core_cm3.o)
 .text.__set_CONTROL
                0x00000000        0x6 ./../../../../../../Atmel_lib/BitCloud_SAM3S_EK_1_14_0/BitCloud/lib/libHAL_deRFusb23e06_At91sam3s4c_64Mhz_Gcc.a(core_cm3.o)
 .text          0x00000000        0x0 ./../../../../../../Atmel_lib/BitCloud_SAM3S_EK_1_14_0/BitCloud/lib/libHAL_deRFusb23e06_At91sam3s4c_64Mhz_Gcc.a(halVectorTable.o)
 .data          0x00000000        0x0 ./../../../../../../Atmel_lib/BitCloud_SAM3S_EK_1_14_0/BitCloud/lib/libHAL_deRFusb23e06_At91sam3s4c_64Mhz_Gcc.a(halVectorTable.o)
 .bss           0x00000000        0x0 ./../../../../../../Atmel_lib/BitCloud_SAM3S_EK_1_14_0/BitCloud/lib/libHAL_deRFusb23e06_At91sam3s4c_64Mhz_Gcc.a(halVectorTable.o)
 .text.HAL_InstallInterruptVector
                0x00000000       0x28 ./../../../../../../Atmel_lib/BitCloud_SAM3S_EK_1_14_0/BitCloud/lib/libHAL_deRFusb23e06_At91sam3s4c_64Mhz_Gcc.a(halVectorTable.o)
 .text          0x00000000        0x0 ./../../../../../../Atmel_lib/BitCloud_SAM3S_EK_1_14_0/BitCloud/lib/libHAL_deRFusb23e06_At91sam3s4c_64Mhz_Gcc.a(halAppClock.o)
 .data          0x00000000        0x0 ./../../../../../../Atmel_lib/BitCloud_SAM3S_EK_1_14_0/BitCloud/lib/libHAL_deRFusb23e06_At91sam3s4c_64Mhz_Gcc.a(halAppClock.o)
 .text.HAL_ReadFreq
                0x00000000        0x8 ./../../../../../../Atmel_lib/BitCloud_SAM3S_EK_1_14_0/BitCloud/lib/libHAL_deRFusb23e06_At91sam3s4c_64Mhz_Gcc.a(halAppClock.o)
 .text          0x00000000        0x0 ./../../../../../../Atmel_lib/BitCloud_SAM3S_EK_1_14_0/BitCloud/lib/libHAL_deRFusb23e06_At91sam3s4c_64Mhz_Gcc.a(halUsart.o)
 .data          0x00000000        0x0 ./../../../../../../Atmel_lib/BitCloud_SAM3S_EK_1_14_0/BitCloud/lib/libHAL_deRFusb23e06_At91sam3s4c_64Mhz_Gcc.a(halUsart.o)
 .bss           0x00000000        0x0 ./../../../../../../Atmel_lib/BitCloud_SAM3S_EK_1_14_0/BitCloud/lib/libHAL_deRFusb23e06_At91sam3s4c_64Mhz_Gcc.a(halUsart.o)
 .text.halFoundationsInit
                0x00000000       0x84 ./../../../../../../Atmel_lib/BitCloud_SAM3S_EK_1_14_0/BitCloud/lib/libHAL_deRFusb23e06_At91sam3s4c_64Mhz_Gcc.a(halUsart.o)
 .text.halSetUsartConfig
                0x00000000       0x3e ./../../../../../../Atmel_lib/BitCloud_SAM3S_EK_1_14_0/BitCloud/lib/libHAL_deRFusb23e06_At91sam3s4c_64Mhz_Gcc.a(halUsart.o)
 .text          0x00000000        0x0 ./../../../../../../Atmel_lib/BitCloud_SAM3S_EK_1_14_0/BitCloud/lib/libHAL_deRFusb23e06_At91sam3s4c_64Mhz_Gcc.a(halUart.o)
 .data          0x00000000        0x0 ./../../../../../../Atmel_lib/BitCloud_SAM3S_EK_1_14_0/BitCloud/lib/libHAL_deRFusb23e06_At91sam3s4c_64Mhz_Gcc.a(halUart.o)
 .text.halCloseUart
                0x00000000       0x5c ./../../../../../../Atmel_lib/BitCloud_SAM3S_EK_1_14_0/BitCloud/lib/libHAL_deRFusb23e06_At91sam3s4c_64Mhz_Gcc.a(halUart.o)
 .text.uart1Handler
                0x00000000       0x68 ./../../../../../../Atmel_lib/BitCloud_SAM3S_EK_1_14_0/BitCloud/lib/libHAL_deRFusb23e06_At91sam3s4c_64Mhz_Gcc.a(halUart.o)
 .text.halIsUartValid
                0x00000000       0x20 ./../../../../../../Atmel_lib/BitCloud_SAM3S_EK_1_14_0/BitCloud/lib/libHAL_deRFusb23e06_At91sam3s4c_64Mhz_Gcc.a(halUart.o)
 .text.halIsUartOpened
                0x00000000       0x1c ./../../../../../../Atmel_lib/BitCloud_SAM3S_EK_1_14_0/BitCloud/lib/libHAL_deRFusb23e06_At91sam3s4c_64Mhz_Gcc.a(halUart.o)
 .text.halOpenUart
                0x00000000       0x88 ./../../../../../../Atmel_lib/BitCloud_SAM3S_EK_1_14_0/BitCloud/lib/libHAL_deRFusb23e06_At91sam3s4c_64Mhz_Gcc.a(halUart.o)
 .text          0x00000000        0x0 ./../../../../../../Atmel_lib/BitCloud_SAM3S_EK_1_14_0/BitCloud/lib/libHAL_deRFusb23e06_At91sam3s4c_64Mhz_Gcc.a(halUsb.o)
 .data          0x00000000        0x0 ./../../../../../../Atmel_lib/BitCloud_SAM3S_EK_1_14_0/BitCloud/lib/libHAL_deRFusb23e06_At91sam3s4c_64Mhz_Gcc.a(halUsb.o)
 .text.halUsbInterrupt
                0x00000000       0x28 ./../../../../../../Atmel_lib/BitCloud_SAM3S_EK_1_14_0/BitCloud/lib/libHAL_deRFusb23e06_At91sam3s4c_64Mhz_Gcc.a(halUsb.o)
 .text.halStartUsbWrite
                0x00000000       0x60 ./../../../../../../Atmel_lib/BitCloud_SAM3S_EK_1_14_0/BitCloud/lib/libHAL_deRFusb23e06_At91sam3s4c_64Mhz_Gcc.a(halUsb.o)
 .text.halEndpointHaltState
                0x00000000       0x1c ./../../../../../../Atmel_lib/BitCloud_SAM3S_EK_1_14_0/BitCloud/lib/libHAL_deRFusb23e06_At91sam3s4c_64Mhz_Gcc.a(halUsb.o)
 .text.halEndpointUnHaltState
                0x00000000       0x28 ./../../../../../../Atmel_lib/BitCloud_SAM3S_EK_1_14_0/BitCloud/lib/libHAL_deRFusb23e06_At91sam3s4c_64Mhz_Gcc.a(halUsb.o)
 .text.halSendStallToHost
                0x00000000        0xa ./../../../../../../Atmel_lib/BitCloud_SAM3S_EK_1_14_0/BitCloud/lib/libHAL_deRFusb23e06_At91sam3s4c_64Mhz_Gcc.a(halUsb.o)
 .text.halSetUsbAddress
                0x00000000       0x18 ./../../../../../../Atmel_lib/BitCloud_SAM3S_EK_1_14_0/BitCloud/lib/libHAL_deRFusb23e06_At91sam3s4c_64Mhz_Gcc.a(halUsb.o)
 .text.halSetUsbConfigState
                0x00000000       0x18 ./../../../../../../Atmel_lib/BitCloud_SAM3S_EK_1_14_0/BitCloud/lib/libHAL_deRFusb23e06_At91sam3s4c_64Mhz_Gcc.a(halUsb.o)
 .text          0x00000000        0x0 ./../../../../../../Atmel_lib/BitCloud_SAM3S_EK_1_14_0/BitCloud/lib/libHAL_deRFusb23e06_At91sam3s4c_64Mhz_Gcc.a(halIrq.o)
 .bss           0x00000000        0x0 ./../../../../../../Atmel_lib/BitCloud_SAM3S_EK_1_14_0/BitCloud/lib/libHAL_deRFusb23e06_At91sam3s4c_64Mhz_Gcc.a(halIrq.o)
 .text.halUnregisterExtIrq
                0x00000000       0xa8 ./../../../../../../Atmel_lib/BitCloud_SAM3S_EK_1_14_0/BitCloud/lib/libHAL_deRFusb23e06_At91sam3s4c_64Mhz_Gcc.a(halIrq.o)
 .text.halIsUserExtIrqRegistered
                0x00000000       0x18 ./../../../../../../Atmel_lib/BitCloud_SAM3S_EK_1_14_0/BitCloud/lib/libHAL_deRFusb23e06_At91sam3s4c_64Mhz_Gcc.a(halIrq.o)
 .text.halIsUserExtIrqValid
                0x00000000        0xa ./../../../../../../Atmel_lib/BitCloud_SAM3S_EK_1_14_0/BitCloud/lib/libHAL_deRFusb23e06_At91sam3s4c_64Mhz_Gcc.a(halIrq.o)
 .text          0x00000000        0x0 ./../../../../../../Atmel_lib/BitCloud_SAM3S_EK_1_14_0/BitCloud/lib/libHAL_deRFusb23e06_At91sam3s4c_64Mhz_Gcc.a(halHsmci.o)
 .data          0x00000000        0x0 ./../../../../../../Atmel_lib/BitCloud_SAM3S_EK_1_14_0/BitCloud/lib/libHAL_deRFusb23e06_At91sam3s4c_64Mhz_Gcc.a(halHsmci.o)
 .text.halPrepareHsmciCommand
                0x00000000       0x2c ./../../../../../../Atmel_lib/BitCloud_SAM3S_EK_1_14_0/BitCloud/lib/libHAL_deRFusb23e06_At91sam3s4c_64Mhz_Gcc.a(halHsmci.o)
 .text.halCalculateHsmciClockDivider
                0x00000000       0x28 ./../../../../../../Atmel_lib/BitCloud_SAM3S_EK_1_14_0/BitCloud/lib/libHAL_deRFusb23e06_At91sam3s4c_64Mhz_Gcc.a(halHsmci.o)
 .text.halInitHsmci
                0x00000000       0x90 ./../../../../../../Atmel_lib/BitCloud_SAM3S_EK_1_14_0/BitCloud/lib/libHAL_deRFusb23e06_At91sam3s4c_64Mhz_Gcc.a(halHsmci.o)
 .text.halWriteHsmciCommand
                0x00000000       0x24 ./../../../../../../Atmel_lib/BitCloud_SAM3S_EK_1_14_0/BitCloud/lib/libHAL_deRFusb23e06_At91sam3s4c_64Mhz_Gcc.a(halHsmci.o)
 .text.halHsmciData
                0x00000000       0x9c ./../../../../../../Atmel_lib/BitCloud_SAM3S_EK_1_14_0/BitCloud/lib/libHAL_deRFusb23e06_At91sam3s4c_64Mhz_Gcc.a(halHsmci.o)
 .text.halHsmciIsBusFree
                0x00000000       0x24 ./../../../../../../Atmel_lib/BitCloud_SAM3S_EK_1_14_0/BitCloud/lib/libHAL_deRFusb23e06_At91sam3s4c_64Mhz_Gcc.a(halHsmci.o)
 .text.halHsmciSetClockRate
                0x00000000       0x1e ./../../../../../../Atmel_lib/BitCloud_SAM3S_EK_1_14_0/BitCloud/lib/libHAL_deRFusb23e06_At91sam3s4c_64Mhz_Gcc.a(halHsmci.o)
 .text.halHsmciSetBusWidth
                0x00000000       0x18 ./../../../../../../Atmel_lib/BitCloud_SAM3S_EK_1_14_0/BitCloud/lib/libHAL_deRFusb23e06_At91sam3s4c_64Mhz_Gcc.a(halHsmci.o)
 .text.halHsmciSetHighSpeedMode
                0x00000000       0x1c ./../../../../../../Atmel_lib/BitCloud_SAM3S_EK_1_14_0/BitCloud/lib/libHAL_deRFusb23e06_At91sam3s4c_64Mhz_Gcc.a(halHsmci.o)
 .text          0x00000000        0x0 ./../../../../../../Atmel_lib/BitCloud_SAM3S_EK_1_14_0/BitCloud/lib/libHAL_deRFusb23e06_At91sam3s4c_64Mhz_Gcc.a(halSleepTimerClock.o)
 .data          0x00000000        0x0 ./../../../../../../Atmel_lib/BitCloud_SAM3S_EK_1_14_0/BitCloud/lib/libHAL_deRFusb23e06_At91sam3s4c_64Mhz_Gcc.a(halSleepTimerClock.o)
 .text.halWakeupFromIrq
                0x00000000       0x58 ./../../../../../../Atmel_lib/BitCloud_SAM3S_EK_1_14_0/BitCloud/lib/libHAL_deRFusb23e06_At91sam3s4c_64Mhz_Gcc.a(halSleepTimerClock.o)
 .text          0x00000000        0x0 ./../../../../../../Atmel_lib/BitCloud_SAM3S_EK_1_14_0/BitCloud/lib/libHAL_deRFusb23e06_At91sam3s4c_64Mhz_Gcc.a(halSleep.o)
 .data          0x00000000        0x0 ./../../../../../../Atmel_lib/BitCloud_SAM3S_EK_1_14_0/BitCloud/lib/libHAL_deRFusb23e06_At91sam3s4c_64Mhz_Gcc.a(halSleep.o)
 .text.HAL_IdleMode
                0x00000000       0x20 ./../../../../../../Atmel_lib/BitCloud_SAM3S_EK_1_14_0/BitCloud/lib/libHAL_deRFusb23e06_At91sam3s4c_64Mhz_Gcc.a(halSleep.o)
 .text          0x00000000        0x0 ./../../../../../../Atmel_lib/BitCloud_SAM3S_EK_1_14_0/BitCloud/lib/libHAL_deRFusb23e06_At91sam3s4c_64Mhz_Gcc.a(halStartupGcc.o)
 .data          0x00000000        0x0 ./../../../../../../Atmel_lib/BitCloud_SAM3S_EK_1_14_0/BitCloud/lib/libHAL_deRFusb23e06_At91sam3s4c_64Mhz_Gcc.a(halStartupGcc.o)
 .bss           0x00000000        0x0 ./../../../../../../Atmel_lib/BitCloud_SAM3S_EK_1_14_0/BitCloud/lib/libHAL_deRFusb23e06_At91sam3s4c_64Mhz_Gcc.a(halStartupGcc.o)
 .text          0x00000000        0x0 ./../../../../../../Atmel_lib/BitCloud_SAM3S_EK_1_14_0/BitCloud/lib/libHAL_deRFusb23e06_At91sam3s4c_64Mhz_Gcc.a(halRfCtrl.o)
 .data          0x00000000        0x0 ./../../../../../../Atmel_lib/BitCloud_SAM3S_EK_1_14_0/BitCloud/lib/libHAL_deRFusb23e06_At91sam3s4c_64Mhz_Gcc.a(halRfCtrl.o)
 .bss           0x00000000        0x0 ./../../../../../../Atmel_lib/BitCloud_SAM3S_EK_1_14_0/BitCloud/lib/libHAL_deRFusb23e06_At91sam3s4c_64Mhz_Gcc.a(halRfCtrl.o)
 .text.HAL_MakeInRfSlpTr
                0x00000000       0x14 ./../../../../../../Atmel_lib/BitCloud_SAM3S_EK_1_14_0/BitCloud/lib/libHAL_deRFusb23e06_At91sam3s4c_64Mhz_Gcc.a(halRfCtrl.o)
 .text.HAL_MakeOutRfSlpTr
                0x00000000       0x10 ./../../../../../../Atmel_lib/BitCloud_SAM3S_EK_1_14_0/BitCloud/lib/libHAL_deRFusb23e06_At91sam3s4c_64Mhz_Gcc.a(halRfCtrl.o)
 .text          0x00000000        0x0 ./../../../../../../Atmel_lib/BitCloud_SAM3S_EK_1_14_0/BitCloud/lib/libHAL_deRFusb23e06_At91sam3s4c_64Mhz_Gcc.a(halRfSpi.o)
 .data          0x00000000        0x0 ./../../../../../../Atmel_lib/BitCloud_SAM3S_EK_1_14_0/BitCloud/lib/libHAL_deRFusb23e06_At91sam3s4c_64Mhz_Gcc.a(halRfSpi.o)
 .bss           0x00000000        0x0 ./../../../../../../Atmel_lib/BitCloud_SAM3S_EK_1_14_0/BitCloud/lib/libHAL_deRFusb23e06_At91sam3s4c_64Mhz_Gcc.a(halRfSpi.o)
 .text          0x00000000        0x0 ./../../../../../../Atmel_lib/BitCloud_SAM3S_EK_1_14_0/BitCloud/lib/libHAL_deRFusb23e06_At91sam3s4c_64Mhz_Gcc.a(halMacIsr.o)
 .data          0x00000000        0x0 ./../../../../../../Atmel_lib/BitCloud_SAM3S_EK_1_14_0/BitCloud/lib/libHAL_deRFusb23e06_At91sam3s4c_64Mhz_Gcc.a(halMacIsr.o)
 .bss           0x00000000        0x0 ./../../../../../../Atmel_lib/BitCloud_SAM3S_EK_1_14_0/BitCloud/lib/libHAL_deRFusb23e06_At91sam3s4c_64Mhz_Gcc.a(halMacIsr.o)
 .text          0x00000000        0x0 ./../../../../../../Atmel_lib/BitCloud_SAM3S_EK_1_14_0/BitCloud/lib/libHAL_deRFusb23e06_At91sam3s4c_64Mhz_Gcc.a(appTimer.o)
 .data          0x00000000        0x0 ./../../../../../../Atmel_lib/BitCloud_SAM3S_EK_1_14_0/BitCloud/lib/libHAL_deRFusb23e06_At91sam3s4c_64Mhz_Gcc.a(appTimer.o)
 .text          0x00000000        0x0 ./../../../../../../Atmel_lib/BitCloud_SAM3S_EK_1_14_0/BitCloud/lib/libHAL_deRFusb23e06_At91sam3s4c_64Mhz_Gcc.a(halTaskManager.o)
 .data          0x00000000        0x0 ./../../../../../../Atmel_lib/BitCloud_SAM3S_EK_1_14_0/BitCloud/lib/libHAL_deRFusb23e06_At91sam3s4c_64Mhz_Gcc.a(halTaskManager.o)
 .text          0x00000000        0x0 ./../../../../../../Atmel_lib/BitCloud_SAM3S_EK_1_14_0/BitCloud/lib/libHAL_deRFusb23e06_At91sam3s4c_64Mhz_Gcc.a(sleep.o)
 .data          0x00000000        0x0 ./../../../../../../Atmel_lib/BitCloud_SAM3S_EK_1_14_0/BitCloud/lib/libHAL_deRFusb23e06_At91sam3s4c_64Mhz_Gcc.a(sleep.o)
 .text          0x00000000        0x0 ./../../../../../../Atmel_lib/BitCloud_SAM3S_EK_1_14_0/BitCloud/lib/libHAL_deRFusb23e06_At91sam3s4c_64Mhz_Gcc.a(timer.o)
 .data          0x00000000        0x0 ./../../../../../../Atmel_lib/BitCloud_SAM3S_EK_1_14_0/BitCloud/lib/libHAL_deRFusb23e06_At91sam3s4c_64Mhz_Gcc.a(timer.o)
 .bss           0x00000000        0x0 ./../../../../../../Atmel_lib/BitCloud_SAM3S_EK_1_14_0/BitCloud/lib/libHAL_deRFusb23e06_At91sam3s4c_64Mhz_Gcc.a(timer.o)
 .text          0x00000000        0x0 ./../../../../../../Atmel_lib/BitCloud_SAM3S_EK_1_14_0/BitCloud/lib/libHAL_deRFusb23e06_At91sam3s4c_64Mhz_Gcc.a(usart.o)
 .data          0x00000000        0x0 ./../../../../../../Atmel_lib/BitCloud_SAM3S_EK_1_14_0/BitCloud/lib/libHAL_deRFusb23e06_At91sam3s4c_64Mhz_Gcc.a(usart.o)
 .text.halIsUsartChannelCorrect
                0x00000000       0x1c ./../../../../../../Atmel_lib/BitCloud_SAM3S_EK_1_14_0/BitCloud/lib/libHAL_deRFusb23e06_At91sam3s4c_64Mhz_Gcc.a(usart.o)
 .text.HAL_IsTxEmpty
                0x00000000       0x54 ./../../../../../../Atmel_lib/BitCloud_SAM3S_EK_1_14_0/BitCloud/lib/libHAL_deRFusb23e06_At91sam3s4c_64Mhz_Gcc.a(usart.o)
 .text.HAL_ReadUsartDtr
                0x00000000       0x48 ./../../../../../../Atmel_lib/BitCloud_SAM3S_EK_1_14_0/BitCloud/lib/libHAL_deRFusb23e06_At91sam3s4c_64Mhz_Gcc.a(usart.o)
 .text.HAL_ReadUsartRts
                0x00000000       0x48 ./../../../../../../Atmel_lib/BitCloud_SAM3S_EK_1_14_0/BitCloud/lib/libHAL_deRFusb23e06_At91sam3s4c_64Mhz_Gcc.a(usart.o)
 .text.HAL_OffUsartCts
                0x00000000       0x4c ./../../../../../../Atmel_lib/BitCloud_SAM3S_EK_1_14_0/BitCloud/lib/libHAL_deRFusb23e06_At91sam3s4c_64Mhz_Gcc.a(usart.o)
 .text.HAL_OnUsartCts
                0x00000000       0x4c ./../../../../../../Atmel_lib/BitCloud_SAM3S_EK_1_14_0/BitCloud/lib/libHAL_deRFusb23e06_At91sam3s4c_64Mhz_Gcc.a(usart.o)
 .text.HAL_ReadUsart
                0x00000000       0xe8 ./../../../../../../Atmel_lib/BitCloud_SAM3S_EK_1_14_0/BitCloud/lib/libHAL_deRFusb23e06_At91sam3s4c_64Mhz_Gcc.a(usart.o)
 .text.HAL_WriteUsart
                0x00000000       0xe0 ./../../../../../../Atmel_lib/BitCloud_SAM3S_EK_1_14_0/BitCloud/lib/libHAL_deRFusb23e06_At91sam3s4c_64Mhz_Gcc.a(usart.o)
 .text.HAL_CloseUsart
                0x00000000       0x6c ./../../../../../../Atmel_lib/BitCloud_SAM3S_EK_1_14_0/BitCloud/lib/libHAL_deRFusb23e06_At91sam3s4c_64Mhz_Gcc.a(usart.o)
 .text.HAL_OpenUsart
                0x00000000       0xd8 ./../../../../../../Atmel_lib/BitCloud_SAM3S_EK_1_14_0/BitCloud/lib/libHAL_deRFusb23e06_At91sam3s4c_64Mhz_Gcc.a(usart.o)
 .text          0x00000000        0x0 ./../../../../../../Atmel_lib/BitCloud_SAM3S_EK_1_14_0/BitCloud/lib/libHAL_deRFusb23e06_At91sam3s4c_64Mhz_Gcc.a(uart.o)
 .data          0x00000000        0x0 ./../../../../../../Atmel_lib/BitCloud_SAM3S_EK_1_14_0/BitCloud/lib/libHAL_deRFusb23e06_At91sam3s4c_64Mhz_Gcc.a(uart.o)
 .bss           0x00000000        0x0 ./../../../../../../Atmel_lib/BitCloud_SAM3S_EK_1_14_0/BitCloud/lib/libHAL_deRFusb23e06_At91sam3s4c_64Mhz_Gcc.a(uart.o)
 .text.HAL_OpenUart
                0x00000000       0x6e ./../../../../../../Atmel_lib/BitCloud_SAM3S_EK_1_14_0/BitCloud/lib/libHAL_deRFusb23e06_At91sam3s4c_64Mhz_Gcc.a(uart.o)
 .text.HAL_CloseUart
                0x00000000       0x28 ./../../../../../../Atmel_lib/BitCloud_SAM3S_EK_1_14_0/BitCloud/lib/libHAL_deRFusb23e06_At91sam3s4c_64Mhz_Gcc.a(uart.o)
 .text.HAL_WriteUart
                0x00000000       0xc0 ./../../../../../../Atmel_lib/BitCloud_SAM3S_EK_1_14_0/BitCloud/lib/libHAL_deRFusb23e06_At91sam3s4c_64Mhz_Gcc.a(uart.o)
 .text.HAL_ReadUart
                0x00000000       0x9c ./../../../../../../Atmel_lib/BitCloud_SAM3S_EK_1_14_0/BitCloud/lib/libHAL_deRFusb23e06_At91sam3s4c_64Mhz_Gcc.a(uart.o)
 .text.HAL_IsUartTxEmpty
                0x00000000       0x36 ./../../../../../../Atmel_lib/BitCloud_SAM3S_EK_1_14_0/BitCloud/lib/libHAL_deRFusb23e06_At91sam3s4c_64Mhz_Gcc.a(uart.o)
 .text          0x00000000        0x0 ./../../../../../../Atmel_lib/BitCloud_SAM3S_EK_1_14_0/BitCloud/lib/libHAL_deRFusb23e06_At91sam3s4c_64Mhz_Gcc.a(usb.o)
 .data          0x00000000        0x0 ./../../../../../../Atmel_lib/BitCloud_SAM3S_EK_1_14_0/BitCloud/lib/libHAL_deRFusb23e06_At91sam3s4c_64Mhz_Gcc.a(usb.o)
 .text.HAL_RegisterEndOfBusResetHandler
                0x00000000        0xc ./../../../../../../Atmel_lib/BitCloud_SAM3S_EK_1_14_0/BitCloud/lib/libHAL_deRFusb23e06_At91sam3s4c_64Mhz_Gcc.a(usb.o)
 .text.HAL_RegisterResumeHandler
                0x00000000        0xc ./../../../../../../Atmel_lib/BitCloud_SAM3S_EK_1_14_0/BitCloud/lib/libHAL_deRFusb23e06_At91sam3s4c_64Mhz_Gcc.a(usb.o)
 .text.HAL_RegisterSuspendHandler
                0x00000000        0xc ./../../../../../../Atmel_lib/BitCloud_SAM3S_EK_1_14_0/BitCloud/lib/libHAL_deRFusb23e06_At91sam3s4c_64Mhz_Gcc.a(usb.o)
 .text.HAL_RegisterRequestHandler
                0x00000000        0xc ./../../../../../../Atmel_lib/BitCloud_SAM3S_EK_1_14_0/BitCloud/lib/libHAL_deRFusb23e06_At91sam3s4c_64Mhz_Gcc.a(usb.o)
 .text.HAL_UsbWrite
                0x00000000       0x50 ./../../../../../../Atmel_lib/BitCloud_SAM3S_EK_1_14_0/BitCloud/lib/libHAL_deRFusb23e06_At91sam3s4c_64Mhz_Gcc.a(usb.o)
 .text.HAL_UsbRead
                0x00000000       0x54 ./../../../../../../Atmel_lib/BitCloud_SAM3S_EK_1_14_0/BitCloud/lib/libHAL_deRFusb23e06_At91sam3s4c_64Mhz_Gcc.a(usb.o)
 .text.HAL_Halt
                0x00000000       0x30 ./../../../../../../Atmel_lib/BitCloud_SAM3S_EK_1_14_0/BitCloud/lib/libHAL_deRFusb23e06_At91sam3s4c_64Mhz_Gcc.a(usb.o)
 .text.HAL_Unhalt
                0x00000000       0x1c ./../../../../../../Atmel_lib/BitCloud_SAM3S_EK_1_14_0/BitCloud/lib/libHAL_deRFusb23e06_At91sam3s4c_64Mhz_Gcc.a(usb.o)
 .text.HAL_IsHalted
                0x00000000       0x18 ./../../../../../../Atmel_lib/BitCloud_SAM3S_EK_1_14_0/BitCloud/lib/libHAL_deRFusb23e06_At91sam3s4c_64Mhz_Gcc.a(usb.o)
 .text.HAL_Stall
                0x00000000       0x20 ./../../../../../../Atmel_lib/BitCloud_SAM3S_EK_1_14_0/BitCloud/lib/libHAL_deRFusb23e06_At91sam3s4c_64Mhz_Gcc.a(usb.o)
 .text.HAL_SetAddress
                0x00000000       0x20 ./../../../../../../Atmel_lib/BitCloud_SAM3S_EK_1_14_0/BitCloud/lib/libHAL_deRFusb23e06_At91sam3s4c_64Mhz_Gcc.a(usb.o)
 .text.HAL_SetConfiguration
                0x00000000       0x20 ./../../../../../../Atmel_lib/BitCloud_SAM3S_EK_1_14_0/BitCloud/lib/libHAL_deRFusb23e06_At91sam3s4c_64Mhz_Gcc.a(usb.o)
 .text.HAL_UsbInit
                0x00000000       0x50 ./../../../../../../Atmel_lib/BitCloud_SAM3S_EK_1_14_0/BitCloud/lib/libHAL_deRFusb23e06_At91sam3s4c_64Mhz_Gcc.a(usb.o)
 .text.HAL_GetState
                0x00000000        0xc ./../../../../../../Atmel_lib/BitCloud_SAM3S_EK_1_14_0/BitCloud/lib/libHAL_deRFusb23e06_At91sam3s4c_64Mhz_Gcc.a(usb.o)
 .text          0x00000000        0x0 ./../../../../../../Atmel_lib/BitCloud_SAM3S_EK_1_14_0/BitCloud/lib/libHAL_deRFusb23e06_At91sam3s4c_64Mhz_Gcc.a(eeprom.o)
 .data          0x00000000        0x0 ./../../../../../../Atmel_lib/BitCloud_SAM3S_EK_1_14_0/BitCloud/lib/libHAL_deRFusb23e06_At91sam3s4c_64Mhz_Gcc.a(eeprom.o)
 .text.HAL_ReadEeprom
                0x00000000       0x90 ./../../../../../../Atmel_lib/BitCloud_SAM3S_EK_1_14_0/BitCloud/lib/libHAL_deRFusb23e06_At91sam3s4c_64Mhz_Gcc.a(eeprom.o)
 .text.HAL_WriteEeprom
                0x00000000       0xc8 ./../../../../../../Atmel_lib/BitCloud_SAM3S_EK_1_14_0/BitCloud/lib/libHAL_deRFusb23e06_At91sam3s4c_64Mhz_Gcc.a(eeprom.o)
 .text.HAL_IsEepromBusy
                0x00000000       0x10 ./../../../../../../Atmel_lib/BitCloud_SAM3S_EK_1_14_0/BitCloud/lib/libHAL_deRFusb23e06_At91sam3s4c_64Mhz_Gcc.a(eeprom.o)
 .text          0x00000000        0x0 ./../../../../../../Atmel_lib/BitCloud_SAM3S_EK_1_14_0/BitCloud/lib/libHAL_deRFusb23e06_At91sam3s4c_64Mhz_Gcc.a(sleepTimer.o)
 .data          0x00000000        0x0 ./../../../../../../Atmel_lib/BitCloud_SAM3S_EK_1_14_0/BitCloud/lib/libHAL_deRFusb23e06_At91sam3s4c_64Mhz_Gcc.a(sleepTimer.o)
 .bss           0x00000000        0x0 ./../../../../../../Atmel_lib/BitCloud_SAM3S_EK_1_14_0/BitCloud/lib/libHAL_deRFusb23e06_At91sam3s4c_64Mhz_Gcc.a(sleepTimer.o)
 .text.HAL_StopSleepTimer
                0x00000000       0x20 ./../../../../../../Atmel_lib/BitCloud_SAM3S_EK_1_14_0/BitCloud/lib/libHAL_deRFusb23e06_At91sam3s4c_64Mhz_Gcc.a(sleepTimer.o)
 .data          0x00000000        0x0 ./../../../../../../Atmel_lib/BitCloud_SAM3S_EK_1_14_0/BitCloud/lib/libHAL_deRFusb23e06_At91sam3s4c_64Mhz_Gcc.a(halExceptionGcc.o)
 .bss           0x00000000        0x0 ./../../../../../../Atmel_lib/BitCloud_SAM3S_EK_1_14_0/BitCloud/lib/libHAL_deRFusb23e06_At91sam3s4c_64Mhz_Gcc.a(halExceptionGcc.o)
 .text          0x00000000        0x0 ./../../../../../../Atmel_lib/BitCloud_SAM3S_EK_1_14_0/BitCloud/lib/libHAL_deRFusb23e06_At91sam3s4c_64Mhz_Gcc.a(halLowLevelInit.o)
 .data          0x00000000        0x0 ./../../../../../../Atmel_lib/BitCloud_SAM3S_EK_1_14_0/BitCloud/lib/libHAL_deRFusb23e06_At91sam3s4c_64Mhz_Gcc.a(halLowLevelInit.o)
 .bss           0x00000000        0x0 ./../../../../../../Atmel_lib/BitCloud_SAM3S_EK_1_14_0/BitCloud/lib/libHAL_deRFusb23e06_At91sam3s4c_64Mhz_Gcc.a(halLowLevelInit.o)
 .text          0x00000000        0x0 ./../../../../../../Atmel_lib/BitCloud_SAM3S_EK_1_14_0/BitCloud/lib/libHAL_deRFusb23e06_At91sam3s4c_64Mhz_Gcc.a(halExcHandler.o)
 .data          0x00000000        0x0 ./../../../../../../Atmel_lib/BitCloud_SAM3S_EK_1_14_0/BitCloud/lib/libHAL_deRFusb23e06_At91sam3s4c_64Mhz_Gcc.a(halExcHandler.o)
 .bss           0x00000000        0x0 ./../../../../../../Atmel_lib/BitCloud_SAM3S_EK_1_14_0/BitCloud/lib/libHAL_deRFusb23e06_At91sam3s4c_64Mhz_Gcc.a(halExcHandler.o)
 .text          0x00000000        0x0 ./../../../../../../Atmel_lib/BitCloud_SAM3S_EK_1_14_0/BitCloud/lib/libHAL_deRFusb23e06_At91sam3s4c_64Mhz_Gcc.a(halFlash.o)
 .data          0x00000000        0x0 ./../../../../../../Atmel_lib/BitCloud_SAM3S_EK_1_14_0/BitCloud/lib/libHAL_deRFusb23e06_At91sam3s4c_64Mhz_Gcc.a(halFlash.o)
 .bss           0x00000000        0x8 ./../../../../../../Atmel_lib/BitCloud_SAM3S_EK_1_14_0/BitCloud/lib/libHAL_deRFusb23e06_At91sam3s4c_64Mhz_Gcc.a(halFlash.o)
 .text.halFlashPrepareForWrite
                0x00000000       0x18 ./../../../../../../Atmel_lib/BitCloud_SAM3S_EK_1_14_0/BitCloud/lib/libHAL_deRFusb23e06_At91sam3s4c_64Mhz_Gcc.a(halFlash.o)
 .text.halFlashRestoreFromWrite
                0x00000000       0x14 ./../../../../../../Atmel_lib/BitCloud_SAM3S_EK_1_14_0/BitCloud/lib/libHAL_deRFusb23e06_At91sam3s4c_64Mhz_Gcc.a(halFlash.o)
 .text.halFlashPreparePage
                0x00000000       0x90 ./../../../../../../Atmel_lib/BitCloud_SAM3S_EK_1_14_0/BitCloud/lib/libHAL_deRFusb23e06_At91sam3s4c_64Mhz_Gcc.a(halFlash.o)
 .text.halFlashWritePage
                0x00000000       0x40 ./../../../../../../Atmel_lib/BitCloud_SAM3S_EK_1_14_0/BitCloud/lib/libHAL_deRFusb23e06_At91sam3s4c_64Mhz_Gcc.a(halFlash.o)
 .text.halFlashUnlockPage
                0x00000000       0x34 ./../../../../../../Atmel_lib/BitCloud_SAM3S_EK_1_14_0/BitCloud/lib/libHAL_deRFusb23e06_At91sam3s4c_64Mhz_Gcc.a(halFlash.o)
 .text          0x00000000        0x0 ./../../../../../../Atmel_lib/BitCloud_SAM3S_EK_1_14_0/BitCloud/lib/libBc_All_At91sam3s4c_Rf231_Gcc.a(phyRfIrqDispatcher.o)
 .data          0x00000000        0x0 ./../../../../../../Atmel_lib/BitCloud_SAM3S_EK_1_14_0/BitCloud/lib/libBc_All_At91sam3s4c_Rf231_Gcc.a(phyRfIrqDispatcher.o)
 .bss           0x00000000        0x0 ./../../../../../../Atmel_lib/BitCloud_SAM3S_EK_1_14_0/BitCloud/lib/libBc_All_At91sam3s4c_Rf231_Gcc.a(phyRfIrqDispatcher.o)
 .text          0x00000000        0x0 ./../../../../../../Atmel_lib/BitCloud_SAM3S_EK_1_14_0/BitCloud/lib/libBc_All_At91sam3s4c_Rf231_Gcc.a(phyRtimerIrqDispatcher.o)
 .data          0x00000000        0x0 ./../../../../../../Atmel_lib/BitCloud_SAM3S_EK_1_14_0/BitCloud/lib/libBc_All_At91sam3s4c_Rf231_Gcc.a(phyRtimerIrqDispatcher.o)
 .bss           0x00000000        0x0 ./../../../../../../Atmel_lib/BitCloud_SAM3S_EK_1_14_0/BitCloud/lib/libBc_All_At91sam3s4c_Rf231_Gcc.a(phyRtimerIrqDispatcher.o)
 .text          0x00000000        0x0 ./../../../../../../Atmel_lib/BitCloud_SAM3S_EK_1_14_0/BitCloud/lib/libBc_All_At91sam3s4c_Rf231_Gcc.a(phyRxTxIndicator.o)
 .data          0x00000000        0x0 ./../../../../../../Atmel_lib/BitCloud_SAM3S_EK_1_14_0/BitCloud/lib/libBc_All_At91sam3s4c_Rf231_Gcc.a(phyRxTxIndicator.o)
 .bss           0x00000000        0x0 ./../../../../../../Atmel_lib/BitCloud_SAM3S_EK_1_14_0/BitCloud/lib/libBc_All_At91sam3s4c_Rf231_Gcc.a(phyRxTxIndicator.o)
 .text          0x00000000        0x0 ./../../../../../../Atmel_lib/BitCloud_SAM3S_EK_1_14_0/BitCloud/lib/libBc_All_At91sam3s4c_Rf231_Gcc.a(taskManager.o)
 .data          0x00000000        0x0 ./../../../../../../Atmel_lib/BitCloud_SAM3S_EK_1_14_0/BitCloud/lib/libBc_All_At91sam3s4c_Rf231_Gcc.a(taskManager.o)
 .text.SYS_ForceRunTask
                0x00000000        0x4 ./../../../../../../Atmel_lib/BitCloud_SAM3S_EK_1_14_0/BitCloud/lib/libBc_All_At91sam3s4c_Rf231_Gcc.a(taskManager.o)
 .text          0x00000000        0x0 ./../../../../../../Atmel_lib/BitCloud_SAM3S_EK_1_14_0/BitCloud/lib/libBc_All_At91sam3s4c_Rf231_Gcc.a(zdo.o)
 .bss           0x00000000        0x0 ./../../../../../../Atmel_lib/BitCloud_SAM3S_EK_1_14_0/BitCloud/lib/libBc_All_At91sam3s4c_Rf231_Gcc.a(zdo.o)
 .text.setTxPowerConf
                0x00000000       0x2c ./../../../../../../Atmel_lib/BitCloud_SAM3S_EK_1_14_0/BitCloud/lib/libBc_All_At91sam3s4c_Rf231_Gcc.a(zdo.o)
 .text.ZDO_GetNwkStatus
                0x00000000       0x18 ./../../../../../../Atmel_lib/BitCloud_SAM3S_EK_1_14_0/BitCloud/lib/libBc_All_At91sam3s4c_Rf231_Gcc.a(zdo.o)
 .text.ZDO_NotifyGeneral
                0x00000000        0x4 ./../../../../../../Atmel_lib/BitCloud_SAM3S_EK_1_14_0/BitCloud/lib/libBc_All_At91sam3s4c_Rf231_Gcc.a(zdo.o)
 .text.ZDO_GetLqiRssi
                0x00000000       0x24 ./../../../../../../Atmel_lib/BitCloud_SAM3S_EK_1_14_0/BitCloud/lib/libBc_All_At91sam3s4c_Rf231_Gcc.a(zdo.o)
 .text.ZDO_GetParentAddr
                0x00000000       0x4a ./../../../../../../Atmel_lib/BitCloud_SAM3S_EK_1_14_0/BitCloud/lib/libBc_All_At91sam3s4c_Rf231_Gcc.a(zdo.o)
 .text.ZDO_GetChildrenAddr
                0x00000000       0xd2 ./../../../../../../Atmel_lib/BitCloud_SAM3S_EK_1_14_0/BitCloud/lib/libBc_All_At91sam3s4c_Rf231_Gcc.a(zdo.o)
 .text.ZDO_SetTxPowerReq
                0x00000000       0x44 ./../../../../../../Atmel_lib/BitCloud_SAM3S_EK_1_14_0/BitCloud/lib/libBc_All_At91sam3s4c_Rf231_Gcc.a(zdo.o)
 .text.ZDO_GetNeibAmount
                0x00000000       0x52 ./../../../../../../Atmel_lib/BitCloud_SAM3S_EK_1_14_0/BitCloud/lib/libBc_All_At91sam3s4c_Rf231_Gcc.a(zdo.o)
 .text.ZDO_GetNeibTable
                0x00000000       0xb6 ./../../../../../../Atmel_lib/BitCloud_SAM3S_EK_1_14_0/BitCloud/lib/libBc_All_At91sam3s4c_Rf231_Gcc.a(zdo.o)
 .text.ZDO_SleepReq
                0x00000000       0x34 ./../../../../../../Atmel_lib/BitCloud_SAM3S_EK_1_14_0/BitCloud/lib/libBc_All_At91sam3s4c_Rf231_Gcc.a(zdo.o)
 .text.ZDO_WakeUpReq
                0x00000000       0x18 ./../../../../../../Atmel_lib/BitCloud_SAM3S_EK_1_14_0/BitCloud/lib/libBc_All_At91sam3s4c_Rf231_Gcc.a(zdo.o)
 .text.zdoResetNetworkConf
                0x00000000       0x24 ./../../../../../../Atmel_lib/BitCloud_SAM3S_EK_1_14_0/BitCloud/lib/libBc_All_At91sam3s4c_Rf231_Gcc.a(zdo.o)
 .text.ZDO_SoftwareResetReq
                0x00000000       0x10 ./../../../../../../Atmel_lib/BitCloud_SAM3S_EK_1_14_0/BitCloud/lib/libBc_All_At91sam3s4c_Rf231_Gcc.a(zdo.o)
 .text.ZDO_ResetNetworkReq
                0x00000000       0x34 ./../../../../../../Atmel_lib/BitCloud_SAM3S_EK_1_14_0/BitCloud/lib/libBc_All_At91sam3s4c_Rf231_Gcc.a(zdo.o)
 .text.ZDO_StartNetworkReq
                0x00000000       0x18 ./../../../../../../Atmel_lib/BitCloud_SAM3S_EK_1_14_0/BitCloud/lib/libBc_All_At91sam3s4c_Rf231_Gcc.a(zdo.o)
 .text          0x00000000        0x0 ./../../../../../../Atmel_lib/BitCloud_SAM3S_EK_1_14_0/BitCloud/lib/libBc_All_At91sam3s4c_Rf231_Gcc.a(aps.o)
 .data          0x00000000        0x0 ./../../../../../../Atmel_lib/BitCloud_SAM3S_EK_1_14_0/BitCloud/lib/libBc_All_At91sam3s4c_Rf231_Gcc.a(aps.o)
 .text.APS_DeactivateBindRecords
                0x00000000       0x3c ./../../../../../../Atmel_lib/BitCloud_SAM3S_EK_1_14_0/BitCloud/lib/libBc_All_At91sam3s4c_Rf231_Gcc.a(aps.o)
 .text.APS_ActivateBindRecords
                0x00000000       0x3c ./../../../../../../Atmel_lib/BitCloud_SAM3S_EK_1_14_0/BitCloud/lib/libBc_All_At91sam3s4c_Rf231_Gcc.a(aps.o)
 .text.APS_NextBindingEntry
                0x00000000       0x40 ./../../../../../../Atmel_lib/BitCloud_SAM3S_EK_1_14_0/BitCloud/lib/libBc_All_At91sam3s4c_Rf231_Gcc.a(aps.o)
 .text.APS_UnregisterEndpointReq
                0x00000000       0x28 ./../../../../../../Atmel_lib/BitCloud_SAM3S_EK_1_14_0/BitCloud/lib/libBc_All_At91sam3s4c_Rf231_Gcc.a(aps.o)
 .text.APS_RegisterEndpointReq
                0x00000000       0x3c ./../../../../../../Atmel_lib/BitCloud_SAM3S_EK_1_14_0/BitCloud/lib/libBc_All_At91sam3s4c_Rf231_Gcc.a(aps.o)
 .text.apsSetNoIndicationFlag
                0x00000000       0x28 ./../../../../../../Atmel_lib/BitCloud_SAM3S_EK_1_14_0/BitCloud/lib/libBc_All_At91sam3s4c_Rf231_Gcc.a(aps.o)
 .text.APS_StopEndpointIndication
                0x00000000        0x6 ./../../../../../../Atmel_lib/BitCloud_SAM3S_EK_1_14_0/BitCloud/lib/libBc_All_At91sam3s4c_Rf231_Gcc.a(aps.o)
 .text.APS_ResumeEndpointIndication
                0x00000000        0x6 ./../../../../../../Atmel_lib/BitCloud_SAM3S_EK_1_14_0/BitCloud/lib/libBc_All_At91sam3s4c_Rf231_Gcc.a(aps.o)
 .text.APS_AddGroupReq
                0x00000000       0x18 ./../../../../../../Atmel_lib/BitCloud_SAM3S_EK_1_14_0/BitCloud/lib/libBc_All_At91sam3s4c_Rf231_Gcc.a(aps.o)
 .text.APS_RemoveGroupReq
                0x00000000       0x18 ./../../../../../../Atmel_lib/BitCloud_SAM3S_EK_1_14_0/BitCloud/lib/libBc_All_At91sam3s4c_Rf231_Gcc.a(aps.o)
 .text.APS_RemoveAllGroupsReq
                0x00000000       0x16 ./../../../../../../Atmel_lib/BitCloud_SAM3S_EK_1_14_0/BitCloud/lib/libBc_All_At91sam3s4c_Rf231_Gcc.a(aps.o)
 .text.APS_IsStarted
                0x00000000       0x18 ./../../../../../../Atmel_lib/BitCloud_SAM3S_EK_1_14_0/BitCloud/lib/libBc_All_At91sam3s4c_Rf231_Gcc.a(aps.o)
 .text          0x00000000        0x0 ./../../../../../../Atmel_lib/BitCloud_SAM3S_EK_1_14_0/BitCloud/lib/libBc_All_At91sam3s4c_Rf231_Gcc.a(bcSysSleep.o)
 .data          0x00000000        0x0 ./../../../../../../Atmel_lib/BitCloud_SAM3S_EK_1_14_0/BitCloud/lib/libBc_All_At91sam3s4c_Rf231_Gcc.a(bcSysSleep.o)
 .bss           0x00000000        0x0 ./../../../../../../Atmel_lib/BitCloud_SAM3S_EK_1_14_0/BitCloud/lib/libBc_All_At91sam3s4c_Rf231_Gcc.a(bcSysSleep.o)
 .text          0x00000000        0x0 ./../../../../../../Atmel_lib/BitCloud_SAM3S_EK_1_14_0/BitCloud/lib/libBc_All_At91sam3s4c_Rf231_Gcc.a(macMem.o)
 .data          0x00000000        0x0 ./../../../../../../Atmel_lib/BitCloud_SAM3S_EK_1_14_0/BitCloud/lib/libBc_All_At91sam3s4c_Rf231_Gcc.a(macMem.o)
 .bss           0x00000000        0x0 ./../../../../../../Atmel_lib/BitCloud_SAM3S_EK_1_14_0/BitCloud/lib/libBc_All_At91sam3s4c_Rf231_Gcc.a(macMem.o)
 .text          0x00000000        0x0 ./../../../../../../Atmel_lib/BitCloud_SAM3S_EK_1_14_0/BitCloud/lib/libBc_All_At91sam3s4c_Rf231_Gcc.a(macenvPib.o)
 .data          0x00000000        0x0 ./../../../../../../Atmel_lib/BitCloud_SAM3S_EK_1_14_0/BitCloud/lib/libBc_All_At91sam3s4c_Rf231_Gcc.a(macenvPib.o)
 .bss           0x00000000        0x0 ./../../../../../../Atmel_lib/BitCloud_SAM3S_EK_1_14_0/BitCloud/lib/libBc_All_At91sam3s4c_Rf231_Gcc.a(macenvPib.o)
 .text          0x00000000        0x0 ./../../../../../../Atmel_lib/BitCloud_SAM3S_EK_1_14_0/BitCloud/lib/libBc_All_At91sam3s4c_Rf231_Gcc.a(machwdManager.o)
 .data          0x00000000        0x0 ./../../../../../../Atmel_lib/BitCloud_SAM3S_EK_1_14_0/BitCloud/lib/libBc_All_At91sam3s4c_Rf231_Gcc.a(machwdManager.o)
 .text.RF_RandomSeqReq
                0x00000000        0x8 ./../../../../../../Atmel_lib/BitCloud_SAM3S_EK_1_14_0/BitCloud/lib/libBc_All_At91sam3s4c_Rf231_Gcc.a(machwdManager.o)
 .text.RF_CalibrationReq
                0x00000000        0x8 ./../../../../../../Atmel_lib/BitCloud_SAM3S_EK_1_14_0/BitCloud/lib/libBc_All_At91sam3s4c_Rf231_Gcc.a(machwdManager.o)
 .text.RF_RegWriteReq
                0x00000000        0x8 ./../../../../../../Atmel_lib/BitCloud_SAM3S_EK_1_14_0/BitCloud/lib/libBc_All_At91sam3s4c_Rf231_Gcc.a(machwdManager.o)
 .text.RF_RegReadReq
                0x00000000        0x8 ./../../../../../../Atmel_lib/BitCloud_SAM3S_EK_1_14_0/BitCloud/lib/libBc_All_At91sam3s4c_Rf231_Gcc.a(machwdManager.o)
 .text          0x00000000        0x0 ./../../../../../../Atmel_lib/BitCloud_SAM3S_EK_1_14_0/BitCloud/lib/libBc_All_At91sam3s4c_Rf231_Gcc.a(machwdRegAccessHandler.o)
 .data          0x00000000        0x0 ./../../../../../../Atmel_lib/BitCloud_SAM3S_EK_1_14_0/BitCloud/lib/libBc_All_At91sam3s4c_Rf231_Gcc.a(machwdRegAccessHandler.o)
 .bss           0x00000000        0x0 ./../../../../../../Atmel_lib/BitCloud_SAM3S_EK_1_14_0/BitCloud/lib/libBc_All_At91sam3s4c_Rf231_Gcc.a(machwdRegAccessHandler.o)
 .text          0x00000000        0x0 ./../../../../../../Atmel_lib/BitCloud_SAM3S_EK_1_14_0/BitCloud/lib/libBc_All_At91sam3s4c_Rf231_Gcc.a(machwdResetHandler.o)
 .data          0x00000000        0x0 ./../../../../../../Atmel_lib/BitCloud_SAM3S_EK_1_14_0/BitCloud/lib/libBc_All_At91sam3s4c_Rf231_Gcc.a(machwdResetHandler.o)
 .bss           0x00000000        0x0 ./../../../../../../Atmel_lib/BitCloud_SAM3S_EK_1_14_0/BitCloud/lib/libBc_All_At91sam3s4c_Rf231_Gcc.a(machwdResetHandler.o)
 .text          0x00000000        0x0 ./../../../../../../Atmel_lib/BitCloud_SAM3S_EK_1_14_0/BitCloud/lib/libBc_All_At91sam3s4c_Rf231_Gcc.a(machwdRndHandler.o)
 .data          0x00000000        0x0 ./../../../../../../Atmel_lib/BitCloud_SAM3S_EK_1_14_0/BitCloud/lib/libBc_All_At91sam3s4c_Rf231_Gcc.a(machwdRndHandler.o)
 .bss           0x00000000        0x0 ./../../../../../../Atmel_lib/BitCloud_SAM3S_EK_1_14_0/BitCloud/lib/libBc_All_At91sam3s4c_Rf231_Gcc.a(machwdRndHandler.o)
 .text          0x00000000        0x0 ./../../../../../../Atmel_lib/BitCloud_SAM3S_EK_1_14_0/BitCloud/lib/libBc_All_At91sam3s4c_Rf231_Gcc.a(machwdRxBuffer.o)
 .data          0x00000000        0x0 ./../../../../../../Atmel_lib/BitCloud_SAM3S_EK_1_14_0/BitCloud/lib/libBc_All_At91sam3s4c_Rf231_Gcc.a(machwdRxBuffer.o)
 .bss           0x00000000        0x0 ./../../../../../../Atmel_lib/BitCloud_SAM3S_EK_1_14_0/BitCloud/lib/libBc_All_At91sam3s4c_Rf231_Gcc.a(machwdRxBuffer.o)
 .text          0x00000000        0x0 ./../../../../../../Atmel_lib/BitCloud_SAM3S_EK_1_14_0/BitCloud/lib/libBc_All_At91sam3s4c_Rf231_Gcc.a(machwdRxFrameHandler.o)
 .data          0x00000000        0x0 ./../../../../../../Atmel_lib/BitCloud_SAM3S_EK_1_14_0/BitCloud/lib/libBc_All_At91sam3s4c_Rf231_Gcc.a(machwdRxFrameHandler.o)
 .bss           0x00000000        0x0 ./../../../../../../Atmel_lib/BitCloud_SAM3S_EK_1_14_0/BitCloud/lib/libBc_All_At91sam3s4c_Rf231_Gcc.a(machwdRxFrameHandler.o)
 .text          0x00000000        0x0 ./../../../../../../Atmel_lib/BitCloud_SAM3S_EK_1_14_0/BitCloud/lib/libBc_All_At91sam3s4c_Rf231_Gcc.a(machwdSetHandler.o)
 .data          0x00000000        0x0 ./../../../../../../Atmel_lib/BitCloud_SAM3S_EK_1_14_0/BitCloud/lib/libBc_All_At91sam3s4c_Rf231_Gcc.a(machwdSetHandler.o)
 .text.machwdIsBeaconRxMode
                0x00000000        0xc ./../../../../../../Atmel_lib/BitCloud_SAM3S_EK_1_14_0/BitCloud/lib/libBc_All_At91sam3s4c_Rf231_Gcc.a(machwdSetHandler.o)
 .text          0x00000000        0x0 ./../../../../../../Atmel_lib/BitCloud_SAM3S_EK_1_14_0/BitCloud/lib/libBc_All_At91sam3s4c_Rf231_Gcc.a(machwdTrxCtrl.o)
 .data          0x00000000        0x0 ./../../../../../../Atmel_lib/BitCloud_SAM3S_EK_1_14_0/BitCloud/lib/libBc_All_At91sam3s4c_Rf231_Gcc.a(machwdTrxCtrl.o)
 .bss           0x00000000        0x0 ./../../../../../../Atmel_lib/BitCloud_SAM3S_EK_1_14_0/BitCloud/lib/libBc_All_At91sam3s4c_Rf231_Gcc.a(machwdTrxCtrl.o)
 .text          0x00000000        0x0 ./../../../../../../Atmel_lib/BitCloud_SAM3S_EK_1_14_0/BitCloud/lib/libBc_All_At91sam3s4c_Rf231_Gcc.a(machwdTrxHandler.o)
 .data          0x00000000        0x0 ./../../../../../../Atmel_lib/BitCloud_SAM3S_EK_1_14_0/BitCloud/lib/libBc_All_At91sam3s4c_Rf231_Gcc.a(machwdTrxHandler.o)
 .bss           0x00000000        0x0 ./../../../../../../Atmel_lib/BitCloud_SAM3S_EK_1_14_0/BitCloud/lib/libBc_All_At91sam3s4c_Rf231_Gcc.a(machwdTrxHandler.o)
 .text          0x00000000        0x0 ./../../../../../../Atmel_lib/BitCloud_SAM3S_EK_1_14_0/BitCloud/lib/libBc_All_At91sam3s4c_Rf231_Gcc.a(machwdTxFrameHandler.o)
 .data          0x00000000        0x0 ./../../../../../../Atmel_lib/BitCloud_SAM3S_EK_1_14_0/BitCloud/lib/libBc_All_At91sam3s4c_Rf231_Gcc.a(machwdTxFrameHandler.o)
 .bss           0x00000000        0x0 ./../../../../../../Atmel_lib/BitCloud_SAM3S_EK_1_14_0/BitCloud/lib/libBc_All_At91sam3s4c_Rf231_Gcc.a(machwdTxFrameHandler.o)
 .text          0x00000000        0x0 ./../../../../../../Atmel_lib/BitCloud_SAM3S_EK_1_14_0/BitCloud/lib/libBc_All_At91sam3s4c_Rf231_Gcc.a(machwiManager.o)
 .data          0x00000000        0x0 ./../../../../../../Atmel_lib/BitCloud_SAM3S_EK_1_14_0/BitCloud/lib/libBc_All_At91sam3s4c_Rf231_Gcc.a(machwiManager.o)
 .bss           0x00000000        0x0 ./../../../../../../Atmel_lib/BitCloud_SAM3S_EK_1_14_0/BitCloud/lib/libBc_All_At91sam3s4c_Rf231_Gcc.a(machwiManager.o)
 .text.MAC_OrphanResp
                0x00000000        0x8 ./../../../../../../Atmel_lib/BitCloud_SAM3S_EK_1_14_0/BitCloud/lib/libBc_All_At91sam3s4c_Rf231_Gcc.a(machwiManager.o)
 .text.MAC_PurgeReq
                0x00000000        0x8 ./../../../../../../Atmel_lib/BitCloud_SAM3S_EK_1_14_0/BitCloud/lib/libBc_All_At91sam3s4c_Rf231_Gcc.a(machwiManager.o)
 .text          0x00000000        0x0 ./../../../../../../Atmel_lib/BitCloud_SAM3S_EK_1_14_0/BitCloud/lib/libBc_All_At91sam3s4c_Rf231_Gcc.a(machwiOrphanHandler.o)
 .data          0x00000000        0x0 ./../../../../../../Atmel_lib/BitCloud_SAM3S_EK_1_14_0/BitCloud/lib/libBc_All_At91sam3s4c_Rf231_Gcc.a(machwiOrphanHandler.o)
 .bss           0x00000000        0x0 ./../../../../../../Atmel_lib/BitCloud_SAM3S_EK_1_14_0/BitCloud/lib/libBc_All_At91sam3s4c_Rf231_Gcc.a(machwiOrphanHandler.o)
 .text          0x00000000        0x0 ./../../../../../../Atmel_lib/BitCloud_SAM3S_EK_1_14_0/BitCloud/lib/libBc_All_At91sam3s4c_Rf231_Gcc.a(machwiPanServer.o)
 .data          0x00000000        0x0 ./../../../../../../Atmel_lib/BitCloud_SAM3S_EK_1_14_0/BitCloud/lib/libBc_All_At91sam3s4c_Rf231_Gcc.a(machwiPanServer.o)
 .bss           0x00000000        0x0 ./../../../../../../Atmel_lib/BitCloud_SAM3S_EK_1_14_0/BitCloud/lib/libBc_All_At91sam3s4c_Rf231_Gcc.a(machwiPanServer.o)
 .text          0x00000000        0x0 ./../../../../../../Atmel_lib/BitCloud_SAM3S_EK_1_14_0/BitCloud/lib/libBc_All_At91sam3s4c_Rf231_Gcc.a(machwiPollHandler.o)
 .data          0x00000000        0x0 ./../../../../../../Atmel_lib/BitCloud_SAM3S_EK_1_14_0/BitCloud/lib/libBc_All_At91sam3s4c_Rf231_Gcc.a(machwiPollHandler.o)
 .bss           0x00000000        0x0 ./../../../../../../Atmel_lib/BitCloud_SAM3S_EK_1_14_0/BitCloud/lib/libBc_All_At91sam3s4c_Rf231_Gcc.a(machwiPollHandler.o)
 .text          0x00000000        0x0 ./../../../../../../Atmel_lib/BitCloud_SAM3S_EK_1_14_0/BitCloud/lib/libBc_All_At91sam3s4c_Rf231_Gcc.a(machwiPurgeHandler.o)
 .data          0x00000000        0x0 ./../../../../../../Atmel_lib/BitCloud_SAM3S_EK_1_14_0/BitCloud/lib/libBc_All_At91sam3s4c_Rf231_Gcc.a(machwiPurgeHandler.o)
 .bss           0x00000000        0x0 ./../../../../../../Atmel_lib/BitCloud_SAM3S_EK_1_14_0/BitCloud/lib/libBc_All_At91sam3s4c_Rf231_Gcc.a(machwiPurgeHandler.o)
 .text          0x00000000        0x0 ./../../../../../../Atmel_lib/BitCloud_SAM3S_EK_1_14_0/BitCloud/lib/libBc_All_At91sam3s4c_Rf231_Gcc.a(machwiResetHandler.o)
 .data          0x00000000        0x0 ./../../../../../../Atmel_lib/BitCloud_SAM3S_EK_1_14_0/BitCloud/lib/libBc_All_At91sam3s4c_Rf231_Gcc.a(machwiResetHandler.o)
 .bss           0x00000000        0x0 ./../../../../../../Atmel_lib/BitCloud_SAM3S_EK_1_14_0/BitCloud/lib/libBc_All_At91sam3s4c_Rf231_Gcc.a(machwiResetHandler.o)
 .text          0x00000000        0x0 ./../../../../../../Atmel_lib/BitCloud_SAM3S_EK_1_14_0/BitCloud/lib/libBc_All_At91sam3s4c_Rf231_Gcc.a(machwiRxEnableHandler.o)
 .data          0x00000000        0x0 ./../../../../../../Atmel_lib/BitCloud_SAM3S_EK_1_14_0/BitCloud/lib/libBc_All_At91sam3s4c_Rf231_Gcc.a(machwiRxEnableHandler.o)
 .bss           0x00000000        0x0 ./../../../../../../Atmel_lib/BitCloud_SAM3S_EK_1_14_0/BitCloud/lib/libBc_All_At91sam3s4c_Rf231_Gcc.a(machwiRxEnableHandler.o)
 .text          0x00000000        0x0 ./../../../../../../Atmel_lib/BitCloud_SAM3S_EK_1_14_0/BitCloud/lib/libBc_All_At91sam3s4c_Rf231_Gcc.a(machwiScanHandler.o)
 .data          0x00000000        0x0 ./../../../../../../Atmel_lib/BitCloud_SAM3S_EK_1_14_0/BitCloud/lib/libBc_All_At91sam3s4c_Rf231_Gcc.a(machwiScanHandler.o)
 .text          0x00000000        0x0 ./../../../../../../Atmel_lib/BitCloud_SAM3S_EK_1_14_0/BitCloud/lib/libBc_All_At91sam3s4c_Rf231_Gcc.a(machwiSetGetHandler.o)
 .data          0x00000000        0x0 ./../../../../../../Atmel_lib/BitCloud_SAM3S_EK_1_14_0/BitCloud/lib/libBc_All_At91sam3s4c_Rf231_Gcc.a(machwiSetGetHandler.o)
 .bss           0x00000000        0x0 ./../../../../../../Atmel_lib/BitCloud_SAM3S_EK_1_14_0/BitCloud/lib/libBc_All_At91sam3s4c_Rf231_Gcc.a(machwiSetGetHandler.o)
 .text          0x00000000        0x0 ./../../../../../../Atmel_lib/BitCloud_SAM3S_EK_1_14_0/BitCloud/lib/libBc_All_At91sam3s4c_Rf231_Gcc.a(machwiStartHandler.o)
 .data          0x00000000        0x0 ./../../../../../../Atmel_lib/BitCloud_SAM3S_EK_1_14_0/BitCloud/lib/libBc_All_At91sam3s4c_Rf231_Gcc.a(machwiStartHandler.o)
 .bss           0x00000000        0x0 ./../../../../../../Atmel_lib/BitCloud_SAM3S_EK_1_14_0/BitCloud/lib/libBc_All_At91sam3s4c_Rf231_Gcc.a(machwiStartHandler.o)
 .text          0x00000000        0x0 ./../../../../../../Atmel_lib/BitCloud_SAM3S_EK_1_14_0/BitCloud/lib/libBc_All_At91sam3s4c_Rf231_Gcc.a(machwiSwitchRxCtrl.o)
 .data          0x00000000        0x0 ./../../../../../../Atmel_lib/BitCloud_SAM3S_EK_1_14_0/BitCloud/lib/libBc_All_At91sam3s4c_Rf231_Gcc.a(machwiSwitchRxCtrl.o)
 .bss           0x00000000        0x0 ./../../../../../../Atmel_lib/BitCloud_SAM3S_EK_1_14_0/BitCloud/lib/libBc_All_At91sam3s4c_Rf231_Gcc.a(machwiSwitchRxCtrl.o)
 .text          0x00000000        0x0 ./../../../../../../Atmel_lib/BitCloud_SAM3S_EK_1_14_0/BitCloud/lib/libBc_All_At91sam3s4c_Rf231_Gcc.a(machwiTransactionHandler.o)
 .data          0x00000000        0x0 ./../../../../../../Atmel_lib/BitCloud_SAM3S_EK_1_14_0/BitCloud/lib/libBc_All_At91sam3s4c_Rf231_Gcc.a(machwiTransactionHandler.o)
 .bss           0x00000000        0x0 ./../../../../../../Atmel_lib/BitCloud_SAM3S_EK_1_14_0/BitCloud/lib/libBc_All_At91sam3s4c_Rf231_Gcc.a(machwiTransactionHandler.o)
 .text          0x00000000        0x0 ./../../../../../../Atmel_lib/BitCloud_SAM3S_EK_1_14_0/BitCloud/lib/libBc_All_At91sam3s4c_Rf231_Gcc.a(machwiTransactionQueue.o)
 .data          0x00000000        0x0 ./../../../../../../Atmel_lib/BitCloud_SAM3S_EK_1_14_0/BitCloud/lib/libBc_All_At91sam3s4c_Rf231_Gcc.a(machwiTransactionQueue.o)
 .bss           0x00000000        0x0 ./../../../../../../Atmel_lib/BitCloud_SAM3S_EK_1_14_0/BitCloud/lib/libBc_All_At91sam3s4c_Rf231_Gcc.a(machwiTransactionQueue.o)
 .text          0x00000000        0x0 ./../../../../../../Atmel_lib/BitCloud_SAM3S_EK_1_14_0/BitCloud/lib/libBc_All_At91sam3s4c_Rf231_Gcc.a(nwk.o)
 .data          0x00000000        0x0 ./../../../../../../Atmel_lib/BitCloud_SAM3S_EK_1_14_0/BitCloud/lib/libBc_All_At91sam3s4c_Rf231_Gcc.a(nwk.o)
 .bss           0x00000000       0x30 ./../../../../../../Atmel_lib/BitCloud_SAM3S_EK_1_14_0/BitCloud/lib/libBc_All_At91sam3s4c_Rf231_Gcc.a(nwk.o)
 .text.nwkAddressMacSetConf
                0x00000000       0x40 ./../../../../../../Atmel_lib/BitCloud_SAM3S_EK_1_14_0/BitCloud/lib/libBc_All_At91sam3s4c_Rf231_Gcc.a(nwk.o)
 .text.NWK_SetShortAddr
                0x00000000       0x34 ./../../../../../../Atmel_lib/BitCloud_SAM3S_EK_1_14_0/BitCloud/lib/libBc_All_At91sam3s4c_Rf231_Gcc.a(nwk.o)
 .text.NWK_AddGroup
                0x00000000       0x30 ./../../../../../../Atmel_lib/BitCloud_SAM3S_EK_1_14_0/BitCloud/lib/libBc_All_At91sam3s4c_Rf231_Gcc.a(nwk.o)
 .text.NWK_RemoveGroup
                0x00000000       0x44 ./../../../../../../Atmel_lib/BitCloud_SAM3S_EK_1_14_0/BitCloud/lib/libBc_All_At91sam3s4c_Rf231_Gcc.a(nwk.o)
 .text.NWK_RemoveAllGroups
                0x00000000       0x34 ./../../../../../../Atmel_lib/BitCloud_SAM3S_EK_1_14_0/BitCloud/lib/libBc_All_At91sam3s4c_Rf231_Gcc.a(nwk.o)
 .text.NWK_GroupCapacity
                0x00000000       0x20 ./../../../../../../Atmel_lib/BitCloud_SAM3S_EK_1_14_0/BitCloud/lib/libBc_All_At91sam3s4c_Rf231_Gcc.a(nwk.o)
 .text.NWK_NextGroup
                0x00000000       0x24 ./../../../../../../Atmel_lib/BitCloud_SAM3S_EK_1_14_0/BitCloud/lib/libBc_All_At91sam3s4c_Rf231_Gcc.a(nwk.o)
 .text.NWK_SetExtPanId
                0x00000000       0x10 ./../../../../../../Atmel_lib/BitCloud_SAM3S_EK_1_14_0/BitCloud/lib/libBc_All_At91sam3s4c_Rf231_Gcc.a(nwk.o)
 .text.NWK_GetUpdateId
                0x00000000        0xc ./../../../../../../Atmel_lib/BitCloud_SAM3S_EK_1_14_0/BitCloud/lib/libBc_All_At91sam3s4c_Rf231_Gcc.a(nwk.o)
 .text.NWK_SetSymLink
                0x00000000        0xc ./../../../../../../Atmel_lib/BitCloud_SAM3S_EK_1_14_0/BitCloud/lib/libBc_All_At91sam3s4c_Rf231_Gcc.a(nwk.o)
 .text.NWK_GetProtocolVersion
                0x00000000        0xc ./../../../../../../Atmel_lib/BitCloud_SAM3S_EK_1_14_0/BitCloud/lib/libBc_All_At91sam3s4c_Rf231_Gcc.a(nwk.o)
 .text.NWK_FindAnyRouteAtFirstTime
                0x00000000        0xc ./../../../../../../Atmel_lib/BitCloud_SAM3S_EK_1_14_0/BitCloud/lib/libBc_All_At91sam3s4c_Rf231_Gcc.a(nwk.o)
 .text.NWK_NextEDChild
                0x00000000       0x48 ./../../../../../../Atmel_lib/BitCloud_SAM3S_EK_1_14_0/BitCloud/lib/libBc_All_At91sam3s4c_Rf231_Gcc.a(nwk.o)
 .text.NWK_GetNeighborsRssi
                0x00000000       0x1c ./../../../../../../Atmel_lib/BitCloud_SAM3S_EK_1_14_0/BitCloud/lib/libBc_All_At91sam3s4c_Rf231_Gcc.a(nwk.o)
 .text.NWK_SetRejoinPermit
                0x00000000        0xc ./../../../../../../Atmel_lib/BitCloud_SAM3S_EK_1_14_0/BitCloud/lib/libBc_All_At91sam3s4c_Rf231_Gcc.a(nwk.o)
 .text.NWK_GetNextHop
                0x00000000       0x2c ./../../../../../../Atmel_lib/BitCloud_SAM3S_EK_1_14_0/BitCloud/lib/libBc_All_At91sam3s4c_Rf231_Gcc.a(nwk.o)
 .text.NWK_SetFailRouteOrder
                0x00000000       0x18 ./../../../../../../Atmel_lib/BitCloud_SAM3S_EK_1_14_0/BitCloud/lib/libBc_All_At91sam3s4c_Rf231_Gcc.a(nwk.o)
 .text          0x00000000        0x0 ./../../../../../../Atmel_lib/BitCloud_SAM3S_EK_1_14_0/BitCloud/lib/libBc_All_At91sam3s4c_Rf231_Gcc.a(phyInit.o)
 .data          0x00000000        0x0 ./../../../../../../Atmel_lib/BitCloud_SAM3S_EK_1_14_0/BitCloud/lib/libBc_All_At91sam3s4c_Rf231_Gcc.a(phyInit.o)
 .bss           0x00000000        0x0 ./../../../../../../Atmel_lib/BitCloud_SAM3S_EK_1_14_0/BitCloud/lib/libBc_All_At91sam3s4c_Rf231_Gcc.a(phyInit.o)
 .text          0x00000000        0x0 ./../../../../../../Atmel_lib/BitCloud_SAM3S_EK_1_14_0/BitCloud/lib/libBc_All_At91sam3s4c_Rf231_Gcc.a(phyRegAccess.o)
 .data          0x00000000        0x0 ./../../../../../../Atmel_lib/BitCloud_SAM3S_EK_1_14_0/BitCloud/lib/libBc_All_At91sam3s4c_Rf231_Gcc.a(phyRegAccess.o)
 .bss           0x00000000        0x0 ./../../../../../../Atmel_lib/BitCloud_SAM3S_EK_1_14_0/BitCloud/lib/libBc_All_At91sam3s4c_Rf231_Gcc.a(phyRegAccess.o)
 .text          0x00000000        0x0 ./../../../../../../Atmel_lib/BitCloud_SAM3S_EK_1_14_0/BitCloud/lib/libBc_All_At91sam3s4c_Rf231_Gcc.a(phyReset.o)
 .data          0x00000000        0x0 ./../../../../../../Atmel_lib/BitCloud_SAM3S_EK_1_14_0/BitCloud/lib/libBc_All_At91sam3s4c_Rf231_Gcc.a(phyReset.o)
 .bss           0x00000000        0x0 ./../../../../../../Atmel_lib/BitCloud_SAM3S_EK_1_14_0/BitCloud/lib/libBc_All_At91sam3s4c_Rf231_Gcc.a(phyReset.o)
 .text          0x00000000        0x0 ./../../../../../../Atmel_lib/BitCloud_SAM3S_EK_1_14_0/BitCloud/lib/libBc_All_At91sam3s4c_Rf231_Gcc.a(phyRfSpiProto.o)
 .data          0x00000000        0x0 ./../../../../../../Atmel_lib/BitCloud_SAM3S_EK_1_14_0/BitCloud/lib/libBc_All_At91sam3s4c_Rf231_Gcc.a(phyRfSpiProto.o)
 .bss           0x00000000        0x0 ./../../../../../../Atmel_lib/BitCloud_SAM3S_EK_1_14_0/BitCloud/lib/libBc_All_At91sam3s4c_Rf231_Gcc.a(phyRfSpiProto.o)
 .text.phyStartReadFrame
                0x00000000       0x10 ./../../../../../../Atmel_lib/BitCloud_SAM3S_EK_1_14_0/BitCloud/lib/libBc_All_At91sam3s4c_Rf231_Gcc.a(phyRfSpiProto.o)
 .text          0x00000000        0x0 ./../../../../../../Atmel_lib/BitCloud_SAM3S_EK_1_14_0/BitCloud/lib/libBc_All_At91sam3s4c_Rf231_Gcc.a(phyRnd.o)
 .data          0x00000000        0x0 ./../../../../../../Atmel_lib/BitCloud_SAM3S_EK_1_14_0/BitCloud/lib/libBc_All_At91sam3s4c_Rf231_Gcc.a(phyRnd.o)
 .bss           0x00000000        0x0 ./../../../../../../Atmel_lib/BitCloud_SAM3S_EK_1_14_0/BitCloud/lib/libBc_All_At91sam3s4c_Rf231_Gcc.a(phyRnd.o)
 .text          0x00000000        0x0 ./../../../../../../Atmel_lib/BitCloud_SAM3S_EK_1_14_0/BitCloud/lib/libBc_All_At91sam3s4c_Rf231_Gcc.a(phyRxFrame.o)
 .data          0x00000000        0x0 ./../../../../../../Atmel_lib/BitCloud_SAM3S_EK_1_14_0/BitCloud/lib/libBc_All_At91sam3s4c_Rf231_Gcc.a(phyRxFrame.o)
 .bss           0x00000000        0x0 ./../../../../../../Atmel_lib/BitCloud_SAM3S_EK_1_14_0/BitCloud/lib/libBc_All_At91sam3s4c_Rf231_Gcc.a(phyRxFrame.o)
 .text          0x00000000        0x0 ./../../../../../../Atmel_lib/BitCloud_SAM3S_EK_1_14_0/BitCloud/lib/libBc_All_At91sam3s4c_Rf231_Gcc.a(phySet.o)
 .data          0x00000000        0x0 ./../../../../../../Atmel_lib/BitCloud_SAM3S_EK_1_14_0/BitCloud/lib/libBc_All_At91sam3s4c_Rf231_Gcc.a(phySet.o)
 .bss           0x00000000        0x0 ./../../../../../../Atmel_lib/BitCloud_SAM3S_EK_1_14_0/BitCloud/lib/libBc_All_At91sam3s4c_Rf231_Gcc.a(phySet.o)
 .text          0x00000000        0x0 ./../../../../../../Atmel_lib/BitCloud_SAM3S_EK_1_14_0/BitCloud/lib/libBc_All_At91sam3s4c_Rf231_Gcc.a(phySetTrxState.o)
 .data          0x00000000        0x0 ./../../../../../../Atmel_lib/BitCloud_SAM3S_EK_1_14_0/BitCloud/lib/libBc_All_At91sam3s4c_Rf231_Gcc.a(phySetTrxState.o)
 .bss           0x00000000        0x0 ./../../../../../../Atmel_lib/BitCloud_SAM3S_EK_1_14_0/BitCloud/lib/libBc_All_At91sam3s4c_Rf231_Gcc.a(phySetTrxState.o)
 .text          0x00000000        0x0 ./../../../../../../Atmel_lib/BitCloud_SAM3S_EK_1_14_0/BitCloud/lib/libBc_All_At91sam3s4c_Rf231_Gcc.a(phyStateMachine.o)
 .data          0x00000000        0x0 ./../../../../../../Atmel_lib/BitCloud_SAM3S_EK_1_14_0/BitCloud/lib/libBc_All_At91sam3s4c_Rf231_Gcc.a(phyStateMachine.o)
 .bss           0x00000000        0x0 ./../../../../../../Atmel_lib/BitCloud_SAM3S_EK_1_14_0/BitCloud/lib/libBc_All_At91sam3s4c_Rf231_Gcc.a(phyStateMachine.o)
 .text          0x00000000        0x0 ./../../../../../../Atmel_lib/BitCloud_SAM3S_EK_1_14_0/BitCloud/lib/libBc_All_At91sam3s4c_Rf231_Gcc.a(phyTxFrame.o)
 .data          0x00000000        0x0 ./../../../../../../Atmel_lib/BitCloud_SAM3S_EK_1_14_0/BitCloud/lib/libBc_All_At91sam3s4c_Rf231_Gcc.a(phyTxFrame.o)
 .bss           0x00000000        0x0 ./../../../../../../Atmel_lib/BitCloud_SAM3S_EK_1_14_0/BitCloud/lib/libBc_All_At91sam3s4c_Rf231_Gcc.a(phyTxFrame.o)
 .text          0x00000000        0x0 ./../../../../../../Atmel_lib/BitCloud_SAM3S_EK_1_14_0/BitCloud/lib/libBc_All_At91sam3s4c_Rf231_Gcc.a(queue.o)
 .data          0x00000000        0x0 ./../../../../../../Atmel_lib/BitCloud_SAM3S_EK_1_14_0/BitCloud/lib/libBc_All_At91sam3s4c_Rf231_Gcc.a(queue.o)
 .bss           0x00000000        0x0 ./../../../../../../Atmel_lib/BitCloud_SAM3S_EK_1_14_0/BitCloud/lib/libBc_All_At91sam3s4c_Rf231_Gcc.a(queue.o)
 .text          0x00000000        0x0 ./../../../../../../Atmel_lib/BitCloud_SAM3S_EK_1_14_0/BitCloud/lib/libBc_All_At91sam3s4c_Rf231_Gcc.a(sysDuplicateTable.o)
 .data          0x00000000        0x0 ./../../../../../../Atmel_lib/BitCloud_SAM3S_EK_1_14_0/BitCloud/lib/libBc_All_At91sam3s4c_Rf231_Gcc.a(sysDuplicateTable.o)
 .bss           0x00000000        0x0 ./../../../../../../Atmel_lib/BitCloud_SAM3S_EK_1_14_0/BitCloud/lib/libBc_All_At91sam3s4c_Rf231_Gcc.a(sysDuplicateTable.o)
 .text          0x00000000        0x0 ./../../../../../../Atmel_lib/BitCloud_SAM3S_EK_1_14_0/BitCloud/lib/libBc_All_At91sam3s4c_Rf231_Gcc.a(sysEvents.o)
 .data          0x00000000        0x0 ./../../../../../../Atmel_lib/BitCloud_SAM3S_EK_1_14_0/BitCloud/lib/libBc_All_At91sam3s4c_Rf231_Gcc.a(sysEvents.o)
 .text.SYS_UnsubscribeFromEvent
                0x00000000       0x4c ./../../../../../../Atmel_lib/BitCloud_SAM3S_EK_1_14_0/BitCloud/lib/libBc_All_At91sam3s4c_Rf231_Gcc.a(sysEvents.o)
 .text          0x00000000        0x0 ./../../../../../../Atmel_lib/BitCloud_SAM3S_EK_1_14_0/BitCloud/lib/libBc_All_At91sam3s4c_Rf231_Gcc.a(sysTimer.o)
 .data          0x00000000        0x0 ./../../../../../../Atmel_lib/BitCloud_SAM3S_EK_1_14_0/BitCloud/lib/libBc_All_At91sam3s4c_Rf231_Gcc.a(sysTimer.o)
 .bss           0x00000000        0x0 ./../../../../../../Atmel_lib/BitCloud_SAM3S_EK_1_14_0/BitCloud/lib/libBc_All_At91sam3s4c_Rf231_Gcc.a(sysTimer.o)
 .text          0x00000000        0x0 ./../../../../../../Atmel_lib/BitCloud_SAM3S_EK_1_14_0/BitCloud/lib/libBc_All_At91sam3s4c_Rf231_Gcc.a(machwdCalibHandler.o)
 .data          0x00000000        0x0 ./../../../../../../Atmel_lib/BitCloud_SAM3S_EK_1_14_0/BitCloud/lib/libBc_All_At91sam3s4c_Rf231_Gcc.a(machwdCalibHandler.o)
 .bss           0x00000000        0x0 ./../../../../../../Atmel_lib/BitCloud_SAM3S_EK_1_14_0/BitCloud/lib/libBc_All_At91sam3s4c_Rf231_Gcc.a(machwdCalibHandler.o)
 .text          0x00000000        0x0 ./../../../../../../Atmel_lib/BitCloud_SAM3S_EK_1_14_0/BitCloud/lib/libBc_All_At91sam3s4c_Rf231_Gcc.a(machwdEdHandler.o)
 .data          0x00000000        0x0 ./../../../../../../Atmel_lib/BitCloud_SAM3S_EK_1_14_0/BitCloud/lib/libBc_All_At91sam3s4c_Rf231_Gcc.a(machwdEdHandler.o)
 .bss           0x00000000        0x0 ./../../../../../../Atmel_lib/BitCloud_SAM3S_EK_1_14_0/BitCloud/lib/libBc_All_At91sam3s4c_Rf231_Gcc.a(machwdEdHandler.o)
 .text          0x00000000        0x0 ./../../../../../../Atmel_lib/BitCloud_SAM3S_EK_1_14_0/BitCloud/lib/libBc_All_At91sam3s4c_Rf231_Gcc.a(machwdFrameRoutine.o)
 .data          0x00000000        0x0 ./../../../../../../Atmel_lib/BitCloud_SAM3S_EK_1_14_0/BitCloud/lib/libBc_All_At91sam3s4c_Rf231_Gcc.a(machwdFrameRoutine.o)
 .bss           0x00000000        0x0 ./../../../../../../Atmel_lib/BitCloud_SAM3S_EK_1_14_0/BitCloud/lib/libBc_All_At91sam3s4c_Rf231_Gcc.a(machwdFrameRoutine.o)
 .text          0x00000000        0x0 ./../../../../../../Atmel_lib/BitCloud_SAM3S_EK_1_14_0/BitCloud/lib/libBc_All_At91sam3s4c_Rf231_Gcc.a(machwdHandlerCtrl.o)
 .data          0x00000000        0x0 ./../../../../../../Atmel_lib/BitCloud_SAM3S_EK_1_14_0/BitCloud/lib/libBc_All_At91sam3s4c_Rf231_Gcc.a(machwdHandlerCtrl.o)
 .bss           0x00000000        0x0 ./../../../../../../Atmel_lib/BitCloud_SAM3S_EK_1_14_0/BitCloud/lib/libBc_All_At91sam3s4c_Rf231_Gcc.a(machwdHandlerCtrl.o)
 .text          0x00000000        0x0 ./../../../../../../Atmel_lib/BitCloud_SAM3S_EK_1_14_0/BitCloud/lib/libBc_All_At91sam3s4c_Rf231_Gcc.a(machwiAssociateHandler.o)
 .data          0x00000000        0x0 ./../../../../../../Atmel_lib/BitCloud_SAM3S_EK_1_14_0/BitCloud/lib/libBc_All_At91sam3s4c_Rf231_Gcc.a(machwiAssociateHandler.o)
 .bss           0x00000000        0x0 ./../../../../../../Atmel_lib/BitCloud_SAM3S_EK_1_14_0/BitCloud/lib/libBc_All_At91sam3s4c_Rf231_Gcc.a(machwiAssociateHandler.o)
 .text          0x00000000        0x0 ./../../../../../../Atmel_lib/BitCloud_SAM3S_EK_1_14_0/BitCloud/lib/libBc_All_At91sam3s4c_Rf231_Gcc.a(machwiBeaconHandler.o)
 .data          0x00000000        0x0 ./../../../../../../Atmel_lib/BitCloud_SAM3S_EK_1_14_0/BitCloud/lib/libBc_All_At91sam3s4c_Rf231_Gcc.a(machwiBeaconHandler.o)
 .bss           0x00000000        0x0 ./../../../../../../Atmel_lib/BitCloud_SAM3S_EK_1_14_0/BitCloud/lib/libBc_All_At91sam3s4c_Rf231_Gcc.a(machwiBeaconHandler.o)
 .text          0x00000000        0x0 ./../../../../../../Atmel_lib/BitCloud_SAM3S_EK_1_14_0/BitCloud/lib/libBc_All_At91sam3s4c_Rf231_Gcc.a(machwiDataHandler.o)
 .data          0x00000000        0x0 ./../../../../../../Atmel_lib/BitCloud_SAM3S_EK_1_14_0/BitCloud/lib/libBc_All_At91sam3s4c_Rf231_Gcc.a(machwiDataHandler.o)
 .bss           0x00000000        0x0 ./../../../../../../Atmel_lib/BitCloud_SAM3S_EK_1_14_0/BitCloud/lib/libBc_All_At91sam3s4c_Rf231_Gcc.a(machwiDataHandler.o)
 .text          0x00000000        0x0 ./../../../../../../Atmel_lib/BitCloud_SAM3S_EK_1_14_0/BitCloud/lib/libBc_All_At91sam3s4c_Rf231_Gcc.a(phyCalib.o)
 .data          0x00000000        0x0 ./../../../../../../Atmel_lib/BitCloud_SAM3S_EK_1_14_0/BitCloud/lib/libBc_All_At91sam3s4c_Rf231_Gcc.a(phyCalib.o)
 .bss           0x00000000        0x0 ./../../../../../../Atmel_lib/BitCloud_SAM3S_EK_1_14_0/BitCloud/lib/libBc_All_At91sam3s4c_Rf231_Gcc.a(phyCalib.o)
 .text          0x00000000        0x0 ./../../../../../../Atmel_lib/BitCloud_SAM3S_EK_1_14_0/BitCloud/lib/libBc_All_At91sam3s4c_Rf231_Gcc.a(phyEd.o)
 .data          0x00000000        0x0 ./../../../../../../Atmel_lib/BitCloud_SAM3S_EK_1_14_0/BitCloud/lib/libBc_All_At91sam3s4c_Rf231_Gcc.a(phyEd.o)
 .bss           0x00000000        0x0 ./../../../../../../Atmel_lib/BitCloud_SAM3S_EK_1_14_0/BitCloud/lib/libBc_All_At91sam3s4c_Rf231_Gcc.a(phyEd.o)
 .text          0x00000000        0x0 ./../../../../../../Atmel_lib/BitCloud_SAM3S_EK_1_14_0/BitCloud/lib/libHAL_deRFusb23e06_At91sam3s4c_64Mhz_Gcc.a(halInit.o)
 .data          0x00000000        0x0 ./../../../../../../Atmel_lib/BitCloud_SAM3S_EK_1_14_0/BitCloud/lib/libHAL_deRFusb23e06_At91sam3s4c_64Mhz_Gcc.a(halInit.o)
 .bss           0x00000000        0x0 ./../../../../../../Atmel_lib/BitCloud_SAM3S_EK_1_14_0/BitCloud/lib/libHAL_deRFusb23e06_At91sam3s4c_64Mhz_Gcc.a(halInit.o)
 .text          0x00000000        0x0 ./../../../../../../Atmel_lib/BitCloud_SAM3S_EK_1_14_0/BitCloud/lib/libHAL_deRFusb23e06_At91sam3s4c_64Mhz_Gcc.a(uid.o)
 .data          0x00000000        0x0 ./../../../../../../Atmel_lib/BitCloud_SAM3S_EK_1_14_0/BitCloud/lib/libHAL_deRFusb23e06_At91sam3s4c_64Mhz_Gcc.a(uid.o)
 .bss           0x00000000        0x0 ./../../../../../../Atmel_lib/BitCloud_SAM3S_EK_1_14_0/BitCloud/lib/libHAL_deRFusb23e06_At91sam3s4c_64Mhz_Gcc.a(uid.o)
 .text          0x00000000        0x0 ./../../../../../../Atmel_lib/BitCloud_SAM3S_EK_1_14_0/BitCloud/lib/libHAL_deRFusb23e06_At91sam3s4c_64Mhz_Gcc.a(nv_basic.o)
 .data          0x00000000        0x0 ./../../../../../../Atmel_lib/BitCloud_SAM3S_EK_1_14_0/BitCloud/lib/libHAL_deRFusb23e06_At91sam3s4c_64Mhz_Gcc.a(nv_basic.o)
 .data          0x00000000        0x0 c:/users/user/desktop/winsync/code_files/sabre/_toolchains/yagarto_arm/bin/../lib/gcc/arm-none-eabi/4.5.1/../../../../arm-none-eabi/lib/thumb/v7m\libc.a(lib_a-memcmp.o)
 .bss           0x00000000        0x0 c:/users/user/desktop/winsync/code_files/sabre/_toolchains/yagarto_arm/bin/../lib/gcc/arm-none-eabi/4.5.1/../../../../arm-none-eabi/lib/thumb/v7m\libc.a(lib_a-memcmp.o)
 .data          0x00000000        0x0 c:/users/user/desktop/winsync/code_files/sabre/_toolchains/yagarto_arm/bin/../lib/gcc/arm-none-eabi/4.5.1/../../../../arm-none-eabi/lib/thumb/v7m\libc.a(lib_a-memcpy.o)
 .bss           0x00000000        0x0 c:/users/user/desktop/winsync/code_files/sabre/_toolchains/yagarto_arm/bin/../lib/gcc/arm-none-eabi/4.5.1/../../../../arm-none-eabi/lib/thumb/v7m\libc.a(lib_a-memcpy.o)
 .data          0x00000000        0x0 c:/users/user/desktop/winsync/code_files/sabre/_toolchains/yagarto_arm/bin/../lib/gcc/arm-none-eabi/4.5.1/../../../../arm-none-eabi/lib/thumb/v7m\libc.a(lib_a-memmove.o)
 .bss           0x00000000        0x0 c:/users/user/desktop/winsync/code_files/sabre/_toolchains/yagarto_arm/bin/../lib/gcc/arm-none-eabi/4.5.1/../../../../arm-none-eabi/lib/thumb/v7m\libc.a(lib_a-memmove.o)
 .data          0x00000000        0x0 c:/users/user/desktop/winsync/code_files/sabre/_toolchains/yagarto_arm/bin/../lib/gcc/arm-none-eabi/4.5.1/../../../../arm-none-eabi/lib/thumb/v7m\libc.a(lib_a-memset.o)
 .bss           0x00000000        0x0 c:/users/user/desktop/winsync/code_files/sabre/_toolchains/yagarto_arm/bin/../lib/gcc/arm-none-eabi/4.5.1/../../../../arm-none-eabi/lib/thumb/v7m\libc.a(lib_a-memset.o)
 .data          0x00000000        0x0 c:/users/user/desktop/winsync/code_files/sabre/_toolchains/yagarto_arm/bin/../lib/gcc/arm-none-eabi/4.5.1/../../../../arm-none-eabi/lib/thumb/v7m\libc.a(lib_a-rand.o)
 .bss           0x00000000        0x0 c:/users/user/desktop/winsync/code_files/sabre/_toolchains/yagarto_arm/bin/../lib/gcc/arm-none-eabi/4.5.1/../../../../arm-none-eabi/lib/thumb/v7m\libc.a(lib_a-rand.o)
 .text          0x00000000        0x0 c:/users/user/desktop/winsync/code_files/sabre/_toolchains/yagarto_arm/bin/../lib/gcc/arm-none-eabi/4.5.1/../../../../arm-none-eabi/lib/thumb/v7m\libc.a(lib_a-impure.o)
 .bss           0x00000000        0x0 c:/users/user/desktop/winsync/code_files/sabre/_toolchains/yagarto_arm/bin/../lib/gcc/arm-none-eabi/4.5.1/../../../../arm-none-eabi/lib/thumb/v7m\libc.a(lib_a-impure.o)
 .rodata        0x00000000        0x4 c:/users/user/desktop/winsync/code_files/sabre/_toolchains/yagarto_arm/bin/../lib/gcc/arm-none-eabi/4.5.1/../../../../arm-none-eabi/lib/thumb/v7m\libc.a(lib_a-impure.o)

Memory Configuration

Name             Origin             Length             Attributes
BOOT             0x00000000         0x00400000         xr
FLASH            0x00400000         0x0003f000         xr
ROM              0x00800000         0x00400000         xr
RAM              0x20000000         0x0000c000         rw
*default*        0x00000000         0xffffffff

Linker script and memory map

                0x00001000                MAIN_STACK_SIZE = 0x1000
                0x00000000                PROCESS_STACK_SIZE = 0x0

.text           0x00400000    0x113d0
                0x00400000                __text = .
 *(.vectors)
 .vectors       0x00400000       0x40 ./../../../../../../Atmel_lib/BitCloud_SAM3S_EK_1_14_0/BitCloud/lib/libHAL_deRFusb23e06_At91sam3s4c_64Mhz_Gcc.a(halVectorTable.o)
                0x00400000                __vector_table
                0x00400040                PROVIDE (__pds_ff_start, .)
 *(.pds_ff)
                0x00400040                PROVIDE (__pds_ff_end, .)
                0x00400040                PROVIDE (__pds_fd_start, .)
 *(.pds_fd)
                0x00400040                PROVIDE (__pds_fd_end, .)
 *(.text)
 .text          0x00400040       0x74 ./../../../../../../Atmel_lib/BitCloud_SAM3S_EK_1_14_0/BitCloud/lib/libHAL_deRFusb23e06_At91sam3s4c_64Mhz_Gcc.a(halExceptionGcc.o)
                0x00400040                halNmiHandler
                0x00400042                halHardFaultHandler
                0x00400044                halMemManageHandler
                0x00400046                halBusFaultHandler
                0x00400048                halUsageFaultHandler
                0x0040004a                halSvcHandler
                0x0040004c                halDebugMonHandler
                0x0040004e                halPendsvHandler
                0x00400050                halSysTickHandler
 .text          0x004000b4       0x58 c:/users/user/desktop/winsync/code_files/sabre/_toolchains/yagarto_arm/bin/../lib/gcc/arm-none-eabi/4.5.1/../../../../arm-none-eabi/lib/thumb/v7m\libc.a(lib_a-memcmp.o)
                0x004000b4                memcmp
 .text          0x0040010c       0x8c c:/users/user/desktop/winsync/code_files/sabre/_toolchains/yagarto_arm/bin/../lib/gcc/arm-none-eabi/4.5.1/../../../../arm-none-eabi/lib/thumb/v7m\libc.a(lib_a-memcpy.o)
                0x0040010c                memcpy
 .text          0x00400198       0xb4 c:/users/user/desktop/winsync/code_files/sabre/_toolchains/yagarto_arm/bin/../lib/gcc/arm-none-eabi/4.5.1/../../../../arm-none-eabi/lib/thumb/v7m\libc.a(lib_a-memmove.o)
                0x00400198                memmove
 .text          0x0040024c       0x9c c:/users/user/desktop/winsync/code_files/sabre/_toolchains/yagarto_arm/bin/../lib/gcc/arm-none-eabi/4.5.1/../../../../arm-none-eabi/lib/thumb/v7m\libc.a(lib_a-memset.o)
                0x0040024c                memset
 .text          0x004002e8       0x64 c:/users/user/desktop/winsync/code_files/sabre/_toolchains/yagarto_arm/bin/../lib/gcc/arm-none-eabi/4.5.1/../../../../arm-none-eabi/lib/thumb/v7m\libc.a(lib_a-rand.o)
                0x004002e8                srand
                0x00400300                rand
 *(.text.*)
 .text.blinkTimerFired
                0x0040034c       0x16 All_deRFusb23e06_At91sam3s4c_Rf231_Gcc/Obj/blink.o
 *fill*         0x00400362        0x2 00
 .text.buttonsReleased
                0x00400364       0x44 All_deRFusb23e06_At91sam3s4c_Rf231_Gcc/Obj/blink.o
 .text.changeTimerFired
                0x004003a8       0x20 All_deRFusb23e06_At91sam3s4c_Rf231_Gcc/Obj/blink.o
 .text.APL_TaskHandler
                0x004003c8       0x60 All_deRFusb23e06_At91sam3s4c_Rf231_Gcc/Obj/blink.o
                0x004003c8                APL_TaskHandler
 .text.ZDO_MgmtNwkUpdateNotf
                0x00400428        0x2 All_deRFusb23e06_At91sam3s4c_Rf231_Gcc/Obj/blink.o
                0x00400428                ZDO_MgmtNwkUpdateNotf
 .text.ZDO_WakeUpInd
                0x0040042a        0x2 All_deRFusb23e06_At91sam3s4c_Rf231_Gcc/Obj/blink.o
                0x0040042a                ZDO_WakeUpInd
 .text.ZDO_BindIndication
                0x0040042c        0x2 All_deRFusb23e06_At91sam3s4c_Rf231_Gcc/Obj/blink.o
                0x0040042c                ZDO_BindIndication
 .text.ZDO_UnbindIndication
                0x0040042e        0x2 All_deRFusb23e06_At91sam3s4c_Rf231_Gcc/Obj/blink.o
                0x0040042e                ZDO_UnbindIndication
 .text.main     0x00400430        0xc All_deRFusb23e06_At91sam3s4c_Rf231_Gcc/Obj/blink.o
                0x00400430                main
 .text.BSP_OpenLeds
                0x0040043c       0x24 All_deRFusb23e06_At91sam3s4c_Rf231_Gcc/Obj/leds.o
                0x0040043c                BSP_OpenLeds
 .text.BSP_OnLed
                0x00400460       0x28 All_deRFusb23e06_At91sam3s4c_Rf231_Gcc/Obj/leds.o
                0x00400460                BSP_OnLed
 .text.BSP_ToggleLed
                0x00400488       0x58 All_deRFusb23e06_At91sam3s4c_Rf231_Gcc/Obj/leds.o
                0x00400488                BSP_ToggleLed
 .text.BSP_TaskHandler
                0x004004e0       0x70 All_deRFusb23e06_At91sam3s4c_Rf231_Gcc/Obj/bspTaskManager.o
                0x004004e0                BSP_TaskHandler
 .text.BSP_OpenButtons
                0x00400550        0x4 All_deRFusb23e06_At91sam3s4c_Rf231_Gcc/Obj/fakeBSP.o
                0x00400550                BSP_OpenButtons
 .text.bspTemperatureSensorHandler
                0x00400554       0x14 All_deRFusb23e06_At91sam3s4c_Rf231_Gcc/Obj/fakeBSP.o
                0x00400554                bspTemperatureSensorHandler
 .text.bspLightSensorHandler
                0x00400568       0x14 All_deRFusb23e06_At91sam3s4c_Rf231_Gcc/Obj/fakeBSP.o
                0x00400568                bspLightSensorHandler
 .text.bspEmptyBatteryHandler
                0x0040057c       0x10 All_deRFusb23e06_At91sam3s4c_Rf231_Gcc/Obj/fakeBSP.o
                0x0040057c                bspEmptyBatteryHandler
 .text.csSetToDefault
                0x0040058c       0x70 All_deRFusb23e06_At91sam3s4c_Rf231_Gcc/Obj/csMem.o
                0x0040058c                csSetToDefault
 .text.csGetItem
                0x004005fc       0x24 All_deRFusb23e06_At91sam3s4c_Rf231_Gcc/Obj/configServer.o
 .text.CS_Init  0x00400620        0x8 All_deRFusb23e06_At91sam3s4c_Rf231_Gcc/Obj/configServer.o
                0x00400620                CS_Init
 .text.CS_ReadParameter
                0x00400628       0x1e All_deRFusb23e06_At91sam3s4c_Rf231_Gcc/Obj/configServer.o
                0x00400628                CS_ReadParameter
 .text.CS_WriteParameter
                0x00400646       0x2a All_deRFusb23e06_At91sam3s4c_Rf231_Gcc/Obj/configServer.o
                0x00400646                CS_WriteParameter
 .text.CS_GetMemory
                0x00400670       0x1a All_deRFusb23e06_At91sam3s4c_Rf231_Gcc/Obj/configServer.o
                0x00400670                CS_GetMemory
 .text.halStartAtomic
                0x0040068a        0xe ./../../../../../../Atmel_lib/BitCloud_SAM3S_EK_1_14_0/BitCloud/lib/libHAL_deRFusb23e06_At91sam3s4c_64Mhz_Gcc.a(atomic.o)
                0x0040068a                halStartAtomic
 .text.halEndAtomic
                0x00400698        0xa ./../../../../../../Atmel_lib/BitCloud_SAM3S_EK_1_14_0/BitCloud/lib/libHAL_deRFusb23e06_At91sam3s4c_64Mhz_Gcc.a(atomic.o)
                0x00400698                halEndAtomic
 .text.__get_PRIMASK
                0x004006a2        0x6 ./../../../../../../Atmel_lib/BitCloud_SAM3S_EK_1_14_0/BitCloud/lib/libHAL_deRFusb23e06_At91sam3s4c_64Mhz_Gcc.a(core_cm3.o)
                0x004006a2                __get_PRIMASK
 .text.__set_PRIMASK
                0x004006a8        0x6 ./../../../../../../Atmel_lib/BitCloud_SAM3S_EK_1_14_0/BitCloud/lib/libHAL_deRFusb23e06_At91sam3s4c_64Mhz_Gcc.a(core_cm3.o)
                0x004006a8                __set_PRIMASK
 .text.halIrqHandlerNotUsed
                0x004006ae        0x2 ./../../../../../../Atmel_lib/BitCloud_SAM3S_EK_1_14_0/BitCloud/lib/libHAL_deRFusb23e06_At91sam3s4c_64Mhz_Gcc.a(halVectorTable.o)
 .text.halAdjustSleepInterval
                0x004006b0       0x3c ./../../../../../../Atmel_lib/BitCloud_SAM3S_EK_1_14_0/BitCloud/lib/libHAL_deRFusb23e06_At91sam3s4c_64Mhz_Gcc.a(halAppClock.o)
                0x004006b0                halAdjustSleepInterval
 .text.halAppSystemTimeSynchronize
                0x004006ec       0x34 ./../../../../../../Atmel_lib/BitCloud_SAM3S_EK_1_14_0/BitCloud/lib/libHAL_deRFusb23e06_At91sam3s4c_64Mhz_Gcc.a(halAppClock.o)
                0x004006ec                halAppSystemTimeSynchronize
 .text.timerHandler
                0x00400720       0x70 ./../../../../../../Atmel_lib/BitCloud_SAM3S_EK_1_14_0/BitCloud/lib/libHAL_deRFusb23e06_At91sam3s4c_64Mhz_Gcc.a(halAppClock.o)
                0x00400720                timerHandler
 .text.halStartAppClock
                0x00400790       0x50 ./../../../../../../Atmel_lib/BitCloud_SAM3S_EK_1_14_0/BitCloud/lib/libHAL_deRFusb23e06_At91sam3s4c_64Mhz_Gcc.a(halAppClock.o)
                0x00400790                halStartAppClock
 .text.halStopAppClock
                0x004007e0        0xc ./../../../../../../Atmel_lib/BitCloud_SAM3S_EK_1_14_0/BitCloud/lib/libHAL_deRFusb23e06_At91sam3s4c_64Mhz_Gcc.a(halAppClock.o)
                0x004007e0                halStopAppClock
 .text.halGetTimeOfAppTimer
                0x004007ec       0x10 ./../../../../../../Atmel_lib/BitCloud_SAM3S_EK_1_14_0/BitCloud/lib/libHAL_deRFusb23e06_At91sam3s4c_64Mhz_Gcc.a(halAppClock.o)
                0x004007ec                halGetTimeOfAppTimer
 .text.halDelayUs
                0x004007fc       0x30 ./../../../../../../Atmel_lib/BitCloud_SAM3S_EK_1_14_0/BitCloud/lib/libHAL_deRFusb23e06_At91sam3s4c_64Mhz_Gcc.a(halAppClock.o)
                0x004007fc                halDelayUs
 .text.commonUsartHandler
                0x0040082c       0x80 ./../../../../../../Atmel_lib/BitCloud_SAM3S_EK_1_14_0/BitCloud/lib/libHAL_deRFusb23e06_At91sam3s4c_64Mhz_Gcc.a(halUsart.o)
                0x0040082c                commonUsartHandler
 .text.usart0Handler
                0x004008ac       0x10 ./../../../../../../Atmel_lib/BitCloud_SAM3S_EK_1_14_0/BitCloud/lib/libHAL_deRFusb23e06_At91sam3s4c_64Mhz_Gcc.a(halUsart.o)
                0x004008ac                usart0Handler
 .text.usart1Handler
                0x004008bc       0x10 ./../../../../../../Atmel_lib/BitCloud_SAM3S_EK_1_14_0/BitCloud/lib/libHAL_deRFusb23e06_At91sam3s4c_64Mhz_Gcc.a(halUsart.o)
                0x004008bc                usart1Handler
 .text.halPostUartTask
                0x004008cc       0x44 ./../../../../../../Atmel_lib/BitCloud_SAM3S_EK_1_14_0/BitCloud/lib/libHAL_deRFusb23e06_At91sam3s4c_64Mhz_Gcc.a(halUart.o)
 .text.halUartTaskUart1Rxc
                0x00400910       0x10 ./../../../../../../Atmel_lib/BitCloud_SAM3S_EK_1_14_0/BitCloud/lib/libHAL_deRFusb23e06_At91sam3s4c_64Mhz_Gcc.a(halUart.o)
 .text.halUartTaskUart0Rxc
                0x00400920       0x10 ./../../../../../../Atmel_lib/BitCloud_SAM3S_EK_1_14_0/BitCloud/lib/libHAL_deRFusb23e06_At91sam3s4c_64Mhz_Gcc.a(halUart.o)
 .text.halUartTaskUart1Txc
                0x00400930       0x10 ./../../../../../../Atmel_lib/BitCloud_SAM3S_EK_1_14_0/BitCloud/lib/libHAL_deRFusb23e06_At91sam3s4c_64Mhz_Gcc.a(halUart.o)
 .text.halUartTaskUart0Txc
                0x00400940       0x10 ./../../../../../../Atmel_lib/BitCloud_SAM3S_EK_1_14_0/BitCloud/lib/libHAL_deRFusb23e06_At91sam3s4c_64Mhz_Gcc.a(halUart.o)
 .text.halUartTaskUart1Dre
                0x00400950       0x10 ./../../../../../../Atmel_lib/BitCloud_SAM3S_EK_1_14_0/BitCloud/lib/libHAL_deRFusb23e06_At91sam3s4c_64Mhz_Gcc.a(halUart.o)
 .text.halUartTaskUart0Dre
                0x00400960       0x10 ./../../../../../../Atmel_lib/BitCloud_SAM3S_EK_1_14_0/BitCloud/lib/libHAL_deRFusb23e06_At91sam3s4c_64Mhz_Gcc.a(halUart.o)
 .text.halSigUartHandler
                0x00400970       0x3c ./../../../../../../Atmel_lib/BitCloud_SAM3S_EK_1_14_0/BitCloud/lib/libHAL_deRFusb23e06_At91sam3s4c_64Mhz_Gcc.a(halUart.o)
                0x00400970                halSigUartHandler
 .text.uart0Handler
                0x004009ac       0x68 ./../../../../../../Atmel_lib/BitCloud_SAM3S_EK_1_14_0/BitCloud/lib/libHAL_deRFusb23e06_At91sam3s4c_64Mhz_Gcc.a(halUart.o)
                0x004009ac                uart0Handler
 .text.halClearCSR
                0x00400a14       0x48 ./../../../../../../Atmel_lib/BitCloud_SAM3S_EK_1_14_0/BitCloud/lib/libHAL_deRFusb23e06_At91sam3s4c_64Mhz_Gcc.a(halUsb.o)
 .text.halSetCSR
                0x00400a5c       0x48 ./../../../../../../Atmel_lib/BitCloud_SAM3S_EK_1_14_0/BitCloud/lib/libHAL_deRFusb23e06_At91sam3s4c_64Mhz_Gcc.a(halUsb.o)
 .text.halWritePayload
                0x00400aa4       0x50 ./../../../../../../Atmel_lib/BitCloud_SAM3S_EK_1_14_0/BitCloud/lib/libHAL_deRFusb23e06_At91sam3s4c_64Mhz_Gcc.a(halUsb.o)
 .text.halClearRxFlag
                0x00400af4       0x98 ./../../../../../../Atmel_lib/BitCloud_SAM3S_EK_1_14_0/BitCloud/lib/libHAL_deRFusb23e06_At91sam3s4c_64Mhz_Gcc.a(halUsb.o)
 .text.usbHandler
                0x00400b8c      0x100 ./../../../../../../Atmel_lib/BitCloud_SAM3S_EK_1_14_0/BitCloud/lib/libHAL_deRFusb23e06_At91sam3s4c_64Mhz_Gcc.a(halUsb.o)
                0x00400b8c                usbHandler
 .text.halEndOfTransfer
                0x00400c8c       0x3c ./../../../../../../Atmel_lib/BitCloud_SAM3S_EK_1_14_0/BitCloud/lib/libHAL_deRFusb23e06_At91sam3s4c_64Mhz_Gcc.a(halUsb.o)
                0x00400c8c                halEndOfTransfer
 .text.halResetEndpoints
                0x00400cc8       0x30 ./../../../../../../Atmel_lib/BitCloud_SAM3S_EK_1_14_0/BitCloud/lib/libHAL_deRFusb23e06_At91sam3s4c_64Mhz_Gcc.a(halUsb.o)
                0x00400cc8                halResetEndpoints
 .text.halDisableEndpoints
                0x00400cf8       0x24 ./../../../../../../Atmel_lib/BitCloud_SAM3S_EK_1_14_0/BitCloud/lib/libHAL_deRFusb23e06_At91sam3s4c_64Mhz_Gcc.a(halUsb.o)
                0x00400cf8                halDisableEndpoints
 .text.halEndOfBusResetHandler
                0x00400d1c       0x34 ./../../../../../../Atmel_lib/BitCloud_SAM3S_EK_1_14_0/BitCloud/lib/libHAL_deRFusb23e06_At91sam3s4c_64Mhz_Gcc.a(halUsb.o)
                0x00400d1c                halEndOfBusResetHandler
 .text.halEndpointHandler
                0x00400d50      0x250 ./../../../../../../Atmel_lib/BitCloud_SAM3S_EK_1_14_0/BitCloud/lib/libHAL_deRFusb23e06_At91sam3s4c_64Mhz_Gcc.a(halUsb.o)
                0x00400d50                halEndpointHandler
 .text.halConfigureEndpoint
                0x00400fa0       0x34 ./../../../../../../Atmel_lib/BitCloud_SAM3S_EK_1_14_0/BitCloud/lib/libHAL_deRFusb23e06_At91sam3s4c_64Mhz_Gcc.a(halUsb.o)
                0x00400fa0                halConfigureEndpoint
 .text.halProcessExtIrq
                0x00400fd4       0x36 ./../../../../../../Atmel_lib/BitCloud_SAM3S_EK_1_14_0/BitCloud/lib/libHAL_deRFusb23e06_At91sam3s4c_64Mhz_Gcc.a(halIrq.o)
 *fill*         0x0040100a        0x2 00
 .text.halRegisterExtIrq
                0x0040100c      0x168 ./../../../../../../Atmel_lib/BitCloud_SAM3S_EK_1_14_0/BitCloud/lib/libHAL_deRFusb23e06_At91sam3s4c_64Mhz_Gcc.a(halIrq.o)
                0x0040100c                halRegisterExtIrq
 .text.halEnableExtIrq
                0x00401174       0x20 ./../../../../../../Atmel_lib/BitCloud_SAM3S_EK_1_14_0/BitCloud/lib/libHAL_deRFusb23e06_At91sam3s4c_64Mhz_Gcc.a(halIrq.o)
                0x00401174                halEnableExtIrq
 .text.halDisableExtIrq
                0x00401194       0x38 ./../../../../../../Atmel_lib/BitCloud_SAM3S_EK_1_14_0/BitCloud/lib/libHAL_deRFusb23e06_At91sam3s4c_64Mhz_Gcc.a(halIrq.o)
                0x00401194                halDisableExtIrq
 .text.halClearExtIrq
                0x004011cc       0x74 ./../../../../../../Atmel_lib/BitCloud_SAM3S_EK_1_14_0/BitCloud/lib/libHAL_deRFusb23e06_At91sam3s4c_64Mhz_Gcc.a(halIrq.o)
                0x004011cc                halClearExtIrq
 .text.pioaHandler
                0x00401240       0x10 ./../../../../../../Atmel_lib/BitCloud_SAM3S_EK_1_14_0/BitCloud/lib/libHAL_deRFusb23e06_At91sam3s4c_64Mhz_Gcc.a(halIrq.o)
                0x00401240                pioaHandler
 .text.piobHandler
                0x00401250       0x10 ./../../../../../../Atmel_lib/BitCloud_SAM3S_EK_1_14_0/BitCloud/lib/libHAL_deRFusb23e06_At91sam3s4c_64Mhz_Gcc.a(halIrq.o)
                0x00401250                piobHandler
 .text.piocHandler
                0x00401260       0x10 ./../../../../../../Atmel_lib/BitCloud_SAM3S_EK_1_14_0/BitCloud/lib/libHAL_deRFusb23e06_At91sam3s4c_64Mhz_Gcc.a(halIrq.o)
                0x00401260                piocHandler
 .text.hsmciHandler
                0x00401270       0xec ./../../../../../../Atmel_lib/BitCloud_SAM3S_EK_1_14_0/BitCloud/lib/libHAL_deRFusb23e06_At91sam3s4c_64Mhz_Gcc.a(halHsmci.o)
                0x00401270                hsmciHandler
 .text.halHsmciHandler
                0x0040135c       0x14 ./../../../../../../Atmel_lib/BitCloud_SAM3S_EK_1_14_0/BitCloud/lib/libHAL_deRFusb23e06_At91sam3s4c_64Mhz_Gcc.a(halHsmci.o)
                0x0040135c                halHsmciHandler
 .text.halStartSleepTimerClock
                0x00401370       0x44 ./../../../../../../Atmel_lib/BitCloud_SAM3S_EK_1_14_0/BitCloud/lib/libHAL_deRFusb23e06_At91sam3s4c_64Mhz_Gcc.a(halSleepTimerClock.o)
                0x00401370                halStartSleepTimerClock
 .text.halSetSleepTimerInterval
                0x004013b4       0x24 ./../../../../../../Atmel_lib/BitCloud_SAM3S_EK_1_14_0/BitCloud/lib/libHAL_deRFusb23e06_At91sam3s4c_64Mhz_Gcc.a(halSleepTimerClock.o)
                0x004013b4                halSetSleepTimerInterval
 .text.halGetTimeOfSleepTimer
                0x004013d8       0x54 ./../../../../../../Atmel_lib/BitCloud_SAM3S_EK_1_14_0/BitCloud/lib/libHAL_deRFusb23e06_At91sam3s4c_64Mhz_Gcc.a(halSleepTimerClock.o)
                0x004013d8                halGetTimeOfSleepTimer
 .text.halSleepTimerFrequency
                0x0040142c        0x4 ./../../../../../../Atmel_lib/BitCloud_SAM3S_EK_1_14_0/BitCloud/lib/libHAL_deRFusb23e06_At91sam3s4c_64Mhz_Gcc.a(halSleepTimerClock.o)
                0x0040142c                halSleepTimerFrequency
 .text.rttHandler
                0x00401430       0x80 ./../../../../../../Atmel_lib/BitCloud_SAM3S_EK_1_14_0/BitCloud/lib/libHAL_deRFusb23e06_At91sam3s4c_64Mhz_Gcc.a(halSleepTimerClock.o)
                0x00401430                rttHandler
 .text.halPowerOn
                0x004014b0       0x54 ./../../../../../../Atmel_lib/BitCloud_SAM3S_EK_1_14_0/BitCloud/lib/libHAL_deRFusb23e06_At91sam3s4c_64Mhz_Gcc.a(halSleep.o)
                0x004014b0                halPowerOn
 .text.halPowerOff
                0x00401504       0x74 ./../../../../../../Atmel_lib/BitCloud_SAM3S_EK_1_14_0/BitCloud/lib/libHAL_deRFusb23e06_At91sam3s4c_64Mhz_Gcc.a(halSleep.o)
                0x00401504                halPowerOff
 .text.HAL_Sleep
                0x00401578       0x40 ./../../../../../../Atmel_lib/BitCloud_SAM3S_EK_1_14_0/BitCloud/lib/libHAL_deRFusb23e06_At91sam3s4c_64Mhz_Gcc.a(halSleep.o)
                0x00401578                HAL_Sleep
 .text.halWakeupHandler
                0x004015b8       0x60 ./../../../../../../Atmel_lib/BitCloud_SAM3S_EK_1_14_0/BitCloud/lib/libHAL_deRFusb23e06_At91sam3s4c_64Mhz_Gcc.a(halSleep.o)
                0x004015b8                halWakeupHandler
 .text.gccReset
                0x00401618       0x50 ./../../../../../../Atmel_lib/BitCloud_SAM3S_EK_1_14_0/BitCloud/lib/libHAL_deRFusb23e06_At91sam3s4c_64Mhz_Gcc.a(halStartupGcc.o)
                0x00401618                gccReset
 .text.HAL_Delay
                0x00401668        0x8 ./../../../../../../Atmel_lib/BitCloud_SAM3S_EK_1_14_0/BitCloud/lib/libHAL_deRFusb23e06_At91sam3s4c_64Mhz_Gcc.a(halRfCtrl.o)
                0x00401668                HAL_Delay
 .text.HAL_ClearRfIrqFlag
                0x00401670        0xa ./../../../../../../Atmel_lib/BitCloud_SAM3S_EK_1_14_0/BitCloud/lib/libHAL_deRFusb23e06_At91sam3s4c_64Mhz_Gcc.a(halRfCtrl.o)
                0x00401670                HAL_ClearRfIrqFlag
 .text.HAL_EnableRfIrq
                0x0040167a        0xa ./../../../../../../Atmel_lib/BitCloud_SAM3S_EK_1_14_0/BitCloud/lib/libHAL_deRFusb23e06_At91sam3s4c_64Mhz_Gcc.a(halRfCtrl.o)
                0x0040167a                HAL_EnableRfIrq
 .text.HAL_DisableRfIrq
                0x00401684        0xc ./../../../../../../Atmel_lib/BitCloud_SAM3S_EK_1_14_0/BitCloud/lib/libHAL_deRFusb23e06_At91sam3s4c_64Mhz_Gcc.a(halRfCtrl.o)
                0x00401684                HAL_DisableRfIrq
 .text.HAL_SetRfSlpTr
                0x00401690       0x10 ./../../../../../../Atmel_lib/BitCloud_SAM3S_EK_1_14_0/BitCloud/lib/libHAL_deRFusb23e06_At91sam3s4c_64Mhz_Gcc.a(halRfCtrl.o)
                0x00401690                HAL_SetRfSlpTr
 .text.HAL_ClearRfSlpTr
                0x004016a0       0x10 ./../../../../../../Atmel_lib/BitCloud_SAM3S_EK_1_14_0/BitCloud/lib/libHAL_deRFusb23e06_At91sam3s4c_64Mhz_Gcc.a(halRfCtrl.o)
                0x004016a0                HAL_ClearRfSlpTr
 .text.HAL_SetRfRst
                0x004016b0       0x10 ./../../../../../../Atmel_lib/BitCloud_SAM3S_EK_1_14_0/BitCloud/lib/libHAL_deRFusb23e06_At91sam3s4c_64Mhz_Gcc.a(halRfCtrl.o)
                0x004016b0                HAL_SetRfRst
 .text.HAL_ClearRfRst
                0x004016c0       0x10 ./../../../../../../Atmel_lib/BitCloud_SAM3S_EK_1_14_0/BitCloud/lib/libHAL_deRFusb23e06_At91sam3s4c_64Mhz_Gcc.a(halRfCtrl.o)
                0x004016c0                HAL_ClearRfRst
 .text.HAL_InitRfPins
                0x004016d0       0x18 ./../../../../../../Atmel_lib/BitCloud_SAM3S_EK_1_14_0/BitCloud/lib/libHAL_deRFusb23e06_At91sam3s4c_64Mhz_Gcc.a(halRfCtrl.o)
                0x004016d0                HAL_InitRfPins
 .text.HAL_InitRfIrq
                0x004016e8       0x28 ./../../../../../../Atmel_lib/BitCloud_SAM3S_EK_1_14_0/BitCloud/lib/libHAL_deRFusb23e06_At91sam3s4c_64Mhz_Gcc.a(halRfCtrl.o)
                0x004016e8                HAL_InitRfIrq
 .text.HAL_GetRfFreq
                0x00401710        0x4 ./../../../../../../Atmel_lib/BitCloud_SAM3S_EK_1_14_0/BitCloud/lib/libHAL_deRFusb23e06_At91sam3s4c_64Mhz_Gcc.a(halRfCtrl.o)
                0x00401710                HAL_GetRfFreq
 .text.halWaitRadio
                0x00401714       0x20 ./../../../../../../Atmel_lib/BitCloud_SAM3S_EK_1_14_0/BitCloud/lib/libHAL_deRFusb23e06_At91sam3s4c_64Mhz_Gcc.a(halRfCtrl.o)
                0x00401714                halWaitRadio
 .text.HAL_EnableRxTxSwitcher
                0x00401734        0x8 ./../../../../../../Atmel_lib/BitCloud_SAM3S_EK_1_14_0/BitCloud/lib/libHAL_deRFusb23e06_At91sam3s4c_64Mhz_Gcc.a(halRfCtrl.o)
                0x00401734                HAL_EnableRxTxSwitcher
 .text.HAL_InitAntennaDiversity
                0x0040173c        0x2 ./../../../../../../Atmel_lib/BitCloud_SAM3S_EK_1_14_0/BitCloud/lib/libHAL_deRFusb23e06_At91sam3s4c_64Mhz_Gcc.a(halRfCtrl.o)
                0x0040173c                HAL_InitAntennaDiversity
 .text.HAL_EnableRxAntennaDiversity
                0x0040173e        0x2 ./../../../../../../Atmel_lib/BitCloud_SAM3S_EK_1_14_0/BitCloud/lib/libHAL_deRFusb23e06_At91sam3s4c_64Mhz_Gcc.a(halRfCtrl.o)
                0x0040173e                HAL_EnableRxAntennaDiversity
 .text.HAL_EnableTxAntennaDiversity
                0x00401740        0x2 ./../../../../../../Atmel_lib/BitCloud_SAM3S_EK_1_14_0/BitCloud/lib/libHAL_deRFusb23e06_At91sam3s4c_64Mhz_Gcc.a(halRfCtrl.o)
                0x00401740                HAL_EnableTxAntennaDiversity
 *fill*         0x00401742        0x2 00
 .text.HAL_InitRfSpi
                0x00401744       0x44 ./../../../../../../Atmel_lib/BitCloud_SAM3S_EK_1_14_0/BitCloud/lib/libHAL_deRFusb23e06_At91sam3s4c_64Mhz_Gcc.a(halRfSpi.o)
                0x00401744                HAL_InitRfSpi
 .text.HAL_WriteByteRfSpi
                0x00401788       0x18 ./../../../../../../Atmel_lib/BitCloud_SAM3S_EK_1_14_0/BitCloud/lib/libHAL_deRFusb23e06_At91sam3s4c_64Mhz_Gcc.a(halRfSpi.o)
                0x00401788                HAL_WriteByteRfSpi
 .text.HAL_DeselectRfSpi
                0x004017a0       0x10 ./../../../../../../Atmel_lib/BitCloud_SAM3S_EK_1_14_0/BitCloud/lib/libHAL_deRFusb23e06_At91sam3s4c_64Mhz_Gcc.a(halRfSpi.o)
                0x004017a0                HAL_DeselectRfSpi
 .text.HAL_SelectRfSpi
                0x004017b0       0x10 ./../../../../../../Atmel_lib/BitCloud_SAM3S_EK_1_14_0/BitCloud/lib/libHAL_deRFusb23e06_At91sam3s4c_64Mhz_Gcc.a(halRfSpi.o)
                0x004017b0                HAL_SelectRfSpi
 .text.HAL_InitMacIsr
                0x004017c0       0x14 ./../../../../../../Atmel_lib/BitCloud_SAM3S_EK_1_14_0/BitCloud/lib/libHAL_deRFusb23e06_At91sam3s4c_64Mhz_Gcc.a(halMacIsr.o)
                0x004017c0                HAL_InitMacIsr
 .text.HAL_StartRtimer
                0x004017d4       0x54 ./../../../../../../Atmel_lib/BitCloud_SAM3S_EK_1_14_0/BitCloud/lib/libHAL_deRFusb23e06_At91sam3s4c_64Mhz_Gcc.a(halMacIsr.o)
                0x004017d4                HAL_StartRtimer
 .text.HAL_StopRtimer
                0x00401828       0x18 ./../../../../../../Atmel_lib/BitCloud_SAM3S_EK_1_14_0/BitCloud/lib/libHAL_deRFusb23e06_At91sam3s4c_64Mhz_Gcc.a(halMacIsr.o)
                0x00401828                HAL_StopRtimer
 .text.halMacTimerHandler
                0x00401840       0x50 ./../../../../../../Atmel_lib/BitCloud_SAM3S_EK_1_14_0/BitCloud/lib/libHAL_deRFusb23e06_At91sam3s4c_64Mhz_Gcc.a(halMacIsr.o)
                0x00401840                halMacTimerHandler
 .text.halAppTimerHandler
                0x00401890       0x40 ./../../../../../../Atmel_lib/BitCloud_SAM3S_EK_1_14_0/BitCloud/lib/libHAL_deRFusb23e06_At91sam3s4c_64Mhz_Gcc.a(appTimer.o)
                0x00401890                halAppTimerHandler
 .text.HAL_StartAppTimer
                0x004018d0       0x3c ./../../../../../../Atmel_lib/BitCloud_SAM3S_EK_1_14_0/BitCloud/lib/libHAL_deRFusb23e06_At91sam3s4c_64Mhz_Gcc.a(appTimer.o)
                0x004018d0                HAL_StartAppTimer
 .text.HAL_StopAppTimer
                0x0040190c       0x34 ./../../../../../../Atmel_lib/BitCloud_SAM3S_EK_1_14_0/BitCloud/lib/libHAL_deRFusb23e06_At91sam3s4c_64Mhz_Gcc.a(appTimer.o)
                0x0040190c                HAL_StopAppTimer
 .text.HAL_GetSystemTime
                0x00401940       0x18 ./../../../../../../Atmel_lib/BitCloud_SAM3S_EK_1_14_0/BitCloud/lib/libHAL_deRFusb23e06_At91sam3s4c_64Mhz_Gcc.a(appTimer.o)
                0x00401940                HAL_GetSystemTime
 .text.HAL_TaskHandler
                0x00401958      0x1e0 ./../../../../../../Atmel_lib/BitCloud_SAM3S_EK_1_14_0/BitCloud/lib/libHAL_deRFusb23e06_At91sam3s4c_64Mhz_Gcc.a(halTaskManager.o)
                0x00401958                HAL_TaskHandler
 .text.HAL_StartSystemSleep
                0x00401b38       0x5c ./../../../../../../Atmel_lib/BitCloud_SAM3S_EK_1_14_0/BitCloud/lib/libHAL_deRFusb23e06_At91sam3s4c_64Mhz_Gcc.a(sleep.o)
                0x00401b38                HAL_StartSystemSleep
 .text.halAddTimer
                0x00401b94       0x76 ./../../../../../../Atmel_lib/BitCloud_SAM3S_EK_1_14_0/BitCloud/lib/libHAL_deRFusb23e06_At91sam3s4c_64Mhz_Gcc.a(timer.o)
                0x00401b94                halAddTimer
 .text.halRemoveTimer
                0x00401c0a       0x1c ./../../../../../../Atmel_lib/BitCloud_SAM3S_EK_1_14_0/BitCloud/lib/libHAL_deRFusb23e06_At91sam3s4c_64Mhz_Gcc.a(timer.o)
                0x00401c0a                halRemoveTimer
 .text.halFindPrevTimer
                0x00401c26       0x12 ./../../../../../../Atmel_lib/BitCloud_SAM3S_EK_1_14_0/BitCloud/lib/libHAL_deRFusb23e06_At91sam3s4c_64Mhz_Gcc.a(timer.o)
                0x00401c26                halFindPrevTimer
 .text.halSigUsartReceptionComplete
                0x00401c38       0x3c ./../../../../../../Atmel_lib/BitCloud_SAM3S_EK_1_14_0/BitCloud/lib/libHAL_deRFusb23e06_At91sam3s4c_64Mhz_Gcc.a(usart.o)
 .text.halUsartTaskUsart1Rxc
                0x00401c74       0x10 ./../../../../../../Atmel_lib/BitCloud_SAM3S_EK_1_14_0/BitCloud/lib/libHAL_deRFusb23e06_At91sam3s4c_64Mhz_Gcc.a(usart.o)
 .text.halUsartTaskUsart0Rxc
                0x00401c84       0x10 ./../../../../../../Atmel_lib/BitCloud_SAM3S_EK_1_14_0/BitCloud/lib/libHAL_deRFusb23e06_At91sam3s4c_64Mhz_Gcc.a(usart.o)
 .text.halUsartHwController
                0x00401c94       0xc4 ./../../../../../../Atmel_lib/BitCloud_SAM3S_EK_1_14_0/BitCloud/lib/libHAL_deRFusb23e06_At91sam3s4c_64Mhz_Gcc.a(usart.o)
 .text.hwControlPinsPollCallback
                0x00401d58       0x10 ./../../../../../../Atmel_lib/BitCloud_SAM3S_EK_1_14_0/BitCloud/lib/libHAL_deRFusb23e06_At91sam3s4c_64Mhz_Gcc.a(usart.o)
                0x00401d58                hwControlPinsPollCallback
 .text.halUsartTaskUsart1Dre
                0x00401d68       0x10 ./../../../../../../Atmel_lib/BitCloud_SAM3S_EK_1_14_0/BitCloud/lib/libHAL_deRFusb23e06_At91sam3s4c_64Mhz_Gcc.a(usart.o)
 .text.halUsartTaskUsart0Dre
                0x00401d78       0x10 ./../../../../../../Atmel_lib/BitCloud_SAM3S_EK_1_14_0/BitCloud/lib/libHAL_deRFusb23e06_At91sam3s4c_64Mhz_Gcc.a(usart.o)
 .text.halSigUsartHandler
                0x00401d88       0x68 ./../../../../../../Atmel_lib/BitCloud_SAM3S_EK_1_14_0/BitCloud/lib/libHAL_deRFusb23e06_At91sam3s4c_64Mhz_Gcc.a(usart.o)
                0x00401d88                halSigUsartHandler
 .text.halPostUsartTask
                0x00401df0       0x44 ./../../../../../../Atmel_lib/BitCloud_SAM3S_EK_1_14_0/BitCloud/lib/libHAL_deRFusb23e06_At91sam3s4c_64Mhz_Gcc.a(usart.o)
                0x00401df0                halPostUsartTask
 .text.halUsartRxBufferFiller
                0x00401e34       0xa4 ./../../../../../../Atmel_lib/BitCloud_SAM3S_EK_1_14_0/BitCloud/lib/libHAL_deRFusb23e06_At91sam3s4c_64Mhz_Gcc.a(usart.o)
                0x00401e34                halUsartRxBufferFiller
 .text.halSigUsartTransmissionComplete
                0x00401ed8       0x54 ./../../../../../../Atmel_lib/BitCloud_SAM3S_EK_1_14_0/BitCloud/lib/libHAL_deRFusb23e06_At91sam3s4c_64Mhz_Gcc.a(usart.o)
                0x00401ed8                halSigUsartTransmissionComplete
 .text.halUsartTaskUsart1Txc
                0x00401f2c       0x10 ./../../../../../../Atmel_lib/BitCloud_SAM3S_EK_1_14_0/BitCloud/lib/libHAL_deRFusb23e06_At91sam3s4c_64Mhz_Gcc.a(usart.o)
 .text.halUsartTaskUsart0Txc
                0x00401f3c       0x10 ./../../../../../../Atmel_lib/BitCloud_SAM3S_EK_1_14_0/BitCloud/lib/libHAL_deRFusb23e06_At91sam3s4c_64Mhz_Gcc.a(usart.o)
 .text.halUartStoreRx
                0x00401f4c       0x54 ./../../../../../../Atmel_lib/BitCloud_SAM3S_EK_1_14_0/BitCloud/lib/libHAL_deRFusb23e06_At91sam3s4c_64Mhz_Gcc.a(uart.o)
                0x00401f4c                halUartStoreRx
 .text.halUartTx
                0x00401fa0       0x58 ./../../../../../../Atmel_lib/BitCloud_SAM3S_EK_1_14_0/BitCloud/lib/libHAL_deRFusb23e06_At91sam3s4c_64Mhz_Gcc.a(uart.o)
                0x00401fa0                halUartTx
 .text.halSigUartTransmissionComplete
                0x00401ff8       0x30 ./../../../../../../Atmel_lib/BitCloud_SAM3S_EK_1_14_0/BitCloud/lib/libHAL_deRFusb23e06_At91sam3s4c_64Mhz_Gcc.a(uart.o)
                0x00401ff8                halSigUartTransmissionComplete
 .text.halSigUartReceptionComplete
                0x00402028       0x22 ./../../../../../../Atmel_lib/BitCloud_SAM3S_EK_1_14_0/BitCloud/lib/libHAL_deRFusb23e06_At91sam3s4c_64Mhz_Gcc.a(uart.o)
                0x00402028                halSigUartReceptionComplete
 *fill*         0x0040204a        0x2 00
 .text.HAL_ConfigureEndpoint
                0x0040204c       0x58 ./../../../../../../Atmel_lib/BitCloud_SAM3S_EK_1_14_0/BitCloud/lib/libHAL_deRFusb23e06_At91sam3s4c_64Mhz_Gcc.a(usb.o)
                0x0040204c                HAL_ConfigureEndpoint
 .text.halEndPointHandler
                0x004020a4       0x12 ./../../../../../../Atmel_lib/BitCloud_SAM3S_EK_1_14_0/BitCloud/lib/libHAL_deRFusb23e06_At91sam3s4c_64Mhz_Gcc.a(usb.o)
                0x004020a4                halEndPointHandler
 *fill*         0x004020b6        0x2 00
 .text.halSuspendHandler
                0x004020b8       0x10 ./../../../../../../Atmel_lib/BitCloud_SAM3S_EK_1_14_0/BitCloud/lib/libHAL_deRFusb23e06_At91sam3s4c_64Mhz_Gcc.a(usb.o)
                0x004020b8                halSuspendHandler
 .text.halResumeHandler
                0x004020c8       0x10 ./../../../../../../Atmel_lib/BitCloud_SAM3S_EK_1_14_0/BitCloud/lib/libHAL_deRFusb23e06_At91sam3s4c_64Mhz_Gcc.a(usb.o)
                0x004020c8                halResumeHandler
 .text.halBusResetHandler
                0x004020d8       0x14 ./../../../../../../Atmel_lib/BitCloud_SAM3S_EK_1_14_0/BitCloud/lib/libHAL_deRFusb23e06_At91sam3s4c_64Mhz_Gcc.a(usb.o)
                0x004020d8                halBusResetHandler
 .text.halSigEepromReadyHandler
                0x004020ec       0x14 ./../../../../../../Atmel_lib/BitCloud_SAM3S_EK_1_14_0/BitCloud/lib/libHAL_deRFusb23e06_At91sam3s4c_64Mhz_Gcc.a(eeprom.o)
                0x004020ec                halSigEepromReadyHandler
 .text.HAL_StartSleepTimer
                0x00402100       0x68 ./../../../../../../Atmel_lib/BitCloud_SAM3S_EK_1_14_0/BitCloud/lib/libHAL_deRFusb23e06_At91sam3s4c_64Mhz_Gcc.a(sleepTimer.o)
                0x00402100                HAL_StartSleepTimer
 .text.halAsyncTimerHandler
                0x00402168       0x3c ./../../../../../../Atmel_lib/BitCloud_SAM3S_EK_1_14_0/BitCloud/lib/libHAL_deRFusb23e06_At91sam3s4c_64Mhz_Gcc.a(sleepTimer.o)
                0x00402168                halAsyncTimerHandler
 .text.halSwitchToRcClock
                0x004021a4       0xc0 ./../../../../../../Atmel_lib/BitCloud_SAM3S_EK_1_14_0/BitCloud/lib/libHAL_deRFusb23e06_At91sam3s4c_64Mhz_Gcc.a(halLowLevelInit.o)
                0x004021a4                halSwitchToRcClock
 .text.halSwitchToActiveClock
                0x00402264       0xc8 ./../../../../../../Atmel_lib/BitCloud_SAM3S_EK_1_14_0/BitCloud/lib/libHAL_deRFusb23e06_At91sam3s4c_64Mhz_Gcc.a(halLowLevelInit.o)
                0x00402264                halSwitchToActiveClock
 .text.halRestoreStartupClock
                0x0040232c        0xc ./../../../../../../Atmel_lib/BitCloud_SAM3S_EK_1_14_0/BitCloud/lib/libHAL_deRFusb23e06_At91sam3s4c_64Mhz_Gcc.a(halLowLevelInit.o)
                0x0040232c                halRestoreStartupClock
 .text.halLowLevelInit
                0x00402338       0x2c ./../../../../../../Atmel_lib/BitCloud_SAM3S_EK_1_14_0/BitCloud/lib/libHAL_deRFusb23e06_At91sam3s4c_64Mhz_Gcc.a(halLowLevelInit.o)
                0x00402338                halLowLevelInit
 .text.halDbguPrintAscii
                0x00402364       0x20 ./../../../../../../Atmel_lib/BitCloud_SAM3S_EK_1_14_0/BitCloud/lib/libHAL_deRFusb23e06_At91sam3s4c_64Mhz_Gcc.a(halExcHandler.o)
 .text.halDbguPrintHex8
                0x00402384       0x40 ./../../../../../../Atmel_lib/BitCloud_SAM3S_EK_1_14_0/BitCloud/lib/libHAL_deRFusb23e06_At91sam3s4c_64Mhz_Gcc.a(halExcHandler.o)
 .text.halCommonExcHandler
                0x004023c4      0x20c ./../../../../../../Atmel_lib/BitCloud_SAM3S_EK_1_14_0/BitCloud/lib/libHAL_deRFusb23e06_At91sam3s4c_64Mhz_Gcc.a(halExcHandler.o)
                0x004023c4                halCommonExcHandler
 .text.phyDispatcheRfInterrupt
                0x004025d0      0x278 ./../../../../../../Atmel_lib/BitCloud_SAM3S_EK_1_14_0/BitCloud/lib/libBc_All_At91sam3s4c_Rf231_Gcc.a(phyRfIrqDispatcher.o)
                0x004025d0                phyDispatcheRfInterrupt
 .text.phySetRTimerSource
                0x00402848       0x10 ./../../../../../../Atmel_lib/BitCloud_SAM3S_EK_1_14_0/BitCloud/lib/libBc_All_At91sam3s4c_Rf231_Gcc.a(phyRtimerIrqDispatcher.o)
                0x00402848                phySetRTimerSource
 .text.phyDispatcheRTimerEvent
                0x00402858       0xf0 ./../../../../../../Atmel_lib/BitCloud_SAM3S_EK_1_14_0/BitCloud/lib/libBc_All_At91sam3s4c_Rf231_Gcc.a(phyRtimerIrqDispatcher.o)
                0x00402858                phyDispatcheRTimerEvent
 .text.phyRxTxSwitcher
                0x00402948       0x40 ./../../../../../../Atmel_lib/BitCloud_SAM3S_EK_1_14_0/BitCloud/lib/libBc_All_At91sam3s4c_Rf231_Gcc.a(phyRxTxIndicator.o)
                0x00402948                phyRxTxSwitcher
 .text.phyRxTxSwitcherOn
                0x00402988        0x6 ./../../../../../../Atmel_lib/BitCloud_SAM3S_EK_1_14_0/BitCloud/lib/libBc_All_At91sam3s4c_Rf231_Gcc.a(phyRxTxIndicator.o)
                0x00402988                phyRxTxSwitcherOn
 .text.phyRxTxSwitcherOff
                0x0040298e        0x6 ./../../../../../../Atmel_lib/BitCloud_SAM3S_EK_1_14_0/BitCloud/lib/libBc_All_At91sam3s4c_Rf231_Gcc.a(phyRxTxIndicator.o)
                0x0040298e                phyRxTxSwitcherOff
 .text.SYS_RunTask
                0x00402994       0x54 ./../../../../../../Atmel_lib/BitCloud_SAM3S_EK_1_14_0/BitCloud/lib/libBc_All_At91sam3s4c_Rf231_Gcc.a(taskManager.o)
                0x00402994                SYS_RunTask
 .text.SYS_SysInit
                0x004029e8       0x28 ./../../../../../../Atmel_lib/BitCloud_SAM3S_EK_1_14_0/BitCloud/lib/libBc_All_At91sam3s4c_Rf231_Gcc.a(taskManager.o)
                0x004029e8                SYS_SysInit
 .text.APS_StopConf
                0x00402a10       0x18 ./../../../../../../Atmel_lib/BitCloud_SAM3S_EK_1_14_0/BitCloud/lib/libBc_All_At91sam3s4c_Rf231_Gcc.a(zdo.o)
 .text.zdoNodeManagerNwkLeaveConf
                0x00402a28       0x10 ./../../../../../../Atmel_lib/BitCloud_SAM3S_EK_1_14_0/BitCloud/lib/libBc_All_At91sam3s4c_Rf231_Gcc.a(zdo.o)
 .text.zdoStackResetConf
                0x00402a38       0x1c ./../../../../../../Atmel_lib/BitCloud_SAM3S_EK_1_14_0/BitCloud/lib/libBc_All_At91sam3s4c_Rf231_Gcc.a(zdo.o)
 .text.zdoSecurityManagerHandler
                0x00402a54        0x2 ./../../../../../../Atmel_lib/BitCloud_SAM3S_EK_1_14_0/BitCloud/lib/libBc_All_At91sam3s4c_Rf231_Gcc.a(zdo.o)
                0x00402a54                zdoSecurityManagerHandler
 *fill*         0x00402a56        0x2 00
 .text.joinNetwork
                0x00402a58       0x40 ./../../../../../../Atmel_lib/BitCloud_SAM3S_EK_1_14_0/BitCloud/lib/libBc_All_At91sam3s4c_Rf231_Gcc.a(zdo.o)
 .text.zdoRejoinNetwork
                0x00402a98       0x28 ./../../../../../../Atmel_lib/BitCloud_SAM3S_EK_1_14_0/BitCloud/lib/libBc_All_At91sam3s4c_Rf231_Gcc.a(zdo.o)
 .text.zdoIntraPanPortApsStopConf
                0x00402ac0       0x20 ./../../../../../../Atmel_lib/BitCloud_SAM3S_EK_1_14_0/BitCloud/lib/libBc_All_At91sam3s4c_Rf231_Gcc.a(zdo.o)
 .text.joinTimerFired
                0x00402ae0        0x4 ./../../../../../../Atmel_lib/BitCloud_SAM3S_EK_1_14_0/BitCloud/lib/libBc_All_At91sam3s4c_Rf231_Gcc.a(zdo.o)
 .text.zdoPostTask
                0x00402ae4       0x34 ./../../../../../../Atmel_lib/BitCloud_SAM3S_EK_1_14_0/BitCloud/lib/libBc_All_At91sam3s4c_Rf231_Gcc.a(zdo.o)
 .text.startConfirm
                0x00402b18       0x30 ./../../../../../../Atmel_lib/BitCloud_SAM3S_EK_1_14_0/BitCloud/lib/libBc_All_At91sam3s4c_Rf231_Gcc.a(zdo.o)
 .text.sleepConfirm
                0x00402b48       0x24 ./../../../../../../Atmel_lib/BitCloud_SAM3S_EK_1_14_0/BitCloud/lib/libBc_All_At91sam3s4c_Rf231_Gcc.a(zdo.o)
 .text.wakeUpConfirm
                0x00402b6c       0x24 ./../../../../../../Atmel_lib/BitCloud_SAM3S_EK_1_14_0/BitCloud/lib/libBc_All_At91sam3s4c_Rf231_Gcc.a(zdo.o)
 .text.zdoSetZdpIndState
                0x00402b90       0x14 ./../../../../../../Atmel_lib/BitCloud_SAM3S_EK_1_14_0/BitCloud/lib/libBc_All_At91sam3s4c_Rf231_Gcc.a(zdo.o)
 .text.ttlUpdateTimerFired
                0x00402ba4       0x48 ./../../../../../../Atmel_lib/BitCloud_SAM3S_EK_1_14_0/BitCloud/lib/libBc_All_At91sam3s4c_Rf231_Gcc.a(zdo.o)
 .text.zdoZdpResetReq
                0x00402bec       0x74 ./../../../../../../Atmel_lib/BitCloud_SAM3S_EK_1_14_0/BitCloud/lib/libBc_All_At91sam3s4c_Rf231_Gcc.a(zdo.o)
 .text.zdoNetworkFormationReq
                0x00402c60       0x2c ./../../../../../../Atmel_lib/BitCloud_SAM3S_EK_1_14_0/BitCloud/lib/libBc_All_At91sam3s4c_Rf231_Gcc.a(zdo.o)
 .text.permitJoin
                0x00402c8c       0x24 ./../../../../../../Atmel_lib/BitCloud_SAM3S_EK_1_14_0/BitCloud/lib/libBc_All_At91sam3s4c_Rf231_Gcc.a(zdo.o)
 .text.zdoPseudoRandomSeed
                0x00402cb0       0x22 ./../../../../../../Atmel_lib/BitCloud_SAM3S_EK_1_14_0/BitCloud/lib/libBc_All_At91sam3s4c_Rf231_Gcc.a(zdo.o)
 *fill*         0x00402cd2        0x2 00
 .text.RF_RandomConfUpdater
                0x00402cd4       0x1c ./../../../../../../Atmel_lib/BitCloud_SAM3S_EK_1_14_0/BitCloud/lib/libBc_All_At91sam3s4c_Rf231_Gcc.a(zdo.o)
 .text.zdoStackReset
                0x00402cf0       0x28 ./../../../../../../Atmel_lib/BitCloud_SAM3S_EK_1_14_0/BitCloud/lib/libBc_All_At91sam3s4c_Rf231_Gcc.a(zdo.o)
 .text.startSystemSleep
                0x00402d18       0x38 ./../../../../../../Atmel_lib/BitCloud_SAM3S_EK_1_14_0/BitCloud/lib/libBc_All_At91sam3s4c_Rf231_Gcc.a(zdo.o)
 .text.transceiverSwitchedOff
                0x00402d50       0x1a ./../../../../../../Atmel_lib/BitCloud_SAM3S_EK_1_14_0/BitCloud/lib/libBc_All_At91sam3s4c_Rf231_Gcc.a(zdo.o)
 *fill*         0x00402d6a        0x2 00
 .text.zdoZdpManagerHandler
                0x00402d6c      0x140 ./../../../../../../Atmel_lib/BitCloud_SAM3S_EK_1_14_0/BitCloud/lib/libBc_All_At91sam3s4c_Rf231_Gcc.a(zdo.o)
 .text.zdoNwkEventListener
                0x00402eac       0x5c ./../../../../../../Atmel_lib/BitCloud_SAM3S_EK_1_14_0/BitCloud/lib/libBc_All_At91sam3s4c_Rf231_Gcc.a(zdo.o)
 .text.zdoOtherEventListener
                0x00402f08       0x2e ./../../../../../../Atmel_lib/BitCloud_SAM3S_EK_1_14_0/BitCloud/lib/libBc_All_At91sam3s4c_Rf231_Gcc.a(zdo.o)
 *fill*         0x00402f36        0x2 00
 .text.channelChangeTimerFired
                0x00402f38       0x28 ./../../../../../../Atmel_lib/BitCloud_SAM3S_EK_1_14_0/BitCloud/lib/libBc_All_At91sam3s4c_Rf231_Gcc.a(zdo.o)
 .text.zdoChildEventListener
                0x00402f60       0x90 ./../../../../../../Atmel_lib/BitCloud_SAM3S_EK_1_14_0/BitCloud/lib/libBc_All_At91sam3s4c_Rf231_Gcc.a(zdo.o)
 .text.zdoCheckStartNetworkRequestsQueue
                0x00402ff0       0x28 ./../../../../../../Atmel_lib/BitCloud_SAM3S_EK_1_14_0/BitCloud/lib/libBc_All_At91sam3s4c_Rf231_Gcc.a(zdo.o)
 .text.reenterNetwork
                0x00403018       0x34 ./../../../../../../Atmel_lib/BitCloud_SAM3S_EK_1_14_0/BitCloud/lib/libBc_All_At91sam3s4c_Rf231_Gcc.a(zdo.o)
 .text.zdoSetZdpDataReqState
                0x0040304c       0x28 ./../../../../../../Atmel_lib/BitCloud_SAM3S_EK_1_14_0/BitCloud/lib/libBc_All_At91sam3s4c_Rf231_Gcc.a(zdo.o)
 .text.confirmResponse
                0x00403074        0x6 ./../../../../../../Atmel_lib/BitCloud_SAM3S_EK_1_14_0/BitCloud/lib/libBc_All_At91sam3s4c_Rf231_Gcc.a(zdo.o)
 .text.zdoDefaultBindApsDataConf
                0x0040307a        0x6 ./../../../../../../Atmel_lib/BitCloud_SAM3S_EK_1_14_0/BitCloud/lib/libBc_All_At91sam3s4c_Rf231_Gcc.a(zdo.o)
 .text.confirmMgmtLqiResponse
                0x00403080        0x6 ./../../../../../../Atmel_lib/BitCloud_SAM3S_EK_1_14_0/BitCloud/lib/libBc_All_At91sam3s4c_Rf231_Gcc.a(zdo.o)
 *fill*         0x00403086        0x2 00
 .text.permitJoiningConf
                0x00403088       0x20 ./../../../../../../Atmel_lib/BitCloud_SAM3S_EK_1_14_0/BitCloud/lib/libBc_All_At91sam3s4c_Rf231_Gcc.a(zdo.o)
 .text.confirmMgmtPermitJoiningResponse
                0x004030a8        0x6 ./../../../../../../Atmel_lib/BitCloud_SAM3S_EK_1_14_0/BitCloud/lib/libBc_All_At91sam3s4c_Rf231_Gcc.a(zdo.o)
 *fill*         0x004030ae        0x2 00
 .text.zdoZdpApsConfCallback
                0x004030b0       0x60 ./../../../../../../Atmel_lib/BitCloud_SAM3S_EK_1_14_0/BitCloud/lib/libBc_All_At91sam3s4c_Rf231_Gcc.a(zdo.o)
 .text.zdoStartNetworkConfirm
                0x00403110       0x24 ./../../../../../../Atmel_lib/BitCloud_SAM3S_EK_1_14_0/BitCloud/lib/libBc_All_At91sam3s4c_Rf231_Gcc.a(zdo.o)
 .text.startSyncTimer.part.4
                0x00403134       0x38 ./../../../../../../Atmel_lib/BitCloud_SAM3S_EK_1_14_0/BitCloud/lib/libBc_All_At91sam3s4c_Rf231_Gcc.a(zdo.o)
 .text.zdoUpdateRandSeedTimerFired
                0x0040316c       0x38 ./../../../../../../Atmel_lib/BitCloud_SAM3S_EK_1_14_0/BitCloud/lib/libBc_All_At91sam3s4c_Rf231_Gcc.a(zdo.o)
 .text.sendSyncReq
                0x004031a4       0x34 ./../../../../../../Atmel_lib/BitCloud_SAM3S_EK_1_14_0/BitCloud/lib/libBc_All_At91sam3s4c_Rf231_Gcc.a(zdo.o)
 .text.transceiverSwitchedOn
                0x004031d8       0x40 ./../../../../../../Atmel_lib/BitCloud_SAM3S_EK_1_14_0/BitCloud/lib/libBc_All_At91sam3s4c_Rf231_Gcc.a(zdo.o)
 .text.wakeupCallback
                0x00403218       0x48 ./../../../../../../Atmel_lib/BitCloud_SAM3S_EK_1_14_0/BitCloud/lib/libBc_All_At91sam3s4c_Rf231_Gcc.a(zdo.o)
 .text.zdoPowerManagerHandler
                0x00403260       0xec ./../../../../../../Atmel_lib/BitCloud_SAM3S_EK_1_14_0/BitCloud/lib/libBc_All_At91sam3s4c_Rf231_Gcc.a(zdo.o)
 .text.confirmMgmtNwkUpdateNotify
                0x0040334c       0x3c ./../../../../../../Atmel_lib/BitCloud_SAM3S_EK_1_14_0/BitCloud/lib/libBc_All_At91sam3s4c_Rf231_Gcc.a(zdo.o)
 .text.MAC_SetConf
                0x00403388       0x78 ./../../../../../../Atmel_lib/BitCloud_SAM3S_EK_1_14_0/BitCloud/lib/libBc_All_At91sam3s4c_Rf231_Gcc.a(zdo.o)
 .text.zdoInitNotifications
                0x00403400       0x6c ./../../../../../../Atmel_lib/BitCloud_SAM3S_EK_1_14_0/BitCloud/lib/libBc_All_At91sam3s4c_Rf231_Gcc.a(zdo.o)
                0x00403400                zdoInitNotifications
 .text.zdoInitHandler
                0x0040346c       0xc4 ./../../../../../../Atmel_lib/BitCloud_SAM3S_EK_1_14_0/BitCloud/lib/libBc_All_At91sam3s4c_Rf231_Gcc.a(zdo.o)
 .text.NWK_JoinInd
                0x00403530       0x32 ./../../../../../../Atmel_lib/BitCloud_SAM3S_EK_1_14_0/BitCloud/lib/libBc_All_At91sam3s4c_Rf231_Gcc.a(zdo.o)
                0x00403530                NWK_JoinInd
 *fill*         0x00403562        0x2 00
 .text.ZDO_StartSyncReq
                0x00403564       0x38 ./../../../../../../Atmel_lib/BitCloud_SAM3S_EK_1_14_0/BitCloud/lib/libBc_All_At91sam3s4c_Rf231_Gcc.a(zdo.o)
                0x00403564                ZDO_StartSyncReq
 .text.deviceAnnceConf
                0x0040359c       0x24 ./../../../../../../Atmel_lib/BitCloud_SAM3S_EK_1_14_0/BitCloud/lib/libBc_All_At91sam3s4c_Rf231_Gcc.a(zdo.o)
 .text.ZDO_StopSyncReq
                0x004035c0       0x24 ./../../../../../../Atmel_lib/BitCloud_SAM3S_EK_1_14_0/BitCloud/lib/libBc_All_At91sam3s4c_Rf231_Gcc.a(zdo.o)
                0x004035c0                ZDO_StopSyncReq
 .text.zdoLeaveNetworkReq.part.13
                0x004035e4       0x4c ./../../../../../../Atmel_lib/BitCloud_SAM3S_EK_1_14_0/BitCloud/lib/libBc_All_At91sam3s4c_Rf231_Gcc.a(zdo.o)
 .text.zdoParentChangeConf
                0x00403630       0x48 ./../../../../../../Atmel_lib/BitCloud_SAM3S_EK_1_14_0/BitCloud/lib/libBc_All_At91sam3s4c_Rf231_Gcc.a(zdo.o)
 .text.confirmMgmtLeaveResponse
                0x00403678       0x8c ./../../../../../../Atmel_lib/BitCloud_SAM3S_EK_1_14_0/BitCloud/lib/libBc_All_At91sam3s4c_Rf231_Gcc.a(zdo.o)
 .text.leaveNetworkInd
                0x00403704       0x3c ./../../../../../../Atmel_lib/BitCloud_SAM3S_EK_1_14_0/BitCloud/lib/libBc_All_At91sam3s4c_Rf231_Gcc.a(zdo.o)
 .text.zdoLeaveNetworkNwkLeaveConf
                0x00403740       0x14 ./../../../../../../Atmel_lib/BitCloud_SAM3S_EK_1_14_0/BitCloud/lib/libBc_All_At91sam3s4c_Rf231_Gcc.a(zdo.o)
 .text.NWK_LeaveInd
                0x00403754       0x58 ./../../../../../../Atmel_lib/BitCloud_SAM3S_EK_1_14_0/BitCloud/lib/libBc_All_At91sam3s4c_Rf231_Gcc.a(zdo.o)
                0x00403754                NWK_LeaveInd
 .text.zdoReset
                0x004037ac       0x40 ./../../../../../../Atmel_lib/BitCloud_SAM3S_EK_1_14_0/BitCloud/lib/libBc_All_At91sam3s4c_Rf231_Gcc.a(zdo.o)
 .text.zdoLeaveConfirm
                0x004037ec       0xa0 ./../../../../../../Atmel_lib/BitCloud_SAM3S_EK_1_14_0/BitCloud/lib/libBc_All_At91sam3s4c_Rf231_Gcc.a(zdo.o)
 .text.ZDO_TaskHandler
                0x0040388c       0x54 ./../../../../../../Atmel_lib/BitCloud_SAM3S_EK_1_14_0/BitCloud/lib/libBc_All_At91sam3s4c_Rf231_Gcc.a(zdo.o)
                0x0040388c                ZDO_TaskHandler
 .text.APS_ZdoDataInd
                0x004038e0       0xd4 ./../../../../../../Atmel_lib/BitCloud_SAM3S_EK_1_14_0/BitCloud/lib/libBc_All_At91sam3s4c_Rf231_Gcc.a(zdo.o)
                0x004038e0                APS_ZdoDataInd
 .text.ZDO_ZdpReq
                0x004039b4       0x38 ./../../../../../../Atmel_lib/BitCloud_SAM3S_EK_1_14_0/BitCloud/lib/libBc_All_At91sam3s4c_Rf231_Gcc.a(zdo.o)
                0x004039b4                ZDO_ZdpReq
 .text.zdoSendDeviceAnnce
                0x004039ec       0xa0 ./../../../../../../Atmel_lib/BitCloud_SAM3S_EK_1_14_0/BitCloud/lib/libBc_All_At91sam3s4c_Rf231_Gcc.a(zdo.o)
 .text.APS_StartConf
                0x00403a8c       0x4c ./../../../../../../Atmel_lib/BitCloud_SAM3S_EK_1_14_0/BitCloud/lib/libBc_All_At91sam3s4c_Rf231_Gcc.a(zdo.o)
 .text.startAps
                0x00403ad8       0x30 ./../../../../../../Atmel_lib/BitCloud_SAM3S_EK_1_14_0/BitCloud/lib/libBc_All_At91sam3s4c_Rf231_Gcc.a(zdo.o)
 .text.NWK_StartRouterConf
                0x00403b08        0xc ./../../../../../../Atmel_lib/BitCloud_SAM3S_EK_1_14_0/BitCloud/lib/libBc_All_At91sam3s4c_Rf231_Gcc.a(zdo.o)
 .text.NWK_PermitJoinConf
                0x00403b14       0x5c ./../../../../../../Atmel_lib/BitCloud_SAM3S_EK_1_14_0/BitCloud/lib/libBc_All_At91sam3s4c_Rf231_Gcc.a(zdo.o)
 .text.zdoAuthenticationConf
                0x00403b70       0x28 ./../../../../../../Atmel_lib/BitCloud_SAM3S_EK_1_14_0/BitCloud/lib/libBc_All_At91sam3s4c_Rf231_Gcc.a(zdo.o)
                0x00403b70                zdoAuthenticationConf
 .text.zdoAuthenticationStart
                0x00403b98        0x6 ./../../../../../../Atmel_lib/BitCloud_SAM3S_EK_1_14_0/BitCloud/lib/libBc_All_At91sam3s4c_Rf231_Gcc.a(zdo.o)
                0x00403b98                zdoAuthenticationStart
 *fill*         0x00403b9e        0x2 00
 .text.zdoSendDeviceAnnceConf
                0x00403ba0       0x3c ./../../../../../../Atmel_lib/BitCloud_SAM3S_EK_1_14_0/BitCloud/lib/libBc_All_At91sam3s4c_Rf231_Gcc.a(zdo.o)
 .text.sendNwkUpdateNotify
                0x00403bdc       0x3c ./../../../../../../Atmel_lib/BitCloud_SAM3S_EK_1_14_0/BitCloud/lib/libBc_All_At91sam3s4c_Rf231_Gcc.a(zdo.o)
 .text.zdoZdpFrameProcessorHandler
                0x00403c18     0x10e0 ./../../../../../../Atmel_lib/BitCloud_SAM3S_EK_1_14_0/BitCloud/lib/libBc_All_At91sam3s4c_Rf231_Gcc.a(zdo.o)
 .text.edScanConf
                0x00404cf8       0x10 ./../../../../../../Atmel_lib/BitCloud_SAM3S_EK_1_14_0/BitCloud/lib/libBc_All_At91sam3s4c_Rf231_Gcc.a(zdo.o)
 .text.zdoReloadZibFromConfigServer
                0x00404d08      0x118 ./../../../../../../Atmel_lib/BitCloud_SAM3S_EK_1_14_0/BitCloud/lib/libBc_All_At91sam3s4c_Rf231_Gcc.a(zdo.o)
                0x00404d08                zdoReloadZibFromConfigServer
 .text.zdoStartNetworkTaskHandler
                0x00404e20       0xc4 ./../../../../../../Atmel_lib/BitCloud_SAM3S_EK_1_14_0/BitCloud/lib/libBc_All_At91sam3s4c_Rf231_Gcc.a(zdo.o)
 .text.setNetworkParametersToZib
                0x00404ee4       0x2c ./../../../../../../Atmel_lib/BitCloud_SAM3S_EK_1_14_0/BitCloud/lib/libBc_All_At91sam3s4c_Rf231_Gcc.a(zdo.o)
                0x00404ee4                setNetworkParametersToZib
 .text.NWK_JoinConf
                0x00404f10       0x50 ./../../../../../../Atmel_lib/BitCloud_SAM3S_EK_1_14_0/BitCloud/lib/libBc_All_At91sam3s4c_Rf231_Gcc.a(zdo.o)
 .text.NWK_NetworkFormationConf
                0x00404f60       0x1a ./../../../../../../Atmel_lib/BitCloud_SAM3S_EK_1_14_0/BitCloud/lib/libBc_All_At91sam3s4c_Rf231_Gcc.a(zdo.o)
 *fill*         0x00404f7a        0x2 00
 .text.zdoStartNetworkStackResetConf
                0x00404f7c       0x7c ./../../../../../../Atmel_lib/BitCloud_SAM3S_EK_1_14_0/BitCloud/lib/libBc_All_At91sam3s4c_Rf231_Gcc.a(zdo.o)
 .text.zdoPerformIntraPanPortability
                0x00404ff8       0x40 ./../../../../../../Atmel_lib/BitCloud_SAM3S_EK_1_14_0/BitCloud/lib/libBc_All_At91sam3s4c_Rf231_Gcc.a(zdo.o)
                0x00404ff8                zdoPerformIntraPanPortability
 .text.NWK_SyncConf
                0x00405038       0x64 ./../../../../../../Atmel_lib/BitCloud_SAM3S_EK_1_14_0/BitCloud/lib/libBc_All_At91sam3s4c_Rf231_Gcc.a(zdo.o)
 .text.NWK_NwkStatusInd
                0x0040509c       0xa8 ./../../../../../../Atmel_lib/BitCloud_SAM3S_EK_1_14_0/BitCloud/lib/libBc_All_At91sam3s4c_Rf231_Gcc.a(zdo.o)
                0x0040509c                NWK_NwkStatusInd
 .text.apsNextBind
                0x00405144       0x6c ./../../../../../../Atmel_lib/BitCloud_SAM3S_EK_1_14_0/BitCloud/lib/libBc_All_At91sam3s4c_Rf231_Gcc.a(aps.o)
 .text.apsPrepareFragmentedTransmission
                0x004051b0       0x6c ./../../../../../../Atmel_lib/BitCloud_SAM3S_EK_1_14_0/BitCloud/lib/libBc_All_At91sam3s4c_Rf231_Gcc.a(aps.o)
 .text.apsIsFragmentationDataReq
                0x0040521c       0x1c ./../../../../../../Atmel_lib/BitCloud_SAM3S_EK_1_14_0/BitCloud/lib/libBc_All_At91sam3s4c_Rf231_Gcc.a(aps.o)
 .text.apsGetBuffer
                0x00405238       0xb8 ./../../../../../../Atmel_lib/BitCloud_SAM3S_EK_1_14_0/BitCloud/lib/libBc_All_At91sam3s4c_Rf231_Gcc.a(aps.o)
 .text.apsFreeBuffer
                0x004052f0       0x64 ./../../../../../../Atmel_lib/BitCloud_SAM3S_EK_1_14_0/BitCloud/lib/libBc_All_At91sam3s4c_Rf231_Gcc.a(aps.o)
 .text.apsSendNwkDataReq
                0x00405354       0x10 ./../../../../../../Atmel_lib/BitCloud_SAM3S_EK_1_14_0/BitCloud/lib/libBc_All_At91sam3s4c_Rf231_Gcc.a(aps.o)
 .text.apsProcessShortAddrModeDataReq
                0x00405364      0x1ac ./../../../../../../Atmel_lib/BitCloud_SAM3S_EK_1_14_0/BitCloud/lib/libBc_All_At91sam3s4c_Rf231_Gcc.a(aps.o)
 .text.apsSendNextBlock
                0x00405510       0x10 ./../../../../../../Atmel_lib/BitCloud_SAM3S_EK_1_14_0/BitCloud/lib/libBc_All_At91sam3s4c_Rf231_Gcc.a(aps.o)
 .text.apsSendAckForFragmentedReceive
                0x00405520       0xb0 ./../../../../../../Atmel_lib/BitCloud_SAM3S_EK_1_14_0/BitCloud/lib/libBc_All_At91sam3s4c_Rf231_Gcc.a(aps.o)
 .text.apsProcessGroupAddrModeDataReq
                0x004055d0      0x150 ./../../../../../../Atmel_lib/BitCloud_SAM3S_EK_1_14_0/BitCloud/lib/libBc_All_At91sam3s4c_Rf231_Gcc.a(aps.o)
 .text.apsSendToNextBoundDevice
                0x00405720       0x72 ./../../../../../../Atmel_lib/BitCloud_SAM3S_EK_1_14_0/BitCloud/lib/libBc_All_At91sam3s4c_Rf231_Gcc.a(aps.o)
 .text.apsProcessIndirectDataReq
                0x00405792       0x1c ./../../../../../../Atmel_lib/BitCloud_SAM3S_EK_1_14_0/BitCloud/lib/libBc_All_At91sam3s4c_Rf231_Gcc.a(aps.o)
 *fill*         0x004057ae        0x2 00
 .text.apsCalculateApsAckTimeout
                0x004057b0       0x1c ./../../../../../../Atmel_lib/BitCloud_SAM3S_EK_1_14_0/BitCloud/lib/libBc_All_At91sam3s4c_Rf231_Gcc.a(aps.o)
 .text.SYS_GetRandomNumber
                0x004057cc       0x18 ./../../../../../../Atmel_lib/BitCloud_SAM3S_EK_1_14_0/BitCloud/lib/libBc_All_At91sam3s4c_Rf231_Gcc.a(aps.o)
 .text.apsResetMemoryManager
                0x004057e4       0xc8 ./../../../../../../Atmel_lib/BitCloud_SAM3S_EK_1_14_0/BitCloud/lib/libBc_All_At91sam3s4c_Rf231_Gcc.a(aps.o)
 .text.apsPostTask
                0x004058ac       0x34 ./../../../../../../Atmel_lib/BitCloud_SAM3S_EK_1_14_0/BitCloud/lib/libBc_All_At91sam3s4c_Rf231_Gcc.a(aps.o)
 .text.apsDataManagerNwkDataConf
                0x004058e0       0x20 ./../../../../../../Atmel_lib/BitCloud_SAM3S_EK_1_14_0/BitCloud/lib/libBc_All_At91sam3s4c_Rf231_Gcc.a(aps.o)
 .text.apsGroupNwkDataConf
                0x00405900       0x38 ./../../../../../../Atmel_lib/BitCloud_SAM3S_EK_1_14_0/BitCloud/lib/libBc_All_At91sam3s4c_Rf231_Gcc.a(aps.o)
 .text.apsProcessEvent
                0x00405938       0x20 ./../../../../../../Atmel_lib/BitCloud_SAM3S_EK_1_14_0/BitCloud/lib/libBc_All_At91sam3s4c_Rf231_Gcc.a(aps.o)
 .text.apsAckOnTimerFired
                0x00405958       0xb4 ./../../../../../../Atmel_lib/BitCloud_SAM3S_EK_1_14_0/BitCloud/lib/libBc_All_At91sam3s4c_Rf231_Gcc.a(aps.o)
 .text.apsFindBindingEntry
                0x00405a0c       0x9c ./../../../../../../Atmel_lib/BitCloud_SAM3S_EK_1_14_0/BitCloud/lib/libBc_All_At91sam3s4c_Rf231_Gcc.a(aps.o)
 .text.apsMakeApsDataConf
                0x00405aa8       0x40 ./../../../../../../Atmel_lib/BitCloud_SAM3S_EK_1_14_0/BitCloud/lib/libBc_All_At91sam3s4c_Rf231_Gcc.a(aps.o)
 .text.apsAckForFragmentedReceiveConfirmHandler
                0x00405ae8       0x58 ./../../../../../../Atmel_lib/BitCloud_SAM3S_EK_1_14_0/BitCloud/lib/libBc_All_At91sam3s4c_Rf231_Gcc.a(aps.o)
 .text.apsHandleTransmittedData.constprop.12
                0x00405b40       0x50 ./../../../../../../Atmel_lib/BitCloud_SAM3S_EK_1_14_0/BitCloud/lib/libBc_All_At91sam3s4c_Rf231_Gcc.a(aps.o)
 .text.APS_BindReq
                0x00405b90       0x98 ./../../../../../../Atmel_lib/BitCloud_SAM3S_EK_1_14_0/BitCloud/lib/libBc_All_At91sam3s4c_Rf231_Gcc.a(aps.o)
                0x00405b90                APS_BindReq
 .text.APS_UnbindReq
                0x00405c28       0x4a ./../../../../../../Atmel_lib/BitCloud_SAM3S_EK_1_14_0/BitCloud/lib/libBc_All_At91sam3s4c_Rf231_Gcc.a(aps.o)
                0x00405c28                APS_UnbindReq
 *fill*         0x00405c72        0x2 00
 .text.APS_DataReq
                0x00405c74       0x18 ./../../../../../../Atmel_lib/BitCloud_SAM3S_EK_1_14_0/BitCloud/lib/libBc_All_At91sam3s4c_Rf231_Gcc.a(aps.o)
                0x00405c74                APS_DataReq
 .text.NWK_DataInd
                0x00405c8c       0x18 ./../../../../../../Atmel_lib/BitCloud_SAM3S_EK_1_14_0/BitCloud/lib/libBc_All_At91sam3s4c_Rf231_Gcc.a(aps.o)
                0x00405c8c                NWK_DataInd
 .text.APS_CalculateTimes
                0x00405ca4       0xe4 ./../../../../../../Atmel_lib/BitCloud_SAM3S_EK_1_14_0/BitCloud/lib/libBc_All_At91sam3s4c_Rf231_Gcc.a(aps.o)
                0x00405ca4                APS_CalculateTimes
 .text.apsResetDataManager
                0x00405d88       0xac ./../../../../../../Atmel_lib/BitCloud_SAM3S_EK_1_14_0/BitCloud/lib/libBc_All_At91sam3s4c_Rf231_Gcc.a(aps.o)
 .text.apsNwkResetConf
                0x00405e34      0x140 ./../../../../../../Atmel_lib/BitCloud_SAM3S_EK_1_14_0/BitCloud/lib/libBc_All_At91sam3s4c_Rf231_Gcc.a(aps.o)
 .text.apsStateMachineTaskHandler
                0x00405f74       0xcc ./../../../../../../Atmel_lib/BitCloud_SAM3S_EK_1_14_0/BitCloud/lib/libBc_All_At91sam3s4c_Rf231_Gcc.a(aps.o)
 .text.APS_IsProfileIdMatched
                0x00406040       0x1a ./../../../../../../Atmel_lib/BitCloud_SAM3S_EK_1_14_0/BitCloud/lib/libBc_All_At91sam3s4c_Rf231_Gcc.a(aps.o)
                0x00406040                APS_IsProfileIdMatched
 *fill*         0x0040605a        0x2 00
 .text.APS_NextEndpoint
                0x0040605c       0x10 ./../../../../../../Atmel_lib/BitCloud_SAM3S_EK_1_14_0/BitCloud/lib/libBc_All_At91sam3s4c_Rf231_Gcc.a(aps.o)
                0x0040605c                APS_NextEndpoint
 .text.apsFindEndpoint
                0x0040606c       0x1a ./../../../../../../Atmel_lib/BitCloud_SAM3S_EK_1_14_0/BitCloud/lib/libBc_All_At91sam3s4c_Rf231_Gcc.a(aps.o)
 .text.apsGroupIndication
                0x00406086       0x54 ./../../../../../../Atmel_lib/BitCloud_SAM3S_EK_1_14_0/BitCloud/lib/libBc_All_At91sam3s4c_Rf231_Gcc.a(aps.o)
 *fill*         0x004060da        0x2 00
 .text.apsUnicastDataInd
                0x004060dc      0x1e8 ./../../../../../../Atmel_lib/BitCloud_SAM3S_EK_1_14_0/BitCloud/lib/libBc_All_At91sam3s4c_Rf231_Gcc.a(aps.o)
 .text.apsApduUnicastHandler.constprop.10
                0x004062c4      0x46c ./../../../../../../Atmel_lib/BitCloud_SAM3S_EK_1_14_0/BitCloud/lib/libBc_All_At91sam3s4c_Rf231_Gcc.a(aps.o)
 .text.apsDataTaskHandler
                0x00406730      0x8e4 ./../../../../../../Atmel_lib/BitCloud_SAM3S_EK_1_14_0/BitCloud/lib/libBc_All_At91sam3s4c_Rf231_Gcc.a(aps.o)
 .text.APS_Init
                0x00407014       0x28 ./../../../../../../Atmel_lib/BitCloud_SAM3S_EK_1_14_0/BitCloud/lib/libBc_All_At91sam3s4c_Rf231_Gcc.a(aps.o)
                0x00407014                APS_Init
 .text.APS_ResetReq
                0x0040703c        0x8 ./../../../../../../Atmel_lib/BitCloud_SAM3S_EK_1_14_0/BitCloud/lib/libBc_All_At91sam3s4c_Rf231_Gcc.a(aps.o)
                0x0040703c                APS_ResetReq
 .text.APS_StartReq
                0x00407044        0x8 ./../../../../../../Atmel_lib/BitCloud_SAM3S_EK_1_14_0/BitCloud/lib/libBc_All_At91sam3s4c_Rf231_Gcc.a(aps.o)
                0x00407044                APS_StartReq
 .text.APS_StopReq
                0x0040704c        0x8 ./../../../../../../Atmel_lib/BitCloud_SAM3S_EK_1_14_0/BitCloud/lib/libBc_All_At91sam3s4c_Rf231_Gcc.a(aps.o)
                0x0040704c                APS_StopReq
 .text.APS_IsActiveTransaction
                0x00407054       0x54 ./../../../../../../Atmel_lib/BitCloud_SAM3S_EK_1_14_0/BitCloud/lib/libBc_All_At91sam3s4c_Rf231_Gcc.a(aps.o)
                0x00407054                APS_IsActiveTransaction
 .text.APS_TaskHandler
                0x004070a8       0x78 ./../../../../../../Atmel_lib/BitCloud_SAM3S_EK_1_14_0/BitCloud/lib/libBc_All_At91sam3s4c_Rf231_Gcc.a(aps.o)
                0x004070a8                APS_TaskHandler
 .text.SYS_Sleep
                0x00407120        0x4 ./../../../../../../Atmel_lib/BitCloud_SAM3S_EK_1_14_0/BitCloud/lib/libBc_All_At91sam3s4c_Rf231_Gcc.a(bcSysSleep.o)
                0x00407120                SYS_Sleep
 .text.SYS_GetRandomNumber
                0x00407124       0x18 ./../../../../../../Atmel_lib/BitCloud_SAM3S_EK_1_14_0/BitCloud/lib/libBc_All_At91sam3s4c_Rf231_Gcc.a(macenvPib.o)
 .text.getSymbolsPerOctet
                0x0040713c       0x40 ./../../../../../../Atmel_lib/BitCloud_SAM3S_EK_1_14_0/BitCloud/lib/libBc_All_At91sam3s4c_Rf231_Gcc.a(macenvPib.o)
 .text.calculateMaxFrameDuration
                0x0040717c       0x14 ./../../../../../../Atmel_lib/BitCloud_SAM3S_EK_1_14_0/BitCloud/lib/libBc_All_At91sam3s4c_Rf231_Gcc.a(macenvPib.o)
 .text.storeTransmitPower
                0x00407190       0x58 ./../../../../../../Atmel_lib/BitCloud_SAM3S_EK_1_14_0/BitCloud/lib/libBc_All_At91sam3s4c_Rf231_Gcc.a(macenvPib.o)
 .text.macenvGetPhySymbolDuration
                0x004071e8       0x54 ./../../../../../../Atmel_lib/BitCloud_SAM3S_EK_1_14_0/BitCloud/lib/libBc_All_At91sam3s4c_Rf231_Gcc.a(macenvPib.o)
                0x004071e8                macenvGetPhySymbolDuration
 .text.updateMaxFrameTxTime
                0x0040723c       0x24 ./../../../../../../Atmel_lib/BitCloud_SAM3S_EK_1_14_0/BitCloud/lib/libBc_All_At91sam3s4c_Rf231_Gcc.a(macenvPib.o)
 .text.macenvResetPib
                0x00407260       0xb4 ./../../../../../../Atmel_lib/BitCloud_SAM3S_EK_1_14_0/BitCloud/lib/libBc_All_At91sam3s4c_Rf231_Gcc.a(macenvPib.o)
                0x00407260                macenvResetPib
 .text.macenvConvertTransPersistTimeFromUnitsToMs
                0x00407314       0x1a ./../../../../../../Atmel_lib/BitCloud_SAM3S_EK_1_14_0/BitCloud/lib/libBc_All_At91sam3s4c_Rf231_Gcc.a(macenvPib.o)
                0x00407314                macenvConvertTransPersistTimeFromUnitsToMs
 *fill*         0x0040732e        0x2 00
 .text.macenvSetPibAttr
                0x00407330      0x1f4 ./../../../../../../Atmel_lib/BitCloud_SAM3S_EK_1_14_0/BitCloud/lib/libBc_All_At91sam3s4c_Rf231_Gcc.a(macenvPib.o)
                0x00407330                macenvSetPibAttr
 .text.macenvCalculateMaxFrameTotalWaitTimeInMs
                0x00407524       0x64 ./../../../../../../Atmel_lib/BitCloud_SAM3S_EK_1_14_0/BitCloud/lib/libBc_All_At91sam3s4c_Rf231_Gcc.a(macenvPib.o)
                0x00407524                macenvCalculateMaxFrameTotalWaitTimeInMs
 .text.macenvCalculateResponceWaitTimeInMs
                0x00407588       0x24 ./../../../../../../Atmel_lib/BitCloud_SAM3S_EK_1_14_0/BitCloud/lib/libBc_All_At91sam3s4c_Rf231_Gcc.a(macenvPib.o)
                0x00407588                macenvCalculateResponceWaitTimeInMs
 .text.macenvGetPibAttr
                0x004075ac      0x1c0 ./../../../../../../Atmel_lib/BitCloud_SAM3S_EK_1_14_0/BitCloud/lib/libBc_All_At91sam3s4c_Rf231_Gcc.a(macenvPib.o)
                0x004075ac                macenvGetPibAttr
 .text.MAC_GetExtAddr
                0x0040776c        0x8 ./../../../../../../Atmel_lib/BitCloud_SAM3S_EK_1_14_0/BitCloud/lib/libBc_All_At91sam3s4c_Rf231_Gcc.a(macenvPib.o)
                0x0040776c                MAC_GetExtAddr
 .text.MAC_SetExtAddr
                0x00407774       0x10 ./../../../../../../Atmel_lib/BitCloud_SAM3S_EK_1_14_0/BitCloud/lib/libBc_All_At91sam3s4c_Rf231_Gcc.a(macenvPib.o)
                0x00407774                MAC_SetExtAddr
 .text.MAC_IsOwnExtAddr
                0x00407784       0x20 ./../../../../../../Atmel_lib/BitCloud_SAM3S_EK_1_14_0/BitCloud/lib/libBc_All_At91sam3s4c_Rf231_Gcc.a(macenvPib.o)
                0x00407784                MAC_IsOwnExtAddr
 .text.MAC_GetOctetsTransmissionTimeInMs
                0x004077a4       0x1c ./../../../../../../Atmel_lib/BitCloud_SAM3S_EK_1_14_0/BitCloud/lib/libBc_All_At91sam3s4c_Rf231_Gcc.a(macenvPib.o)
                0x004077a4                MAC_GetOctetsTransmissionTimeInMs
 .text.postNewMacRequest
                0x004077c0       0x40 ./../../../../../../Atmel_lib/BitCloud_SAM3S_EK_1_14_0/BitCloud/lib/libBc_All_At91sam3s4c_Rf231_Gcc.a(machwdManager.o)
 .text.putReqInQueue
                0x00407800       0x20 ./../../../../../../Atmel_lib/BitCloud_SAM3S_EK_1_14_0/BitCloud/lib/libBc_All_At91sam3s4c_Rf231_Gcc.a(machwdManager.o)
 .text.MACHWD_DataReq
                0x00407820        0x8 ./../../../../../../Atmel_lib/BitCloud_SAM3S_EK_1_14_0/BitCloud/lib/libBc_All_At91sam3s4c_Rf231_Gcc.a(machwdManager.o)
                0x00407820                MACHWD_DataReq
 .text.MACHWD_SetTrxStateReq
                0x00407828        0x8 ./../../../../../../Atmel_lib/BitCloud_SAM3S_EK_1_14_0/BitCloud/lib/libBc_All_At91sam3s4c_Rf231_Gcc.a(machwdManager.o)
                0x00407828                MACHWD_SetTrxStateReq
 .text.MACHWD_SetReq
                0x00407830        0x8 ./../../../../../../Atmel_lib/BitCloud_SAM3S_EK_1_14_0/BitCloud/lib/libBc_All_At91sam3s4c_Rf231_Gcc.a(machwdManager.o)
                0x00407830                MACHWD_SetReq
 .text.MACHWD_EdReq
                0x00407838        0x8 ./../../../../../../Atmel_lib/BitCloud_SAM3S_EK_1_14_0/BitCloud/lib/libBc_All_At91sam3s4c_Rf231_Gcc.a(machwdManager.o)
                0x00407838                MACHWD_EdReq
 .text.RF_RandomReq
                0x00407840       0x10 ./../../../../../../Atmel_lib/BitCloud_SAM3S_EK_1_14_0/BitCloud/lib/libBc_All_At91sam3s4c_Rf231_Gcc.a(machwdManager.o)
                0x00407840                RF_RandomReq
 .text.MACHWD_Reset
                0x00407850       0x3c ./../../../../../../Atmel_lib/BitCloud_SAM3S_EK_1_14_0/BitCloud/lib/libBc_All_At91sam3s4c_Rf231_Gcc.a(machwdManager.o)
                0x00407850                MACHWD_Reset
 .text.MAC_PHY_HWD_TaskHandler
                0x0040788c       0xf8 ./../../../../../../Atmel_lib/BitCloud_SAM3S_EK_1_14_0/BitCloud/lib/libBc_All_At91sam3s4c_Rf231_Gcc.a(machwdManager.o)
                0x0040788c                MAC_PHY_HWD_TaskHandler
 .text.machwdSendConf2UpperLayer
                0x00407984       0x60 ./../../../../../../Atmel_lib/BitCloud_SAM3S_EK_1_14_0/BitCloud/lib/libBc_All_At91sam3s4c_Rf231_Gcc.a(machwdManager.o)
                0x00407984                machwdSendConf2UpperLayer
 .text.machwdSendDataInd2UpperLayer
                0x004079e4        0x4 ./../../../../../../Atmel_lib/BitCloud_SAM3S_EK_1_14_0/BitCloud/lib/libBc_All_At91sam3s4c_Rf231_Gcc.a(machwdManager.o)
                0x004079e4                machwdSendDataInd2UpperLayer
 .text.machwdRegAccessReqHandler
                0x004079e8       0x30 ./../../../../../../Atmel_lib/BitCloud_SAM3S_EK_1_14_0/BitCloud/lib/libBc_All_At91sam3s4c_Rf231_Gcc.a(machwdRegAccessHandler.o)
                0x004079e8                machwdRegAccessReqHandler
 .text.machwdReset
                0x00407a18       0x8c ./../../../../../../Atmel_lib/BitCloud_SAM3S_EK_1_14_0/BitCloud/lib/libBc_All_At91sam3s4c_Rf231_Gcc.a(machwdResetHandler.o)
                0x00407a18                machwdReset
 .text.machwdRndReqHandler
                0x00407aa4       0x12 ./../../../../../../Atmel_lib/BitCloud_SAM3S_EK_1_14_0/BitCloud/lib/libBc_All_At91sam3s4c_Rf231_Gcc.a(machwdRndHandler.o)
                0x00407aa4                machwdRndReqHandler
 *fill*         0x00407ab6        0x2 00
 .text.machwdResetRxBuffer
                0x00407ab8       0x40 ./../../../../../../Atmel_lib/BitCloud_SAM3S_EK_1_14_0/BitCloud/lib/libBc_All_At91sam3s4c_Rf231_Gcc.a(machwdRxBuffer.o)
                0x00407ab8                machwdResetRxBuffer
 .text.machwdNextBuffer
                0x00407af8       0x10 ./../../../../../../Atmel_lib/BitCloud_SAM3S_EK_1_14_0/BitCloud/lib/libBc_All_At91sam3s4c_Rf231_Gcc.a(machwdRxBuffer.o)
                0x00407af8                machwdNextBuffer
 .text.machwdReleaseBuffer
                0x00407b08       0x4c ./../../../../../../Atmel_lib/BitCloud_SAM3S_EK_1_14_0/BitCloud/lib/libBc_All_At91sam3s4c_Rf231_Gcc.a(machwdRxBuffer.o)
                0x00407b08                machwdReleaseBuffer
 .text.machwdNextBufferPresent
                0x00407b54       0x20 ./../../../../../../Atmel_lib/BitCloud_SAM3S_EK_1_14_0/BitCloud/lib/libBc_All_At91sam3s4c_Rf231_Gcc.a(machwdRxBuffer.o)
                0x00407b54                machwdNextBufferPresent
 .text.machwdRxFrameTaskHandler
                0x00407b74       0x38 ./../../../../../../Atmel_lib/BitCloud_SAM3S_EK_1_14_0/BitCloud/lib/libBc_All_At91sam3s4c_Rf231_Gcc.a(machwdRxFrameHandler.o)
                0x00407b74                machwdRxFrameTaskHandler
 .text.machwdRxFrameIndTaskHandler
                0x00407bac       0x90 ./../../../../../../Atmel_lib/BitCloud_SAM3S_EK_1_14_0/BitCloud/lib/libBc_All_At91sam3s4c_Rf231_Gcc.a(machwdRxFrameHandler.o)
                0x00407bac                machwdRxFrameIndTaskHandler
 .text.machwdSetReqHandler
                0x00407c3c       0x80 ./../../../../../../Atmel_lib/BitCloud_SAM3S_EK_1_14_0/BitCloud/lib/libBc_All_At91sam3s4c_Rf231_Gcc.a(machwdSetHandler.o)
                0x00407c3c                machwdSetReqHandler
 .text.machwdResetSetHandler
                0x00407cbc       0x10 ./../../../../../../Atmel_lib/BitCloud_SAM3S_EK_1_14_0/BitCloud/lib/libBc_All_At91sam3s4c_Rf231_Gcc.a(machwdSetHandler.o)
                0x00407cbc                machwdResetSetHandler
 .text.machwdGetPhyTrxCmd
                0x00407ccc       0x10 ./../../../../../../Atmel_lib/BitCloud_SAM3S_EK_1_14_0/BitCloud/lib/libBc_All_At91sam3s4c_Rf231_Gcc.a(machwdTrxCtrl.o)
                0x00407ccc                machwdGetPhyTrxCmd
 .text.machwdConvertTrxCmdToTrxState
                0x00407cdc       0x14 ./../../../../../../Atmel_lib/BitCloud_SAM3S_EK_1_14_0/BitCloud/lib/libBc_All_At91sam3s4c_Rf231_Gcc.a(machwdTrxCtrl.o)
                0x00407cdc                machwdConvertTrxCmdToTrxState
 .text.machwdConvertTrxStateToTrxCmd
                0x00407cf0       0x18 ./../../../../../../Atmel_lib/BitCloud_SAM3S_EK_1_14_0/BitCloud/lib/libBc_All_At91sam3s4c_Rf231_Gcc.a(machwdTrxCtrl.o)
                0x00407cf0                machwdConvertTrxStateToTrxCmd
 .text.machwdTrxReqHandler
                0x00407d08       0x30 ./../../../../../../Atmel_lib/BitCloud_SAM3S_EK_1_14_0/BitCloud/lib/libBc_All_At91sam3s4c_Rf231_Gcc.a(machwdTrxHandler.o)
                0x00407d08                machwdTrxReqHandler
 .text.executePhyDataReq
                0x00407d38       0x22 ./../../../../../../Atmel_lib/BitCloud_SAM3S_EK_1_14_0/BitCloud/lib/libBc_All_At91sam3s4c_Rf231_Gcc.a(machwdTxFrameHandler.o)
 *fill*         0x00407d5a        0x2 00
 .text.machwdTxFrameReqHandler
                0x00407d5c       0x2c ./../../../../../../Atmel_lib/BitCloud_SAM3S_EK_1_14_0/BitCloud/lib/libBc_All_At91sam3s4c_Rf231_Gcc.a(machwdTxFrameHandler.o)
                0x00407d5c                machwdTxFrameReqHandler
 .text.machwdTxFrameTaskHandler
                0x00407d88       0x28 ./../../../../../../Atmel_lib/BitCloud_SAM3S_EK_1_14_0/BitCloud/lib/libBc_All_At91sam3s4c_Rf231_Gcc.a(machwdTxFrameHandler.o)
                0x00407d88                machwdTxFrameTaskHandler
 .text.machwdResetTxFrameHandler
                0x00407db0        0x2 ./../../../../../../Atmel_lib/BitCloud_SAM3S_EK_1_14_0/BitCloud/lib/libBc_All_At91sam3s4c_Rf231_Gcc.a(machwdTxFrameHandler.o)
                0x00407db0                machwdResetTxFrameHandler
 *fill*         0x00407db2        0x2 00
 .text.postponeAction.part.0
                0x00407db4       0x20 ./../../../../../../Atmel_lib/BitCloud_SAM3S_EK_1_14_0/BitCloud/lib/libBc_All_At91sam3s4c_Rf231_Gcc.a(machwiManager.o)
 .text.putReqInQueue
                0x00407dd4       0x38 ./../../../../../../Atmel_lib/BitCloud_SAM3S_EK_1_14_0/BitCloud/lib/libBc_All_At91sam3s4c_Rf231_Gcc.a(machwiManager.o)
 .text.machwiSendConfToUpperLayer
                0x00407e0c       0xb4 ./../../../../../../Atmel_lib/BitCloud_SAM3S_EK_1_14_0/BitCloud/lib/libBc_All_At91sam3s4c_Rf231_Gcc.a(machwiManager.o)
                0x00407e0c                machwiSendConfToUpperLayer
 .text.MAC_HWI_TaskHandler
                0x00407ec0       0xc4 ./../../../../../../Atmel_lib/BitCloud_SAM3S_EK_1_14_0/BitCloud/lib/libBc_All_At91sam3s4c_Rf231_Gcc.a(machwiManager.o)
                0x00407ec0                MAC_HWI_TaskHandler
 .text.MAC_AssociateReq
                0x00407f84        0x8 ./../../../../../../Atmel_lib/BitCloud_SAM3S_EK_1_14_0/BitCloud/lib/libBc_All_At91sam3s4c_Rf231_Gcc.a(machwiManager.o)
                0x00407f84                MAC_AssociateReq
 .text.MAC_AssociateResp
                0x00407f8c        0x8 ./../../../../../../Atmel_lib/BitCloud_SAM3S_EK_1_14_0/BitCloud/lib/libBc_All_At91sam3s4c_Rf231_Gcc.a(machwiManager.o)
                0x00407f8c                MAC_AssociateResp
 .text.MAC_GetReq
                0x00407f94        0x8 ./../../../../../../Atmel_lib/BitCloud_SAM3S_EK_1_14_0/BitCloud/lib/libBc_All_At91sam3s4c_Rf231_Gcc.a(machwiManager.o)
                0x00407f94                MAC_GetReq
 .text.MAC_ResetReq
                0x00407f9c       0x58 ./../../../../../../Atmel_lib/BitCloud_SAM3S_EK_1_14_0/BitCloud/lib/libBc_All_At91sam3s4c_Rf231_Gcc.a(machwiManager.o)
                0x00407f9c                MAC_ResetReq
 .text.MAC_RxEnableReq
                0x00407ff4        0x8 ./../../../../../../Atmel_lib/BitCloud_SAM3S_EK_1_14_0/BitCloud/lib/libBc_All_At91sam3s4c_Rf231_Gcc.a(machwiManager.o)
                0x00407ff4                MAC_RxEnableReq
 .text.MAC_ScanReq
                0x00407ffc        0x8 ./../../../../../../Atmel_lib/BitCloud_SAM3S_EK_1_14_0/BitCloud/lib/libBc_All_At91sam3s4c_Rf231_Gcc.a(machwiManager.o)
                0x00407ffc                MAC_ScanReq
 .text.MAC_SetReq
                0x00408004        0x8 ./../../../../../../Atmel_lib/BitCloud_SAM3S_EK_1_14_0/BitCloud/lib/libBc_All_At91sam3s4c_Rf231_Gcc.a(machwiManager.o)
                0x00408004                MAC_SetReq
 .text.MAC_StartReq
                0x0040800c        0x8 ./../../../../../../Atmel_lib/BitCloud_SAM3S_EK_1_14_0/BitCloud/lib/libBc_All_At91sam3s4c_Rf231_Gcc.a(machwiManager.o)
                0x0040800c                MAC_StartReq
 .text.MAC_PollReq
                0x00408014        0x8 ./../../../../../../Atmel_lib/BitCloud_SAM3S_EK_1_14_0/BitCloud/lib/libBc_All_At91sam3s4c_Rf231_Gcc.a(machwiManager.o)
                0x00408014                MAC_PollReq
 .text.MAC_DataReq
                0x0040801c        0x8 ./../../../../../../Atmel_lib/BitCloud_SAM3S_EK_1_14_0/BitCloud/lib/libBc_All_At91sam3s4c_Rf231_Gcc.a(machwiManager.o)
                0x0040801c                MAC_DataReq
 .text.machwiSendAssociateInd
                0x00408024       0x14 ./../../../../../../Atmel_lib/BitCloud_SAM3S_EK_1_14_0/BitCloud/lib/libBc_All_At91sam3s4c_Rf231_Gcc.a(machwiManager.o)
                0x00408024                machwiSendAssociateInd
 .text.machwiSendDataInd
                0x00408038       0x14 ./../../../../../../Atmel_lib/BitCloud_SAM3S_EK_1_14_0/BitCloud/lib/libBc_All_At91sam3s4c_Rf231_Gcc.a(machwiManager.o)
                0x00408038                machwiSendDataInd
 .text.machwiSendBeaconNotifyInd
                0x0040804c       0x14 ./../../../../../../Atmel_lib/BitCloud_SAM3S_EK_1_14_0/BitCloud/lib/libBc_All_At91sam3s4c_Rf231_Gcc.a(machwiManager.o)
                0x0040804c                machwiSendBeaconNotifyInd
 .text.machwiSendSyncLossNotifyInd
                0x00408060       0x14 ./../../../../../../Atmel_lib/BitCloud_SAM3S_EK_1_14_0/BitCloud/lib/libBc_All_At91sam3s4c_Rf231_Gcc.a(machwiManager.o)
                0x00408060                machwiSendSyncLossNotifyInd
 .text.machwiSendOrphanInd
                0x00408074       0x14 ./../../../../../../Atmel_lib/BitCloud_SAM3S_EK_1_14_0/BitCloud/lib/libBc_All_At91sam3s4c_Rf231_Gcc.a(machwiManager.o)
                0x00408074                machwiSendOrphanInd
 .text.machwiSendPollInd
                0x00408088       0x14 ./../../../../../../Atmel_lib/BitCloud_SAM3S_EK_1_14_0/BitCloud/lib/libBc_All_At91sam3s4c_Rf231_Gcc.a(machwiManager.o)
                0x00408088                machwiSendPollInd
 .text.machwiTxTransactionReq
                0x0040809c       0x1c ./../../../../../../Atmel_lib/BitCloud_SAM3S_EK_1_14_0/BitCloud/lib/libBc_All_At91sam3s4c_Rf231_Gcc.a(machwiManager.o)
                0x0040809c                machwiTxTransactionReq
 .text.machwiTxBeaconReq
                0x004080b8       0x1c ./../../../../../../Atmel_lib/BitCloud_SAM3S_EK_1_14_0/BitCloud/lib/libBc_All_At91sam3s4c_Rf231_Gcc.a(machwiManager.o)
                0x004080b8                machwiTxBeaconReq
 .text.MAC_IsActiveTransaction
                0x004080d4       0x20 ./../../../../../../Atmel_lib/BitCloud_SAM3S_EK_1_14_0/BitCloud/lib/libBc_All_At91sam3s4c_Rf231_Gcc.a(machwiManager.o)
                0x004080d4                MAC_IsActiveTransaction
 .text.machwdDataConfirm
                0x004080f4       0x20 ./../../../../../../Atmel_lib/BitCloud_SAM3S_EK_1_14_0/BitCloud/lib/libBc_All_At91sam3s4c_Rf231_Gcc.a(machwiOrphanHandler.o)
 .text.machwiOrphanRespHandler
                0x00408114       0xfc ./../../../../../../Atmel_lib/BitCloud_SAM3S_EK_1_14_0/BitCloud/lib/libBc_All_At91sam3s4c_Rf231_Gcc.a(machwiOrphanHandler.o)
                0x00408114                machwiOrphanRespHandler
 .text.machwiOrphanNotificationInd
                0x00408210       0x1a ./../../../../../../Atmel_lib/BitCloud_SAM3S_EK_1_14_0/BitCloud/lib/libBc_All_At91sam3s4c_Rf231_Gcc.a(machwiOrphanHandler.o)
                0x00408210                machwiOrphanNotificationInd
 *fill*         0x0040822a        0x2 00
 .text.MACHWD_DataInd
                0x0040822c       0x78 ./../../../../../../Atmel_lib/BitCloud_SAM3S_EK_1_14_0/BitCloud/lib/libBc_All_At91sam3s4c_Rf231_Gcc.a(machwiPanServer.o)
                0x0040822c                MACHWD_DataInd
 .text.machwiEnableBeaconTransmission
                0x004082a4       0x10 ./../../../../../../Atmel_lib/BitCloud_SAM3S_EK_1_14_0/BitCloud/lib/libBc_All_At91sam3s4c_Rf231_Gcc.a(machwiPanServer.o)
                0x004082a4                machwiEnableBeaconTransmission
 .text.machwiResetPanServer
                0x004082b4       0x10 ./../../../../../../Atmel_lib/BitCloud_SAM3S_EK_1_14_0/BitCloud/lib/libBc_All_At91sam3s4c_Rf231_Gcc.a(machwiPanServer.o)
                0x004082b4                machwiResetPanServer
 .text.switchingCompleted
                0x004082c4       0x14 ./../../../../../../Atmel_lib/BitCloud_SAM3S_EK_1_14_0/BitCloud/lib/libBc_All_At91sam3s4c_Rf231_Gcc.a(machwiPollHandler.o)
 .text.completeHandling
                0x004082d8       0x1c ./../../../../../../Atmel_lib/BitCloud_SAM3S_EK_1_14_0/BitCloud/lib/libBc_All_At91sam3s4c_Rf231_Gcc.a(machwiPollHandler.o)
 .text.machwdDataConfirm
                0x004082f4       0x50 ./../../../../../../Atmel_lib/BitCloud_SAM3S_EK_1_14_0/BitCloud/lib/libBc_All_At91sam3s4c_Rf231_Gcc.a(machwiPollHandler.o)
 .text.halPollTimerFired
                0x00408344        0x4 ./../../../../../../Atmel_lib/BitCloud_SAM3S_EK_1_14_0/BitCloud/lib/libBc_All_At91sam3s4c_Rf231_Gcc.a(machwiPollHandler.o)
 .text.machwiResetPollHandler
                0x00408348        0xc ./../../../../../../Atmel_lib/BitCloud_SAM3S_EK_1_14_0/BitCloud/lib/libBc_All_At91sam3s4c_Rf231_Gcc.a(machwiPollHandler.o)
                0x00408348                machwiResetPollHandler
 .text.machwiPollInd
                0x00408354       0x3a ./../../../../../../Atmel_lib/BitCloud_SAM3S_EK_1_14_0/BitCloud/lib/libBc_All_At91sam3s4c_Rf231_Gcc.a(machwiPollHandler.o)
                0x00408354                machwiPollInd
 *fill*         0x0040838e        0x2 00
 .text.machwiDataIndication
                0x00408390      0x110 ./../../../../../../Atmel_lib/BitCloud_SAM3S_EK_1_14_0/BitCloud/lib/libBc_All_At91sam3s4c_Rf231_Gcc.a(machwiPollHandler.o)
                0x00408390                machwiDataIndication
 .text.machwiPollReqHandler
                0x004084a0      0x104 ./../../../../../../Atmel_lib/BitCloud_SAM3S_EK_1_14_0/BitCloud/lib/libBc_All_At91sam3s4c_Rf231_Gcc.a(machwiPollHandler.o)
                0x004084a0                machwiPollReqHandler
 .text.machwiPurgeReqHandler
                0x004085a4       0x28 ./../../../../../../Atmel_lib/BitCloud_SAM3S_EK_1_14_0/BitCloud/lib/libBc_All_At91sam3s4c_Rf231_Gcc.a(machwiPurgeHandler.o)
                0x004085a4                machwiPurgeReqHandler
 .text.machwdSetTrxStateConfirm
                0x004085cc        0xc ./../../../../../../Atmel_lib/BitCloud_SAM3S_EK_1_14_0/BitCloud/lib/libBc_All_At91sam3s4c_Rf231_Gcc.a(machwiResetHandler.o)
 .text.machwdSetConfirm
                0x004085d8       0x1c ./../../../../../../Atmel_lib/BitCloud_SAM3S_EK_1_14_0/BitCloud/lib/libBc_All_At91sam3s4c_Rf231_Gcc.a(machwiResetHandler.o)
 .text.machwiResetReqHandler
                0x004085f4       0x6c ./../../../../../../Atmel_lib/BitCloud_SAM3S_EK_1_14_0/BitCloud/lib/libBc_All_At91sam3s4c_Rf231_Gcc.a(machwiResetHandler.o)
                0x004085f4                machwiResetReqHandler
 .text.machwdSetTrxStateConfirm
                0x00408660       0x10 ./../../../../../../Atmel_lib/BitCloud_SAM3S_EK_1_14_0/BitCloud/lib/libBc_All_At91sam3s4c_Rf231_Gcc.a(machwiRxEnableHandler.o)
 .text.machwiRxEnableReqHandler
                0x00408670       0x2c ./../../../../../../Atmel_lib/BitCloud_SAM3S_EK_1_14_0/BitCloud/lib/libBc_All_At91sam3s4c_Rf231_Gcc.a(machwiRxEnableHandler.o)
                0x00408670                machwiRxEnableReqHandler
 .text.switchToActiveChannel
                0x0040869c       0x34 ./../../../../../../Atmel_lib/BitCloud_SAM3S_EK_1_14_0/BitCloud/lib/libBc_All_At91sam3s4c_Rf231_Gcc.a(machwiScanHandler.o)
 .text.setNextChannel
                0x004086d0       0x60 ./../../../../../../Atmel_lib/BitCloud_SAM3S_EK_1_14_0/BitCloud/lib/libBc_All_At91sam3s4c_Rf231_Gcc.a(machwiScanHandler.o)
 .text.machwdEdConfirm
                0x00408730       0x84 ./../../../../../../Atmel_lib/BitCloud_SAM3S_EK_1_14_0/BitCloud/lib/libBc_All_At91sam3s4c_Rf231_Gcc.a(machwiScanHandler.o)
 .text.machwdSetConfirm
                0x004087b4      0x258 ./../../../../../../Atmel_lib/BitCloud_SAM3S_EK_1_14_0/BitCloud/lib/libBc_All_At91sam3s4c_Rf231_Gcc.a(machwiScanHandler.o)
 .text.machwdSetTrxStateConfirm
                0x00408a0c       0x98 ./../../../../../../Atmel_lib/BitCloud_SAM3S_EK_1_14_0/BitCloud/lib/libBc_All_At91sam3s4c_Rf231_Gcc.a(machwiScanHandler.o)
 .text.halScanTimerFired
                0x00408aa4       0x28 ./../../../../../../Atmel_lib/BitCloud_SAM3S_EK_1_14_0/BitCloud/lib/libBc_All_At91sam3s4c_Rf231_Gcc.a(machwiScanHandler.o)
 .text.machwdDataConfirm
                0x00408acc       0x58 ./../../../../../../Atmel_lib/BitCloud_SAM3S_EK_1_14_0/BitCloud/lib/libBc_All_At91sam3s4c_Rf231_Gcc.a(machwiScanHandler.o)
 .text.machwiScanReqHandler
                0x00408b24       0xf8 ./../../../../../../Atmel_lib/BitCloud_SAM3S_EK_1_14_0/BitCloud/lib/libBc_All_At91sam3s4c_Rf231_Gcc.a(machwiScanHandler.o)
                0x00408b24                machwiScanReqHandler
 .text.machwiBeaconInd
                0x00408c1c      0x194 ./../../../../../../Atmel_lib/BitCloud_SAM3S_EK_1_14_0/BitCloud/lib/libBc_All_At91sam3s4c_Rf231_Gcc.a(machwiScanHandler.o)
                0x00408c1c                machwiBeaconInd
 .text.machwiCoordRealignmentCommandInd
                0x00408db0       0xac ./../../../../../../Atmel_lib/BitCloud_SAM3S_EK_1_14_0/BitCloud/lib/libBc_All_At91sam3s4c_Rf231_Gcc.a(machwiScanHandler.o)
                0x00408db0                machwiCoordRealignmentCommandInd
 .text.machwiResetScanHandler
                0x00408e5c        0xc ./../../../../../../Atmel_lib/BitCloud_SAM3S_EK_1_14_0/BitCloud/lib/libBc_All_At91sam3s4c_Rf231_Gcc.a(machwiScanHandler.o)
                0x00408e5c                machwiResetScanHandler
 .text.machwdSetConfirm
                0x00408e68        0xc ./../../../../../../Atmel_lib/BitCloud_SAM3S_EK_1_14_0/BitCloud/lib/libBc_All_At91sam3s4c_Rf231_Gcc.a(machwiSetGetHandler.o)
 .text.machwiGetReqHandler
                0x00408e74       0x34 ./../../../../../../Atmel_lib/BitCloud_SAM3S_EK_1_14_0/BitCloud/lib/libBc_All_At91sam3s4c_Rf231_Gcc.a(machwiSetGetHandler.o)
                0x00408e74                machwiGetReqHandler
 .text.machwiSetReqHandler
                0x00408ea8       0x84 ./../../../../../../Atmel_lib/BitCloud_SAM3S_EK_1_14_0/BitCloud/lib/libBc_All_At91sam3s4c_Rf231_Gcc.a(machwiSetGetHandler.o)
                0x00408ea8                machwiSetReqHandler
 .text.setHandling
                0x00408f2c       0x20 ./../../../../../../Atmel_lib/BitCloud_SAM3S_EK_1_14_0/BitCloud/lib/libBc_All_At91sam3s4c_Rf231_Gcc.a(machwiStartHandler.o)
 .text.setStartReqParam
                0x00408f4c       0x90 ./../../../../../../Atmel_lib/BitCloud_SAM3S_EK_1_14_0/BitCloud/lib/libBc_All_At91sam3s4c_Rf231_Gcc.a(machwiStartHandler.o)
 .text.generateConfirm
                0x00408fdc       0x38 ./../../../../../../Atmel_lib/BitCloud_SAM3S_EK_1_14_0/BitCloud/lib/libBc_All_At91sam3s4c_Rf231_Gcc.a(machwiStartHandler.o)
 .text.machwdSetConfirm
                0x00409014      0x108 ./../../../../../../Atmel_lib/BitCloud_SAM3S_EK_1_14_0/BitCloud/lib/libBc_All_At91sam3s4c_Rf231_Gcc.a(machwiStartHandler.o)
 .text.machwdDataConfirm
                0x0040911c       0x34 ./../../../../../../Atmel_lib/BitCloud_SAM3S_EK_1_14_0/BitCloud/lib/libBc_All_At91sam3s4c_Rf231_Gcc.a(machwiStartHandler.o)
 .text.machwiStartReqHandler
                0x00409150       0x48 ./../../../../../../Atmel_lib/BitCloud_SAM3S_EK_1_14_0/BitCloud/lib/libBc_All_At91sam3s4c_Rf231_Gcc.a(machwiStartHandler.o)
                0x00409150                machwiStartReqHandler
 .text.machwiResetStartHandler
                0x00409198       0x10 ./../../../../../../Atmel_lib/BitCloud_SAM3S_EK_1_14_0/BitCloud/lib/libBc_All_At91sam3s4c_Rf231_Gcc.a(machwiStartHandler.o)
                0x00409198                machwiResetStartHandler
 .text.machwdSetTrxStateConfirm
                0x004091a8       0x10 ./../../../../../../Atmel_lib/BitCloud_SAM3S_EK_1_14_0/BitCloud/lib/libBc_All_At91sam3s4c_Rf231_Gcc.a(machwiSwitchRxCtrl.o)
 .text.machwiSwitchRxAccordToRxOnWhenIdle
                0x004091b8       0x30 ./../../../../../../Atmel_lib/BitCloud_SAM3S_EK_1_14_0/BitCloud/lib/libBc_All_At91sam3s4c_Rf231_Gcc.a(machwiSwitchRxCtrl.o)
                0x004091b8                machwiSwitchRxAccordToRxOnWhenIdle
 .text.machwiResetTransactionHandler
                0x004091e8       0x14 ./../../../../../../Atmel_lib/BitCloud_SAM3S_EK_1_14_0/BitCloud/lib/libBc_All_At91sam3s4c_Rf231_Gcc.a(machwiTransactionHandler.o)
                0x004091e8                machwiResetTransactionHandler
 .text.machwiSendTransactionEvent
                0x004091fc      0x12c ./../../../../../../Atmel_lib/BitCloud_SAM3S_EK_1_14_0/BitCloud/lib/libBc_All_At91sam3s4c_Rf231_Gcc.a(machwiTransactionHandler.o)
                0x004091fc                machwiSendTransactionEvent
 .text.machwdDataConfirm
                0x00409328       0x88 ./../../../../../../Atmel_lib/BitCloud_SAM3S_EK_1_14_0/BitCloud/lib/libBc_All_At91sam3s4c_Rf231_Gcc.a(machwiTransactionHandler.o)
 .text.transactionTimerFired
                0x004093b0       0x30 ./../../../../../../Atmel_lib/BitCloud_SAM3S_EK_1_14_0/BitCloud/lib/libBc_All_At91sam3s4c_Rf231_Gcc.a(machwiTransactionQueue.o)
 .text.machwiPutTransactionToQueue
                0x004093e0       0x44 ./../../../../../../Atmel_lib/BitCloud_SAM3S_EK_1_14_0/BitCloud/lib/libBc_All_At91sam3s4c_Rf231_Gcc.a(machwiTransactionQueue.o)
                0x004093e0                machwiPutTransactionToQueue
 .text.machwiGetActivatedTransactionFromQueue
                0x00409424       0x18 ./../../../../../../Atmel_lib/BitCloud_SAM3S_EK_1_14_0/BitCloud/lib/libBc_All_At91sam3s4c_Rf231_Gcc.a(machwiTransactionQueue.o)
                0x00409424                machwiGetActivatedTransactionFromQueue
 .text.machwiTestAndKickQueueTransactions
                0x0040943c       0xc8 ./../../../../../../Atmel_lib/BitCloud_SAM3S_EK_1_14_0/BitCloud/lib/libBc_All_At91sam3s4c_Rf231_Gcc.a(machwiTransactionQueue.o)
                0x0040943c                machwiTestAndKickQueueTransactions
 .text.machwiFillPendingAddrSpecAndList
                0x00409504       0x12 ./../../../../../../Atmel_lib/BitCloud_SAM3S_EK_1_14_0/BitCloud/lib/libBc_All_At91sam3s4c_Rf231_Gcc.a(machwiTransactionQueue.o)
                0x00409504                machwiFillPendingAddrSpecAndList
 *fill*         0x00409516        0x2 00
 .text.machwiDeleteTransactionFromQueue
                0x00409518       0x28 ./../../../../../../Atmel_lib/BitCloud_SAM3S_EK_1_14_0/BitCloud/lib/libBc_All_At91sam3s4c_Rf231_Gcc.a(machwiTransactionQueue.o)
                0x00409518                machwiDeleteTransactionFromQueue
 .text.machwiPurgeTransactionFromQueue
                0x00409540       0x34 ./../../../../../../Atmel_lib/BitCloud_SAM3S_EK_1_14_0/BitCloud/lib/libBc_All_At91sam3s4c_Rf231_Gcc.a(machwiTransactionQueue.o)
                0x00409540                machwiPurgeTransactionFromQueue
 .text.machwiResetTransactionQueue
                0x00409574       0x30 ./../../../../../../Atmel_lib/BitCloud_SAM3S_EK_1_14_0/BitCloud/lib/libBc_All_At91sam3s4c_Rf231_Gcc.a(machwiTransactionQueue.o)
                0x00409574                machwiResetTransactionQueue
 .text.machwiTransactionQueueEmpty
                0x004095a4       0x14 ./../../../../../../Atmel_lib/BitCloud_SAM3S_EK_1_14_0/BitCloud/lib/libBc_All_At91sam3s4c_Rf231_Gcc.a(machwiTransactionQueue.o)
                0x004095a4                machwiTransactionQueueEmpty
 .text.nwkAddressConflictIsIdle
                0x004095b8       0x18 ./../../../../../../Atmel_lib/BitCloud_SAM3S_EK_1_14_0/BitCloud/lib/libBc_All_At91sam3s4c_Rf231_Gcc.a(nwk.o)
 .text.nwkFindAddressMapEntryByExtAddr
                0x004095d0       0x34 ./../../../../../../Atmel_lib/BitCloud_SAM3S_EK_1_14_0/BitCloud/lib/libBc_All_At91sam3s4c_Rf231_Gcc.a(nwk.o)
 .text.nwkAddToAddressMap
                0x00409604       0x54 ./../../../../../../Atmel_lib/BitCloud_SAM3S_EK_1_14_0/BitCloud/lib/libBc_All_At91sam3s4c_Rf231_Gcc.a(nwk.o)
 .text.nwkFindAddressMapEntryByShortAddr
                0x00409658       0x28 ./../../../../../../Atmel_lib/BitCloud_SAM3S_EK_1_14_0/BitCloud/lib/libBc_All_At91sam3s4c_Rf231_Gcc.a(nwk.o)
 .text.nwkDataReqIsIdle
                0x00409680       0x18 ./../../../../../../Atmel_lib/BitCloud_SAM3S_EK_1_14_0/BitCloud/lib/libBc_All_At91sam3s4c_Rf231_Gcc.a(nwk.o)
 .text.nwkDiscoveryIsIdle
                0x00409698       0x18 ./../../../../../../Atmel_lib/BitCloud_SAM3S_EK_1_14_0/BitCloud/lib/libBc_All_At91sam3s4c_Rf231_Gcc.a(nwk.o)
 .text.nwkEDScanIsIdle
                0x004096b0       0x18 ./../../../../../../Atmel_lib/BitCloud_SAM3S_EK_1_14_0/BitCloud/lib/libBc_All_At91sam3s4c_Rf231_Gcc.a(nwk.o)
 .text.nwkFormationIsIdle
                0x004096c8       0x18 ./../../../../../../Atmel_lib/BitCloud_SAM3S_EK_1_14_0/BitCloud/lib/libBc_All_At91sam3s4c_Rf231_Gcc.a(nwk.o)
 .text.nwkParseHeader
                0x004096e0       0x6a ./../../../../../../Atmel_lib/BitCloud_SAM3S_EK_1_14_0/BitCloud/lib/libBc_All_At91sam3s4c_Rf231_Gcc.a(nwk.o)
 *fill*         0x0040974a        0x2 00
 .text.nwkSetDepth
                0x0040974c       0x10 ./../../../../../../Atmel_lib/BitCloud_SAM3S_EK_1_14_0/BitCloud/lib/libBc_All_At91sam3s4c_Rf231_Gcc.a(nwk.o)
 .text.findFreeJoinIndObjFor
                0x0040975c       0x54 ./../../../../../../Atmel_lib/BitCloud_SAM3S_EK_1_14_0/BitCloud/lib/libBc_All_At91sam3s4c_Rf231_Gcc.a(nwk.o)
 .text.nwkJoinIndIsIdle
                0x004097b0       0x28 ./../../../../../../Atmel_lib/BitCloud_SAM3S_EK_1_14_0/BitCloud/lib/libBc_All_At91sam3s4c_Rf231_Gcc.a(nwk.o)
 .text.nwkJoinReqIsIdle
                0x004097d8       0x18 ./../../../../../../Atmel_lib/BitCloud_SAM3S_EK_1_14_0/BitCloud/lib/libBc_All_At91sam3s4c_Rf231_Gcc.a(nwk.o)
 .text.nwkLeaveReqIsIdle
                0x004097f0       0x18 ./../../../../../../Atmel_lib/BitCloud_SAM3S_EK_1_14_0/BitCloud/lib/libBc_All_At91sam3s4c_Rf231_Gcc.a(nwk.o)
 .text.nwkLinkStatusIsIdle
                0x00409808       0x14 ./../../../../../../Atmel_lib/BitCloud_SAM3S_EK_1_14_0/BitCloud/lib/libBc_All_At91sam3s4c_Rf231_Gcc.a(nwk.o)
 .text.nwkLoopbackIsIdle
                0x0040981c       0x18 ./../../../../../../Atmel_lib/BitCloud_SAM3S_EK_1_14_0/BitCloud/lib/libBc_All_At91sam3s4c_Rf231_Gcc.a(nwk.o)
 .text.nwkGetOutgoingCost
                0x00409834       0x24 ./../../../../../../Atmel_lib/BitCloud_SAM3S_EK_1_14_0/BitCloud/lib/libBc_All_At91sam3s4c_Rf231_Gcc.a(nwk.o)
 .text.nwkClearNeighborTable
                0x00409858       0x64 ./../../../../../../Atmel_lib/BitCloud_SAM3S_EK_1_14_0/BitCloud/lib/libBc_All_At91sam3s4c_Rf231_Gcc.a(nwk.o)
 .text.nwkUpdateCapacityBits
                0x004098bc       0x80 ./../../../../../../Atmel_lib/BitCloud_SAM3S_EK_1_14_0/BitCloud/lib/libBc_All_At91sam3s4c_Rf231_Gcc.a(nwk.o)
 .text.nwkUpdateCapacityBitsInBeacon
                0x0040993c       0x50 ./../../../../../../Atmel_lib/BitCloud_SAM3S_EK_1_14_0/BitCloud/lib/libBc_All_At91sam3s4c_Rf231_Gcc.a(nwk.o)
 .text.nwkUpdateBeaconPayload
                0x0040998c       0x70 ./../../../../../../Atmel_lib/BitCloud_SAM3S_EK_1_14_0/BitCloud/lib/libBc_All_At91sam3s4c_Rf231_Gcc.a(nwk.o)
 .text.nwkFreeNeighbor
                0x004099fc       0x3c ./../../../../../../Atmel_lib/BitCloud_SAM3S_EK_1_14_0/BitCloud/lib/libBc_All_At91sam3s4c_Rf231_Gcc.a(nwk.o)
 .text.nwkCostFromLqi
                0x00409a38       0x2c ./../../../../../../Atmel_lib/BitCloud_SAM3S_EK_1_14_0/BitCloud/lib/libBc_All_At91sam3s4c_Rf231_Gcc.a(nwk.o)
 .text.nwkInitLqiAndCostOfNeighbor
                0x00409a64       0x30 ./../../../../../../Atmel_lib/BitCloud_SAM3S_EK_1_14_0/BitCloud/lib/libBc_All_At91sam3s4c_Rf231_Gcc.a(nwk.o)
 .text.nwkUpdateLqiAndCostOfNeighbor
                0x00409a94       0x40 ./../../../../../../Atmel_lib/BitCloud_SAM3S_EK_1_14_0/BitCloud/lib/libBc_All_At91sam3s4c_Rf231_Gcc.a(nwk.o)
 .text.nwkFindPassiveAck
                0x00409ad4       0x3c ./../../../../../../Atmel_lib/BitCloud_SAM3S_EK_1_14_0/BitCloud/lib/libBc_All_At91sam3s4c_Rf231_Gcc.a(nwk.o)
 .text.nwkNewPassiveAck
                0x00409b10       0xbc ./../../../../../../Atmel_lib/BitCloud_SAM3S_EK_1_14_0/BitCloud/lib/libBc_All_At91sam3s4c_Rf231_Gcc.a(nwk.o)
 .text.nwkFreePassiveAck
                0x00409bcc       0x34 ./../../../../../../Atmel_lib/BitCloud_SAM3S_EK_1_14_0/BitCloud/lib/libBc_All_At91sam3s4c_Rf231_Gcc.a(nwk.o)
 .text.nwkPermitJoiningIsIdle
                0x00409c00       0x20 ./../../../../../../Atmel_lib/BitCloud_SAM3S_EK_1_14_0/BitCloud/lib/libBc_All_At91sam3s4c_Rf231_Gcc.a(nwk.o)
 .text.nwkResetIsIdle
                0x00409c20       0x14 ./../../../../../../Atmel_lib/BitCloud_SAM3S_EK_1_14_0/BitCloud/lib/libBc_All_At91sam3s4c_Rf231_Gcc.a(nwk.o)
 .text.nwkRouteDiscoveryIsIdle
                0x00409c34       0x14 ./../../../../../../Atmel_lib/BitCloud_SAM3S_EK_1_14_0/BitCloud/lib/libBc_All_At91sam3s4c_Rf231_Gcc.a(nwk.o)
 .text.nwkFindRouteDiscoveryEntry
                0x00409c48       0x2c ./../../../../../../Atmel_lib/BitCloud_SAM3S_EK_1_14_0/BitCloud/lib/libBc_All_At91sam3s4c_Rf231_Gcc.a(nwk.o)
 .text.nwkFreeRouteDiscoveryEntry
                0x00409c74       0x24 ./../../../../../../Atmel_lib/BitCloud_SAM3S_EK_1_14_0/BitCloud/lib/libBc_All_At91sam3s4c_Rf231_Gcc.a(nwk.o)
 .text.nwkConfirmRouteRequestTx
                0x00409c98       0x34 ./../../../../../../Atmel_lib/BitCloud_SAM3S_EK_1_14_0/BitCloud/lib/libBc_All_At91sam3s4c_Rf231_Gcc.a(nwk.o)
 .text.nwkRouteDiscoveryTableIsIdle
                0x00409ccc       0x14 ./../../../../../../Atmel_lib/BitCloud_SAM3S_EK_1_14_0/BitCloud/lib/libBc_All_At91sam3s4c_Rf231_Gcc.a(nwk.o)
 .text.nwkDeleteNextHop
                0x00409ce0       0x34 ./../../../../../../Atmel_lib/BitCloud_SAM3S_EK_1_14_0/BitCloud/lib/libBc_All_At91sam3s4c_Rf231_Gcc.a(nwk.o)
 .text.nwkFindRoutingEntry
                0x00409d14       0x38 ./../../../../../../Atmel_lib/BitCloud_SAM3S_EK_1_14_0/BitCloud/lib/libBc_All_At91sam3s4c_Rf231_Gcc.a(nwk.o)
 .text.nwkFreeRoutingEntry
                0x00409d4c       0x12 ./../../../../../../Atmel_lib/BitCloud_SAM3S_EK_1_14_0/BitCloud/lib/libBc_All_At91sam3s4c_Rf231_Gcc.a(nwk.o)
 *fill*         0x00409d5e        0x2 00
 .text.nwkUpdateNextHop
                0x00409d60       0x88 ./../../../../../../Atmel_lib/BitCloud_SAM3S_EK_1_14_0/BitCloud/lib/libBc_All_At91sam3s4c_Rf231_Gcc.a(nwk.o)
 .text.nwkStartRouterIsIdle
                0x00409de8       0x18 ./../../../../../../Atmel_lib/BitCloud_SAM3S_EK_1_14_0/BitCloud/lib/libBc_All_At91sam3s4c_Rf231_Gcc.a(nwk.o)
 .text.nwkSendRouteErrorConf
                0x00409e00       0x10 ./../../../../../../Atmel_lib/BitCloud_SAM3S_EK_1_14_0/BitCloud/lib/libBc_All_At91sam3s4c_Rf231_Gcc.a(nwk.o)
 .text.nwkSyncIsIdle
                0x00409e10       0x18 ./../../../../../../Atmel_lib/BitCloud_SAM3S_EK_1_14_0/BitCloud/lib/libBc_All_At91sam3s4c_Rf231_Gcc.a(nwk.o)
 .text.nwkTxDelayIsIdle
                0x00409e28       0x14 ./../../../../../../Atmel_lib/BitCloud_SAM3S_EK_1_14_0/BitCloud/lib/libBc_All_At91sam3s4c_Rf231_Gcc.a(nwk.o)
 .text.nwkReloadNibFromConfigServer
                0x00409e3c       0x68 ./../../../../../../Atmel_lib/BitCloud_SAM3S_EK_1_14_0/BitCloud/lib/libBc_All_At91sam3s4c_Rf231_Gcc.a(nwk.o)
 .text.nwkSetLifeTimeOfNeighbor
                0x00409ea4       0x70 ./../../../../../../Atmel_lib/BitCloud_SAM3S_EK_1_14_0/BitCloud/lib/libBc_All_At91sam3s4c_Rf231_Gcc.a(nwk.o)
 .text.nwkLinkStatusInd
                0x00409f14      0x208 ./../../../../../../Atmel_lib/BitCloud_SAM3S_EK_1_14_0/BitCloud/lib/libBc_All_At91sam3s4c_Rf231_Gcc.a(nwk.o)
 .text.nwkAllocPacket
                0x0040a11c       0x88 ./../../../../../../Atmel_lib/BitCloud_SAM3S_EK_1_14_0/BitCloud/lib/libBc_All_At91sam3s4c_Rf231_Gcc.a(nwk.o)
 .text.nwkAllocInputPacket
                0x0040a1a4       0x1c ./../../../../../../Atmel_lib/BitCloud_SAM3S_EK_1_14_0/BitCloud/lib/libBc_All_At91sam3s4c_Rf231_Gcc.a(nwk.o)
 .text.SYS_GetRandomNumber
                0x0040a1c0       0x18 ./../../../../../../Atmel_lib/BitCloud_SAM3S_EK_1_14_0/BitCloud/lib/libBc_All_At91sam3s4c_Rf231_Gcc.a(nwk.o)
 .text.nwkFindDeviceToJoin
                0x0040a1d8       0xf4 ./../../../../../../Atmel_lib/BitCloud_SAM3S_EK_1_14_0/BitCloud/lib/libBc_All_At91sam3s4c_Rf231_Gcc.a(nwk.o)
 .text.nwkStartLinkStatusTimer
                0x0040a2cc       0x14 ./../../../../../../Atmel_lib/BitCloud_SAM3S_EK_1_14_0/BitCloud/lib/libBc_All_At91sam3s4c_Rf231_Gcc.a(nwk.o)
 .text.nwkConfirmLinkStatusTx
                0x0040a2e0       0x14 ./../../../../../../Atmel_lib/BitCloud_SAM3S_EK_1_14_0/BitCloud/lib/libBc_All_At91sam3s4c_Rf231_Gcc.a(nwk.o)
 .text.nwkStartAgeTimerOfNeighborTable
                0x0040a2f4       0x24 ./../../../../../../Atmel_lib/BitCloud_SAM3S_EK_1_14_0/BitCloud/lib/libBc_All_At91sam3s4c_Rf231_Gcc.a(nwk.o)
 .text.freeJoinIndObj
                0x0040a318        0x8 ./../../../../../../Atmel_lib/BitCloud_SAM3S_EK_1_14_0/BitCloud/lib/libBc_All_At91sam3s4c_Rf231_Gcc.a(nwk.o)
 .text.nwkJoinIndTaskHandler
                0x0040a320       0xc8 ./../../../../../../Atmel_lib/BitCloud_SAM3S_EK_1_14_0/BitCloud/lib/libBc_All_At91sam3s4c_Rf231_Gcc.a(nwk.o)
 .text.nwkPrepareCommonFrame
                0x0040a3e8       0x4c ./../../../../../../Atmel_lib/BitCloud_SAM3S_EK_1_14_0/BitCloud/lib/libBc_All_At91sam3s4c_Rf231_Gcc.a(nwk.o)
 .text.nwkAllocRouteDiscoveryEntry
                0x0040a434       0x78 ./../../../../../../Atmel_lib/BitCloud_SAM3S_EK_1_14_0/BitCloud/lib/libBc_All_At91sam3s4c_Rf231_Gcc.a(nwk.o)
 .text.nwkPrepareLeaveChildTx
                0x0040a4ac       0xd4 ./../../../../../../Atmel_lib/BitCloud_SAM3S_EK_1_14_0/BitCloud/lib/libBc_All_At91sam3s4c_Rf231_Gcc.a(nwk.o)
 .text.nwkPrepareLeaveItselfTx
                0x0040a580       0xa4 ./../../../../../../Atmel_lib/BitCloud_SAM3S_EK_1_14_0/BitCloud/lib/libBc_All_At91sam3s4c_Rf231_Gcc.a(nwk.o)
 .text.nwkPrepareJoinRespTx
                0x0040a624       0xf4 ./../../../../../../Atmel_lib/BitCloud_SAM3S_EK_1_14_0/BitCloud/lib/libBc_All_At91sam3s4c_Rf231_Gcc.a(nwk.o)
 .text.nwkPrepareJoinReqTx
                0x0040a718       0x98 ./../../../../../../Atmel_lib/BitCloud_SAM3S_EK_1_14_0/BitCloud/lib/libBc_All_At91sam3s4c_Rf231_Gcc.a(nwk.o)
 .text.nwkPrepareLinkStatusTx
                0x0040a7b0      0x158 ./../../../../../../Atmel_lib/BitCloud_SAM3S_EK_1_14_0/BitCloud/lib/libBc_All_At91sam3s4c_Rf231_Gcc.a(nwk.o)
 .text.nwkPermitJoinTimerFired
                0x0040a908       0x2c ./../../../../../../Atmel_lib/BitCloud_SAM3S_EK_1_14_0/BitCloud/lib/libBc_All_At91sam3s4c_Rf231_Gcc.a(nwk.o)
 .text.nwkResetRouteDiscoveryTable
                0x0040a934       0x64 ./../../../../../../Atmel_lib/BitCloud_SAM3S_EK_1_14_0/BitCloud/lib/libBc_All_At91sam3s4c_Rf231_Gcc.a(nwk.o)
 .text.nwkPostTask
                0x0040a998       0x34 ./../../../../../../Atmel_lib/BitCloud_SAM3S_EK_1_14_0/BitCloud/lib/libBc_All_At91sam3s4c_Rf231_Gcc.a(nwk.o)
 .text.nwkEDScanMacEDScanConf
                0x0040a9cc       0x2c ./../../../../../../Atmel_lib/BitCloud_SAM3S_EK_1_14_0/BitCloud/lib/libBc_All_At91sam3s4c_Rf231_Gcc.a(nwk.o)
 .text.nwkFormationMacRxEnableConf
                0x0040a9f8       0x1c ./../../../../../../Atmel_lib/BitCloud_SAM3S_EK_1_14_0/BitCloud/lib/libBc_All_At91sam3s4c_Rf231_Gcc.a(nwk.o)
 .text.nwkDiscoveryMacActiveScanConf
                0x0040aa14       0x30 ./../../../../../../Atmel_lib/BitCloud_SAM3S_EK_1_14_0/BitCloud/lib/libBc_All_At91sam3s4c_Rf231_Gcc.a(nwk.o)
 .text.nwkPermitJoiningMacSetConf
                0x0040aa44       0x30 ./../../../../../../Atmel_lib/BitCloud_SAM3S_EK_1_14_0/BitCloud/lib/libBc_All_At91sam3s4c_Rf231_Gcc.a(nwk.o)
 .text.nwkStartRouterMacStartConf
                0x0040aa74       0x1c ./../../../../../../Atmel_lib/BitCloud_SAM3S_EK_1_14_0/BitCloud/lib/libBc_All_At91sam3s4c_Rf231_Gcc.a(nwk.o)
 .text.NWK_JoinConf
                0x0040aa90       0x38 ./../../../../../../Atmel_lib/BitCloud_SAM3S_EK_1_14_0/BitCloud/lib/libBc_All_At91sam3s4c_Rf231_Gcc.a(nwk.o)
 .text.nwkStatusConf
                0x0040aac8       0x14 ./../../../../../../Atmel_lib/BitCloud_SAM3S_EK_1_14_0/BitCloud/lib/libBc_All_At91sam3s4c_Rf231_Gcc.a(nwk.o)
 .text.nwkRouteDiscoveryTaskHandler
                0x0040aadc       0xb4 ./../../../../../../Atmel_lib/BitCloud_SAM3S_EK_1_14_0/BitCloud/lib/libBc_All_At91sam3s4c_Rf231_Gcc.a(nwk.o)
 .text.nwkFormationMacActiveScanConf
                0x0040ab90      0x1bc ./../../../../../../Atmel_lib/BitCloud_SAM3S_EK_1_14_0/BitCloud/lib/libBc_All_At91sam3s4c_Rf231_Gcc.a(nwk.o)
 .text.nwkFormationMacStartConf
                0x0040ad4c       0x44 ./../../../../../../Atmel_lib/BitCloud_SAM3S_EK_1_14_0/BitCloud/lib/libBc_All_At91sam3s4c_Rf231_Gcc.a(nwk.o)
 .text.nwkFormationTaskHandler
                0x0040ad90      0x130 ./../../../../../../Atmel_lib/BitCloud_SAM3S_EK_1_14_0/BitCloud/lib/libBc_All_At91sam3s4c_Rf231_Gcc.a(nwk.o)
 .text.nwkFormationMacEDScanConf
                0x0040aec0       0xa4 ./../../../../../../Atmel_lib/BitCloud_SAM3S_EK_1_14_0/BitCloud/lib/libBc_All_At91sam3s4c_Rf231_Gcc.a(nwk.o)
 .text.nwkFormationMacSetConf
                0x0040af64       0xf8 ./../../../../../../Atmel_lib/BitCloud_SAM3S_EK_1_14_0/BitCloud/lib/libBc_All_At91sam3s4c_Rf231_Gcc.a(nwk.o)
 .text.nwkLoopbackTaskHandler
                0x0040b05c       0xb8 ./../../../../../../Atmel_lib/BitCloud_SAM3S_EK_1_14_0/BitCloud/lib/libBc_All_At91sam3s4c_Rf231_Gcc.a(nwk.o)
 .text.nwkBroadcastForMe
                0x0040b114       0x54 ./../../../../../../Atmel_lib/BitCloud_SAM3S_EK_1_14_0/BitCloud/lib/libBc_All_At91sam3s4c_Rf231_Gcc.a(nwk.o)
 .text.nwkIsJoiningForbidden
                0x0040b168       0x68 ./../../../../../../Atmel_lib/BitCloud_SAM3S_EK_1_14_0/BitCloud/lib/libBc_All_At91sam3s4c_Rf231_Gcc.a(nwk.o)
 .text.nwkIsPassiveAckDone.isra.4
                0x0040b1d0       0x38 ./../../../../../../Atmel_lib/BitCloud_SAM3S_EK_1_14_0/BitCloud/lib/libBc_All_At91sam3s4c_Rf231_Gcc.a(nwk.o)
 .text.nwkTxDelayReq
                0x0040b208      0x1c4 ./../../../../../../Atmel_lib/BitCloud_SAM3S_EK_1_14_0/BitCloud/lib/libBc_All_At91sam3s4c_Rf231_Gcc.a(nwk.o)
 .text.nwkEDScanTaskHandler
                0x0040b3cc       0xa4 ./../../../../../../Atmel_lib/BitCloud_SAM3S_EK_1_14_0/BitCloud/lib/libBc_All_At91sam3s4c_Rf231_Gcc.a(nwk.o)
 .text.nwkDiscoveryTaskHandler
                0x0040b470       0xac ./../../../../../../Atmel_lib/BitCloud_SAM3S_EK_1_14_0/BitCloud/lib/libBc_All_At91sam3s4c_Rf231_Gcc.a(nwk.o)
 .text.nwkDataConf
                0x0040b51c       0x40 ./../../../../../../Atmel_lib/BitCloud_SAM3S_EK_1_14_0/BitCloud/lib/libBc_All_At91sam3s4c_Rf231_Gcc.a(nwk.o)
 .text.nwkConfirmDataTx
                0x0040b55c       0x1e ./../../../../../../Atmel_lib/BitCloud_SAM3S_EK_1_14_0/BitCloud/lib/libBc_All_At91sam3s4c_Rf231_Gcc.a(nwk.o)
 *fill*         0x0040b57a        0x2 00
 .text.nwkRouteDiscoveryTableTimerFired
                0x0040b57c       0x4c ./../../../../../../Atmel_lib/BitCloud_SAM3S_EK_1_14_0/BitCloud/lib/libBc_All_At91sam3s4c_Rf231_Gcc.a(nwk.o)
 .text.nwkPermitJoiningTaskHandler
                0x0040b5c8       0xb0 ./../../../../../../Atmel_lib/BitCloud_SAM3S_EK_1_14_0/BitCloud/lib/libBc_All_At91sam3s4c_Rf231_Gcc.a(nwk.o)
 .text.nwkResetNeighborTable
                0x0040b678       0x7c ./../../../../../../Atmel_lib/BitCloud_SAM3S_EK_1_14_0/BitCloud/lib/libBc_All_At91sam3s4c_Rf231_Gcc.a(nwk.o)
 .text.nwkStartRouterTaskHandler
                0x0040b6f4       0xc8 ./../../../../../../Atmel_lib/BitCloud_SAM3S_EK_1_14_0/BitCloud/lib/libBc_All_At91sam3s4c_Rf231_Gcc.a(nwk.o)
 .text.nwkConfirmLeaveItselfTx
                0x0040b7bc       0x40 ./../../../../../../Atmel_lib/BitCloud_SAM3S_EK_1_14_0/BitCloud/lib/libBc_All_At91sam3s4c_Rf231_Gcc.a(nwk.o)
 .text.nwkResetTaskHandler
                0x0040b7fc       0x50 ./../../../../../../Atmel_lib/BitCloud_SAM3S_EK_1_14_0/BitCloud/lib/libBc_All_At91sam3s4c_Rf231_Gcc.a(nwk.o)
 .text.nwkSyncTaskHandler
                0x0040b84c       0x9c ./../../../../../../Atmel_lib/BitCloud_SAM3S_EK_1_14_0/BitCloud/lib/libBc_All_At91sam3s4c_Rf231_Gcc.a(nwk.o)
 .text.nwkSyncMacPollConf
                0x0040b8e8       0x5c ./../../../../../../Atmel_lib/BitCloud_SAM3S_EK_1_14_0/BitCloud/lib/libBc_All_At91sam3s4c_Rf231_Gcc.a(nwk.o)
 .text.nwkAssociate
                0x0040b944       0x84 ./../../../../../../Atmel_lib/BitCloud_SAM3S_EK_1_14_0/BitCloud/lib/libBc_All_At91sam3s4c_Rf231_Gcc.a(nwk.o)
 .text.MAC_AssociateConf
                0x0040b9c8       0xc0 ./../../../../../../Atmel_lib/BitCloud_SAM3S_EK_1_14_0/BitCloud/lib/libBc_All_At91sam3s4c_Rf231_Gcc.a(nwk.o)
 .text.nwkGetSuitableParent
                0x0040ba88       0x68 ./../../../../../../Atmel_lib/BitCloud_SAM3S_EK_1_14_0/BitCloud/lib/libBc_All_At91sam3s4c_Rf231_Gcc.a(nwk.o)
 .text.nwkJoinReqMacSetConf
                0x0040baf0      0x170 ./../../../../../../Atmel_lib/BitCloud_SAM3S_EK_1_14_0/BitCloud/lib/libBc_All_At91sam3s4c_Rf231_Gcc.a(nwk.o)
 .text.macLatencyFired
                0x0040bc60        0x4 ./../../../../../../Atmel_lib/BitCloud_SAM3S_EK_1_14_0/BitCloud/lib/libBc_All_At91sam3s4c_Rf231_Gcc.a(nwk.o)
 .text.nwkConfirmJoinReqTx
                0x0040bc64       0x4c ./../../../../../../Atmel_lib/BitCloud_SAM3S_EK_1_14_0/BitCloud/lib/libBc_All_At91sam3s4c_Rf231_Gcc.a(nwk.o)
 .text.responseWaitTimerFired
                0x0040bcb0       0x50 ./../../../../../../Atmel_lib/BitCloud_SAM3S_EK_1_14_0/BitCloud/lib/libBc_All_At91sam3s4c_Rf231_Gcc.a(nwk.o)
 .text.nwkJoinReqMacPollConf
                0x0040bd00       0x50 ./../../../../../../Atmel_lib/BitCloud_SAM3S_EK_1_14_0/BitCloud/lib/libBc_All_At91sam3s4c_Rf231_Gcc.a(nwk.o)
 .text.nwkRejoinResponseFrameInd
                0x0040bd50      0x164 ./../../../../../../Atmel_lib/BitCloud_SAM3S_EK_1_14_0/BitCloud/lib/libBc_All_At91sam3s4c_Rf231_Gcc.a(nwk.o)
 .text.nwkAllocOutputPacket.constprop.55
                0x0040beb4       0x30 ./../../../../../../Atmel_lib/BitCloud_SAM3S_EK_1_14_0/BitCloud/lib/libBc_All_At91sam3s4c_Rf231_Gcc.a(nwk.o)
 .text.nwkTryToProcessCommandReq
                0x0040bee4       0x34 ./../../../../../../Atmel_lib/BitCloud_SAM3S_EK_1_14_0/BitCloud/lib/libBc_All_At91sam3s4c_Rf231_Gcc.a(nwk.o)
 .text.nwkCommandReq
                0x0040bf18       0x18 ./../../../../../../Atmel_lib/BitCloud_SAM3S_EK_1_14_0/BitCloud/lib/libBc_All_At91sam3s4c_Rf231_Gcc.a(nwk.o)
 .text.nwkConfirmNetworkStatusTx
                0x0040bf30       0x4c ./../../../../../../Atmel_lib/BitCloud_SAM3S_EK_1_14_0/BitCloud/lib/libBc_All_At91sam3s4c_Rf231_Gcc.a(nwk.o)
 .text.nwkLinkStatusTimerFired
                0x0040bf7c       0x1c ./../../../../../../Atmel_lib/BitCloud_SAM3S_EK_1_14_0/BitCloud/lib/libBc_All_At91sam3s4c_Rf231_Gcc.a(nwk.o)
 .text.nwkRejoinCmdPrepareAndSend
                0x0040bf98       0x34 ./../../../../../../Atmel_lib/BitCloud_SAM3S_EK_1_14_0/BitCloud/lib/libBc_All_At91sam3s4c_Rf231_Gcc.a(nwk.o)
 .text.nwkJoinReqMacRxEnableConf
                0x0040bfcc       0x74 ./../../../../../../Atmel_lib/BitCloud_SAM3S_EK_1_14_0/BitCloud/lib/libBc_All_At91sam3s4c_Rf231_Gcc.a(nwk.o)
 .text.nwkJoinReqMacGetConf
                0x0040c040       0x30 ./../../../../../../Atmel_lib/BitCloud_SAM3S_EK_1_14_0/BitCloud/lib/libBc_All_At91sam3s4c_Rf231_Gcc.a(nwk.o)
 .text.nwkSendAddressConflictNwkStatus.constprop.53
                0x0040c070       0x74 ./../../../../../../Atmel_lib/BitCloud_SAM3S_EK_1_14_0/BitCloud/lib/libBc_All_At91sam3s4c_Rf231_Gcc.a(nwk.o)
 .text.nwkAddressConflictMacSetConf
                0x0040c0e4       0x44 ./../../../../../../Atmel_lib/BitCloud_SAM3S_EK_1_14_0/BitCloud/lib/libBc_All_At91sam3s4c_Rf231_Gcc.a(nwk.o)
 .text.nwkRemoveAllChildren.constprop.54
                0x0040c128       0x9c ./../../../../../../Atmel_lib/BitCloud_SAM3S_EK_1_14_0/BitCloud/lib/libBc_All_At91sam3s4c_Rf231_Gcc.a(nwk.o)
 .text.nwkFreePacket
                0x0040c1c4       0x54 ./../../../../../../Atmel_lib/BitCloud_SAM3S_EK_1_14_0/BitCloud/lib/libBc_All_At91sam3s4c_Rf231_Gcc.a(nwk.o)
 .text.nwkSendRouteErrorStatus.constprop.56
                0x0040c218       0x68 ./../../../../../../Atmel_lib/BitCloud_SAM3S_EK_1_14_0/BitCloud/lib/libBc_All_At91sam3s4c_Rf231_Gcc.a(nwk.o)
 .text.nwkTxConf
                0x0040c280      0x168 ./../../../../../../Atmel_lib/BitCloud_SAM3S_EK_1_14_0/BitCloud/lib/libBc_All_At91sam3s4c_Rf231_Gcc.a(nwk.o)
 .text.nwkProcessDelayStatus
                0x0040c3e8       0xb4 ./../../../../../../Atmel_lib/BitCloud_SAM3S_EK_1_14_0/BitCloud/lib/libBc_All_At91sam3s4c_Rf231_Gcc.a(nwk.o)
 .text.MAC_DataConf
                0x0040c49c       0x20 ./../../../../../../Atmel_lib/BitCloud_SAM3S_EK_1_14_0/BitCloud/lib/libBc_All_At91sam3s4c_Rf231_Gcc.a(nwk.o)
 .text.nwkLeaveReqMacResetConf
                0x0040c4bc       0xd0 ./../../../../../../Atmel_lib/BitCloud_SAM3S_EK_1_14_0/BitCloud/lib/libBc_All_At91sam3s4c_Rf231_Gcc.a(nwk.o)
 .text.nwkTransmitOutputPacket.isra.25
                0x0040c58c       0x3c ./../../../../../../Atmel_lib/BitCloud_SAM3S_EK_1_14_0/BitCloud/lib/libBc_All_At91sam3s4c_Rf231_Gcc.a(nwk.o)
 .text.nwkSendDiscoveryCommand
                0x0040c5c8       0x5c ./../../../../../../Atmel_lib/BitCloud_SAM3S_EK_1_14_0/BitCloud/lib/libBc_All_At91sam3s4c_Rf231_Gcc.a(nwk.o)
 .text.nwkRouteDiscoveryTableTaskHandler
                0x0040c624       0x80 ./../../../../../../Atmel_lib/BitCloud_SAM3S_EK_1_14_0/BitCloud/lib/libBc_All_At91sam3s4c_Rf231_Gcc.a(nwk.o)
 .text.nwkTxDelayTimerFired
                0x0040c6a4       0x58 ./../../../../../../Atmel_lib/BitCloud_SAM3S_EK_1_14_0/BitCloud/lib/libBc_All_At91sam3s4c_Rf231_Gcc.a(nwk.o)
 .text.nwkMeshRouteDiscoveryConf
                0x0040c6fc       0x54 ./../../../../../../Atmel_lib/BitCloud_SAM3S_EK_1_14_0/BitCloud/lib/libBc_All_At91sam3s4c_Rf231_Gcc.a(nwk.o)
 .text.NWK_GetShortAddr
                0x0040c750        0xc ./../../../../../../Atmel_lib/BitCloud_SAM3S_EK_1_14_0/BitCloud/lib/libBc_All_At91sam3s4c_Rf231_Gcc.a(nwk.o)
                0x0040c750                NWK_GetShortAddr
 .text.NWK_IsStaticAddressingMode
                0x0040c75c        0xc ./../../../../../../Atmel_lib/BitCloud_SAM3S_EK_1_14_0/BitCloud/lib/libBc_All_At91sam3s4c_Rf231_Gcc.a(nwk.o)
                0x0040c75c                NWK_IsStaticAddressingMode
 .text.NWK_RemoveFromAddressMap
                0x0040c768       0x12 ./../../../../../../Atmel_lib/BitCloud_SAM3S_EK_1_14_0/BitCloud/lib/libBc_All_At91sam3s4c_Rf231_Gcc.a(nwk.o)
                0x0040c768                NWK_RemoveFromAddressMap
 *fill*         0x0040c77a        0x2 00
 .text.NWK_NetworkDiscoveryReq
                0x0040c77c       0x30 ./../../../../../../Atmel_lib/BitCloud_SAM3S_EK_1_14_0/BitCloud/lib/libBc_All_At91sam3s4c_Rf231_Gcc.a(nwk.o)
                0x0040c77c                NWK_NetworkDiscoveryReq
 .text.MAC_BeaconNotifyInd
                0x0040c7ac      0x400 ./../../../../../../Atmel_lib/BitCloud_SAM3S_EK_1_14_0/BitCloud/lib/libBc_All_At91sam3s4c_Rf231_Gcc.a(nwk.o)
                0x0040c7ac                MAC_BeaconNotifyInd
 .text.NWK_EDScanReq
                0x0040cbac       0x30 ./../../../../../../Atmel_lib/BitCloud_SAM3S_EK_1_14_0/BitCloud/lib/libBc_All_At91sam3s4c_Rf231_Gcc.a(nwk.o)
                0x0040cbac                NWK_EDScanReq
 .text.NWK_NetworkFormationReq
                0x0040cbdc       0x30 ./../../../../../../Atmel_lib/BitCloud_SAM3S_EK_1_14_0/BitCloud/lib/libBc_All_At91sam3s4c_Rf231_Gcc.a(nwk.o)
                0x0040cbdc                NWK_NetworkFormationReq
 .text.NWK_IsGroupMember
                0x0040cc0c       0x34 ./../../../../../../Atmel_lib/BitCloud_SAM3S_EK_1_14_0/BitCloud/lib/libBc_All_At91sam3s4c_Rf231_Gcc.a(nwk.o)
                0x0040cc0c                NWK_IsGroupMember
 .text.nwkRetransmitInputPacket
                0x0040cc40       0xe8 ./../../../../../../Atmel_lib/BitCloud_SAM3S_EK_1_14_0/BitCloud/lib/libBc_All_At91sam3s4c_Rf231_Gcc.a(nwk.o)
 .text.NWK_DataResp
                0x0040cd28       0x14 ./../../../../../../Atmel_lib/BitCloud_SAM3S_EK_1_14_0/BitCloud/lib/libBc_All_At91sam3s4c_Rf231_Gcc.a(nwk.o)
                0x0040cd28                NWK_DataResp
 .text.unlikely.nwkRxIndication
                0x0040cd3c      0x1f4 ./../../../../../../Atmel_lib/BitCloud_SAM3S_EK_1_14_0/BitCloud/lib/libBc_All_At91sam3s4c_Rf231_Gcc.a(nwk.o)
 .text.unlikely.nwkRxRetransmit
                0x0040cf30       0xb4 ./../../../../../../Atmel_lib/BitCloud_SAM3S_EK_1_14_0/BitCloud/lib/libBc_All_At91sam3s4c_Rf231_Gcc.a(nwk.o)
 .text.NWK_ResetGroups
                0x0040cfe4       0x40 ./../../../../../../Atmel_lib/BitCloud_SAM3S_EK_1_14_0/BitCloud/lib/libBc_All_At91sam3s4c_Rf231_Gcc.a(nwk.o)
                0x0040cfe4                NWK_ResetGroups
 .text.nwkResetMacResetConf
                0x0040d024      0x340 ./../../../../../../Atmel_lib/BitCloud_SAM3S_EK_1_14_0/BitCloud/lib/libBc_All_At91sam3s4c_Rf231_Gcc.a(nwk.o)
 .text.NWK_GetParentShortAddr
                0x0040d364        0xc ./../../../../../../Atmel_lib/BitCloud_SAM3S_EK_1_14_0/BitCloud/lib/libBc_All_At91sam3s4c_Rf231_Gcc.a(nwk.o)
                0x0040d364                NWK_GetParentShortAddr
 .text.NWK_GetPanId
                0x0040d370        0xc ./../../../../../../Atmel_lib/BitCloud_SAM3S_EK_1_14_0/BitCloud/lib/libBc_All_At91sam3s4c_Rf231_Gcc.a(nwk.o)
                0x0040d370                NWK_GetPanId
 .text.NWK_GetExtPanId
                0x0040d37c       0x10 ./../../../../../../Atmel_lib/BitCloud_SAM3S_EK_1_14_0/BitCloud/lib/libBc_All_At91sam3s4c_Rf231_Gcc.a(nwk.o)
                0x0040d37c                NWK_GetExtPanId
 .text.NWK_GetDeviceType
                0x0040d38c        0xc ./../../../../../../Atmel_lib/BitCloud_SAM3S_EK_1_14_0/BitCloud/lib/libBc_All_At91sam3s4c_Rf231_Gcc.a(nwk.o)
                0x0040d38c                NWK_GetDeviceType
 .text.NWK_GetLogicalChannel
                0x0040d398        0xc ./../../../../../../Atmel_lib/BitCloud_SAM3S_EK_1_14_0/BitCloud/lib/libBc_All_At91sam3s4c_Rf231_Gcc.a(nwk.o)
                0x0040d398                NWK_GetLogicalChannel
 .text.NWK_SetLogicalChannel
                0x0040d3a4        0xc ./../../../../../../Atmel_lib/BitCloud_SAM3S_EK_1_14_0/BitCloud/lib/libBc_All_At91sam3s4c_Rf231_Gcc.a(nwk.o)
                0x0040d3a4                NWK_SetLogicalChannel
 .text.NWK_GetBroadcastDeliveryTime
                0x0040d3b0        0xc ./../../../../../../Atmel_lib/BitCloud_SAM3S_EK_1_14_0/BitCloud/lib/libBc_All_At91sam3s4c_Rf231_Gcc.a(nwk.o)
                0x0040d3b0                NWK_GetBroadcastDeliveryTime
 .text.NWK_GetManagerAddr
                0x0040d3bc        0xc ./../../../../../../Atmel_lib/BitCloud_SAM3S_EK_1_14_0/BitCloud/lib/libBc_All_At91sam3s4c_Rf231_Gcc.a(nwk.o)
                0x0040d3bc                NWK_GetManagerAddr
 .text.NWK_SetManagerAddr
                0x0040d3c8        0xc ./../../../../../../Atmel_lib/BitCloud_SAM3S_EK_1_14_0/BitCloud/lib/libBc_All_At91sam3s4c_Rf231_Gcc.a(nwk.o)
                0x0040d3c8                NWK_SetManagerAddr
 .text.NWK_SetUpdateId
                0x0040d3d4        0xc ./../../../../../../Atmel_lib/BitCloud_SAM3S_EK_1_14_0/BitCloud/lib/libBc_All_At91sam3s4c_Rf231_Gcc.a(nwk.o)
                0x0040d3d4                NWK_SetUpdateId
 .text.NWK_GetTransmitCouner
                0x0040d3e0        0xc ./../../../../../../Atmel_lib/BitCloud_SAM3S_EK_1_14_0/BitCloud/lib/libBc_All_At91sam3s4c_Rf231_Gcc.a(nwk.o)
                0x0040d3e0                NWK_GetTransmitCouner
 .text.NWK_GetTransmitFailureCounter
                0x0040d3ec        0xc ./../../../../../../Atmel_lib/BitCloud_SAM3S_EK_1_14_0/BitCloud/lib/libBc_All_At91sam3s4c_Rf231_Gcc.a(nwk.o)
                0x0040d3ec                NWK_GetTransmitFailureCounter
 .text.NWK_ResetTransmitCounters
                0x0040d3f8       0x10 ./../../../../../../Atmel_lib/BitCloud_SAM3S_EK_1_14_0/BitCloud/lib/libBc_All_At91sam3s4c_Rf231_Gcc.a(nwk.o)
                0x0040d3f8                NWK_ResetTransmitCounters
 .text.NWK_JoinReq
                0x0040d408       0x28 ./../../../../../../Atmel_lib/BitCloud_SAM3S_EK_1_14_0/BitCloud/lib/libBc_All_At91sam3s4c_Rf231_Gcc.a(nwk.o)
                0x0040d408                NWK_JoinReq
 .text.NWK_RemoveNeighbor
                0x0040d430       0x4c ./../../../../../../Atmel_lib/BitCloud_SAM3S_EK_1_14_0/BitCloud/lib/libBc_All_At91sam3s4c_Rf231_Gcc.a(nwk.o)
                0x0040d430                NWK_RemoveNeighbor
 .text.neighborTimerFired
                0x0040d47c       0x50 ./../../../../../../Atmel_lib/BitCloud_SAM3S_EK_1_14_0/BitCloud/lib/libBc_All_At91sam3s4c_Rf231_Gcc.a(nwk.o)
 .text.NWK_LeaveReq
                0x0040d4cc       0x30 ./../../../../../../Atmel_lib/BitCloud_SAM3S_EK_1_14_0/BitCloud/lib/libBc_All_At91sam3s4c_Rf231_Gcc.a(nwk.o)
                0x0040d4cc                NWK_LeaveReq
 .text.NWK_LoopbackTxReq
                0x0040d4fc       0x30 ./../../../../../../Atmel_lib/BitCloud_SAM3S_EK_1_14_0/BitCloud/lib/libBc_All_At91sam3s4c_Rf231_Gcc.a(nwk.o)
                0x0040d4fc                NWK_LoopbackTxReq
 .text.nwkDataConfTaskHandler
                0x0040d52c       0x48 ./../../../../../../Atmel_lib/BitCloud_SAM3S_EK_1_14_0/BitCloud/lib/libBc_All_At91sam3s4c_Rf231_Gcc.a(nwk.o)
 .text.NWK_DataReq
                0x0040d574      0x1d0 ./../../../../../../Atmel_lib/BitCloud_SAM3S_EK_1_14_0/BitCloud/lib/libBc_All_At91sam3s4c_Rf231_Gcc.a(nwk.o)
                0x0040d574                NWK_DataReq
 .text.NWK_FindNeighborByShortAddr
                0x0040d744       0x28 ./../../../../../../Atmel_lib/BitCloud_SAM3S_EK_1_14_0/BitCloud/lib/libBc_All_At91sam3s4c_Rf231_Gcc.a(nwk.o)
                0x0040d744                NWK_FindNeighborByShortAddr
 .text.nwkAllocNonConflAddr
                0x0040d76c       0xa0 ./../../../../../../Atmel_lib/BitCloud_SAM3S_EK_1_14_0/BitCloud/lib/libBc_All_At91sam3s4c_Rf231_Gcc.a(nwk.o)
 .text.NWK_NetworkDiscoveryConf
                0x0040d80c       0x90 ./../../../../../../Atmel_lib/BitCloud_SAM3S_EK_1_14_0/BitCloud/lib/libBc_All_At91sam3s4c_Rf231_Gcc.a(nwk.o)
 .text.nwkJoinReqTaskHandler
                0x0040d89c      0x148 ./../../../../../../Atmel_lib/BitCloud_SAM3S_EK_1_14_0/BitCloud/lib/libBc_All_At91sam3s4c_Rf231_Gcc.a(nwk.o)
 .text.nwkAllocateShortAddr.isra.45
                0x0040d9e4       0x34 ./../../../../../../Atmel_lib/BitCloud_SAM3S_EK_1_14_0/BitCloud/lib/libBc_All_At91sam3s4c_Rf231_Gcc.a(nwk.o)
 .text.nwkResolveAddressConflict
                0x0040da18      0x174 ./../../../../../../Atmel_lib/BitCloud_SAM3S_EK_1_14_0/BitCloud/lib/libBc_All_At91sam3s4c_Rf231_Gcc.a(nwk.o)
 .text.nwkAddressConflictTaskHandler
                0x0040db8c       0x8c ./../../../../../../Atmel_lib/BitCloud_SAM3S_EK_1_14_0/BitCloud/lib/libBc_All_At91sam3s4c_Rf231_Gcc.a(nwk.o)
 .text.nwkStatusFrameInd
                0x0040dc18       0x48 ./../../../../../../Atmel_lib/BitCloud_SAM3S_EK_1_14_0/BitCloud/lib/libBc_All_At91sam3s4c_Rf231_Gcc.a(nwk.o)
 .text.nwkAddChild
                0x0040dc60      0x244 ./../../../../../../Atmel_lib/BitCloud_SAM3S_EK_1_14_0/BitCloud/lib/libBc_All_At91sam3s4c_Rf231_Gcc.a(nwk.o)
 .text.nwkRejoinRequestFrameInd
                0x0040dea4      0x110 ./../../../../../../Atmel_lib/BitCloud_SAM3S_EK_1_14_0/BitCloud/lib/libBc_All_At91sam3s4c_Rf231_Gcc.a(nwk.o)
 .text.MAC_AssociateInd
                0x0040dfb4       0x98 ./../../../../../../Atmel_lib/BitCloud_SAM3S_EK_1_14_0/BitCloud/lib/libBc_All_At91sam3s4c_Rf231_Gcc.a(nwk.o)
                0x0040dfb4                MAC_AssociateInd
 .text.nwkGetNextHop
                0x0040e04c      0x1c4 ./../../../../../../Atmel_lib/BitCloud_SAM3S_EK_1_14_0/BitCloud/lib/libBc_All_At91sam3s4c_Rf231_Gcc.a(nwk.o)
 .text.nwkProcessRouteRequest
                0x0040e210      0x198 ./../../../../../../Atmel_lib/BitCloud_SAM3S_EK_1_14_0/BitCloud/lib/libBc_All_At91sam3s4c_Rf231_Gcc.a(nwk.o)
 .text.NWK_GetExtByShortAddress
                0x0040e3a8       0x3c ./../../../../../../Atmel_lib/BitCloud_SAM3S_EK_1_14_0/BitCloud/lib/libBc_All_At91sam3s4c_Rf231_Gcc.a(nwk.o)
                0x0040e3a8                NWK_GetExtByShortAddress
 .text.nwkPrepareRouteRequestTx
                0x0040e3e4      0x118 ./../../../../../../Atmel_lib/BitCloud_SAM3S_EK_1_14_0/BitCloud/lib/libBc_All_At91sam3s4c_Rf231_Gcc.a(nwk.o)
 .text.nwkPrepareNetworkStatusTx
                0x0040e4fc      0x130 ./../../../../../../Atmel_lib/BitCloud_SAM3S_EK_1_14_0/BitCloud/lib/libBc_All_At91sam3s4c_Rf231_Gcc.a(nwk.o)
 .text.nwkPrepareRouteReplyTx
                0x0040e62c      0x244 ./../../../../../../Atmel_lib/BitCloud_SAM3S_EK_1_14_0/BitCloud/lib/libBc_All_At91sam3s4c_Rf231_Gcc.a(nwk.o)
 .text.NWK_FindNeighborByExtAddr
                0x0040e870       0x34 ./../../../../../../Atmel_lib/BitCloud_SAM3S_EK_1_14_0/BitCloud/lib/libBc_All_At91sam3s4c_Rf231_Gcc.a(nwk.o)
                0x0040e870                NWK_FindNeighborByExtAddr
 .text.nwkLeaveTaskHandler
                0x0040e8a4       0xf8 ./../../../../../../Atmel_lib/BitCloud_SAM3S_EK_1_14_0/BitCloud/lib/libBc_All_At91sam3s4c_Rf231_Gcc.a(nwk.o)
 .text.nwkConfirmLeaveChildTx
                0x0040e99c       0x60 ./../../../../../../Atmel_lib/BitCloud_SAM3S_EK_1_14_0/BitCloud/lib/libBc_All_At91sam3s4c_Rf231_Gcc.a(nwk.o)
 .text.nwkConfirmJoinRespTx
                0x0040e9fc       0x46 ./../../../../../../Atmel_lib/BitCloud_SAM3S_EK_1_14_0/BitCloud/lib/libBc_All_At91sam3s4c_Rf231_Gcc.a(nwk.o)
 .text.nwkConfirmAddrConflictJoinRespTx
                0x0040ea42       0x22 ./../../../../../../Atmel_lib/BitCloud_SAM3S_EK_1_14_0/BitCloud/lib/libBc_All_At91sam3s4c_Rf231_Gcc.a(nwk.o)
 .text.nwkLeaveFrameInd
                0x0040ea64       0xd8 ./../../../../../../Atmel_lib/BitCloud_SAM3S_EK_1_14_0/BitCloud/lib/libBc_All_At91sam3s4c_Rf231_Gcc.a(nwk.o)
 .text.nwkJoinIndMacCommStatusInd
                0x0040eb3c       0x3e ./../../../../../../Atmel_lib/BitCloud_SAM3S_EK_1_14_0/BitCloud/lib/libBc_All_At91sam3s4c_Rf231_Gcc.a(nwk.o)
 *fill*         0x0040eb7a        0x2 00
 .text.NWK_GetShortByExtAddress
                0x0040eb7c       0x38 ./../../../../../../Atmel_lib/BitCloud_SAM3S_EK_1_14_0/BitCloud/lib/libBc_All_At91sam3s4c_Rf231_Gcc.a(nwk.o)
                0x0040eb7c                NWK_GetShortByExtAddress
 .text.NWK_LinkShortAndExtAddress
                0x0040ebb4       0x6e ./../../../../../../Atmel_lib/BitCloud_SAM3S_EK_1_14_0/BitCloud/lib/libBc_All_At91sam3s4c_Rf231_Gcc.a(nwk.o)
                0x0040ebb4                NWK_LinkShortAndExtAddress
 *fill*         0x0040ec22        0x2 00
 .text.nwkRouteReplyFrameInd
                0x0040ec24      0x1b8 ./../../../../../../Atmel_lib/BitCloud_SAM3S_EK_1_14_0/BitCloud/lib/libBc_All_At91sam3s4c_Rf231_Gcc.a(nwk.o)
 .text.nwkRouteRequestFrameInd
                0x0040eddc       0xdc ./../../../../../../Atmel_lib/BitCloud_SAM3S_EK_1_14_0/BitCloud/lib/libBc_All_At91sam3s4c_Rf231_Gcc.a(nwk.o)
 .text.NWK_GetNeighborTable
                0x0040eeb8        0x8 ./../../../../../../Atmel_lib/BitCloud_SAM3S_EK_1_14_0/BitCloud/lib/libBc_All_At91sam3s4c_Rf231_Gcc.a(nwk.o)
                0x0040eeb8                NWK_GetNeighborTable
 .text.NWK_GetNeighborsLqi
                0x0040eec0       0x1c ./../../../../../../Atmel_lib/BitCloud_SAM3S_EK_1_14_0/BitCloud/lib/libBc_All_At91sam3s4c_Rf231_Gcc.a(nwk.o)
                0x0040eec0                NWK_GetNeighborsLqi
 .text.NWK_IsKnownChild
                0x0040eedc       0x1e ./../../../../../../Atmel_lib/BitCloud_SAM3S_EK_1_14_0/BitCloud/lib/libBc_All_At91sam3s4c_Rf231_Gcc.a(nwk.o)
                0x0040eedc                NWK_IsKnownChild
 .text.MAC_OrphanInd
                0x0040eefa        0x2 ./../../../../../../Atmel_lib/BitCloud_SAM3S_EK_1_14_0/BitCloud/lib/libBc_All_At91sam3s4c_Rf231_Gcc.a(nwk.o)
                0x0040eefa                MAC_OrphanInd
 .text.NWK_PermitJoiningReq
                0x0040eefc       0x3c ./../../../../../../Atmel_lib/BitCloud_SAM3S_EK_1_14_0/BitCloud/lib/libBc_All_At91sam3s4c_Rf231_Gcc.a(nwk.o)
                0x0040eefc                NWK_PermitJoiningReq
 .text.NWK_ResetReq
                0x0040ef38       0x28 ./../../../../../../Atmel_lib/BitCloud_SAM3S_EK_1_14_0/BitCloud/lib/libBc_All_At91sam3s4c_Rf231_Gcc.a(nwk.o)
                0x0040ef38                NWK_ResetReq
 .text.NWK_Init
                0x0040ef60       0x2c ./../../../../../../Atmel_lib/BitCloud_SAM3S_EK_1_14_0/BitCloud/lib/libBc_All_At91sam3s4c_Rf231_Gcc.a(nwk.o)
                0x0040ef60                NWK_Init
 .text.NWK_GatherPowerFailureInfo
                0x0040ef8c       0x10 ./../../../../../../Atmel_lib/BitCloud_SAM3S_EK_1_14_0/BitCloud/lib/libBc_All_At91sam3s4c_Rf231_Gcc.a(nwk.o)
                0x0040ef8c                NWK_GatherPowerFailureInfo
 .text.NWK_RouteDiscoveryReq
                0x0040ef9c       0x34 ./../../../../../../Atmel_lib/BitCloud_SAM3S_EK_1_14_0/BitCloud/lib/libBc_All_At91sam3s4c_Rf231_Gcc.a(nwk.o)
                0x0040ef9c                NWK_RouteDiscoveryReq
 .text.nwkTxTaskHandler
                0x0040efd0      0x160 ./../../../../../../Atmel_lib/BitCloud_SAM3S_EK_1_14_0/BitCloud/lib/libBc_All_At91sam3s4c_Rf231_Gcc.a(nwk.o)
 .text.MAC_DataInd
                0x0040f130      0x454 ./../../../../../../Atmel_lib/BitCloud_SAM3S_EK_1_14_0/BitCloud/lib/libBc_All_At91sam3s4c_Rf231_Gcc.a(nwk.o)
                0x0040f130                MAC_DataInd
 .text.NWK_StartRouterReq
                0x0040f584       0x2c ./../../../../../../Atmel_lib/BitCloud_SAM3S_EK_1_14_0/BitCloud/lib/libBc_All_At91sam3s4c_Rf231_Gcc.a(nwk.o)
                0x0040f584                NWK_StartRouterReq
 .text.NWK_IsActiveTransaction
                0x0040f5b0       0x38 ./../../../../../../Atmel_lib/BitCloud_SAM3S_EK_1_14_0/BitCloud/lib/libBc_All_At91sam3s4c_Rf231_Gcc.a(nwk.o)
                0x0040f5b0                NWK_IsActiveTransaction
 .text.NWK_LaunchActivities
                0x0040f5e8       0x20 ./../../../../../../Atmel_lib/BitCloud_SAM3S_EK_1_14_0/BitCloud/lib/libBc_All_At91sam3s4c_Rf231_Gcc.a(nwk.o)
                0x0040f5e8                NWK_LaunchActivities
 .text.NWK_StopActivities
                0x0040f608       0x34 ./../../../../../../Atmel_lib/BitCloud_SAM3S_EK_1_14_0/BitCloud/lib/libBc_All_At91sam3s4c_Rf231_Gcc.a(nwk.o)
                0x0040f608                NWK_StopActivities
 .text.NWK_DeviceIsAbleToOperateInNetwork
                0x0040f63c       0x18 ./../../../../../../Atmel_lib/BitCloud_SAM3S_EK_1_14_0/BitCloud/lib/libBc_All_At91sam3s4c_Rf231_Gcc.a(nwk.o)
                0x0040f63c                NWK_DeviceIsAbleToOperateInNetwork
 .text.NWK_SyncReq
                0x0040f654       0x2c ./../../../../../../Atmel_lib/BitCloud_SAM3S_EK_1_14_0/BitCloud/lib/libBc_All_At91sam3s4c_Rf231_Gcc.a(nwk.o)
                0x0040f654                NWK_SyncReq
 .text.MAC_PollInd
                0x0040f680       0x38 ./../../../../../../Atmel_lib/BitCloud_SAM3S_EK_1_14_0/BitCloud/lib/libBc_All_At91sam3s4c_Rf231_Gcc.a(nwk.o)
                0x0040f680                MAC_PollInd
 .text.MAC_SyncLossInd
                0x0040f6b8        0x2 ./../../../../../../Atmel_lib/BitCloud_SAM3S_EK_1_14_0/BitCloud/lib/libBc_All_At91sam3s4c_Rf231_Gcc.a(nwk.o)
                0x0040f6b8                MAC_SyncLossInd
 *fill*         0x0040f6ba        0x2 00
 .text.NWK_TaskHandler
                0x0040f6bc       0x70 ./../../../../../../Atmel_lib/BitCloud_SAM3S_EK_1_14_0/BitCloud/lib/libBc_All_At91sam3s4c_Rf231_Gcc.a(nwk.o)
                0x0040f6bc                NWK_TaskHandler
 .text.NWK_GetUnicastDeliveryTime
                0x0040f72c       0x34 ./../../../../../../Atmel_lib/BitCloud_SAM3S_EK_1_14_0/BitCloud/lib/libBc_All_At91sam3s4c_Rf231_Gcc.a(nwk.o)
                0x0040f72c                NWK_GetUnicastDeliveryTime
 .text.phySetFreq
                0x0040f760       0x3c ./../../../../../../Atmel_lib/BitCloud_SAM3S_EK_1_14_0/BitCloud/lib/libBc_All_At91sam3s4c_Rf231_Gcc.a(phyInit.o)
                0x0040f760                phySetFreq
 .text.RF_Init  0x0040f79c       0x5e ./../../../../../../Atmel_lib/BitCloud_SAM3S_EK_1_14_0/BitCloud/lib/libBc_All_At91sam3s4c_Rf231_Gcc.a(phyInit.o)
                0x0040f79c                RF_Init
 *fill*         0x0040f7fa        0x2 00
 .text.PHY_RegWriteReq
                0x0040f7fc       0x2c ./../../../../../../Atmel_lib/BitCloud_SAM3S_EK_1_14_0/BitCloud/lib/libBc_All_At91sam3s4c_Rf231_Gcc.a(phyRegAccess.o)
                0x0040f7fc                PHY_RegWriteReq
 .text.PHY_RegReadReq
                0x0040f828       0x2c ./../../../../../../Atmel_lib/BitCloud_SAM3S_EK_1_14_0/BitCloud/lib/libBc_All_At91sam3s4c_Rf231_Gcc.a(phyRegAccess.o)
                0x0040f828                PHY_RegReadReq
 .text.PHY_Reset
                0x0040f854       0xc4 ./../../../../../../Atmel_lib/BitCloud_SAM3S_EK_1_14_0/BitCloud/lib/libBc_All_At91sam3s4c_Rf231_Gcc.a(phyReset.o)
                0x0040f854                PHY_Reset
 .text.phyWriteRegister
                0x0040f918       0x20 ./../../../../../../Atmel_lib/BitCloud_SAM3S_EK_1_14_0/BitCloud/lib/libBc_All_At91sam3s4c_Rf231_Gcc.a(phyRfSpiProto.o)
                0x0040f918                phyWriteRegister
 .text.phyReadRegister
                0x0040f938       0x26 ./../../../../../../Atmel_lib/BitCloud_SAM3S_EK_1_14_0/BitCloud/lib/libBc_All_At91sam3s4c_Rf231_Gcc.a(phyRfSpiProto.o)
                0x0040f938                phyReadRegister
 .text.phyReadFrame
                0x0040f95e       0x1c ./../../../../../../Atmel_lib/BitCloud_SAM3S_EK_1_14_0/BitCloud/lib/libBc_All_At91sam3s4c_Rf231_Gcc.a(phyRfSpiProto.o)
                0x0040f95e                phyReadFrame
 .text.phyWriteFrame
                0x0040f97a       0x2a ./../../../../../../Atmel_lib/BitCloud_SAM3S_EK_1_14_0/BitCloud/lib/libBc_All_At91sam3s4c_Rf231_Gcc.a(phyRfSpiProto.o)
                0x0040f97a                phyWriteFrame
 .text.PHY_RndReq
                0x0040f9a4       0xdc ./../../../../../../Atmel_lib/BitCloud_SAM3S_EK_1_14_0/BitCloud/lib/libBc_All_At91sam3s4c_Rf231_Gcc.a(phyRnd.o)
                0x0040f9a4                PHY_RndReq
 .text.PHY_DownloadFrame
                0x0040fa80      0x140 ./../../../../../../Atmel_lib/BitCloud_SAM3S_EK_1_14_0/BitCloud/lib/libBc_All_At91sam3s4c_Rf231_Gcc.a(phyRxFrame.o)
                0x0040fa80                PHY_DownloadFrame
 .text.storeParameterToRf
                0x0040fbc0       0x4a ./../../../../../../Atmel_lib/BitCloud_SAM3S_EK_1_14_0/BitCloud/lib/libBc_All_At91sam3s4c_Rf231_Gcc.a(phySet.o)
 *fill*         0x0040fc0a        0x2 00
 .text.PHY_SetReq
                0x0040fc0c      0x168 ./../../../../../../Atmel_lib/BitCloud_SAM3S_EK_1_14_0/BitCloud/lib/libBc_All_At91sam3s4c_Rf231_Gcc.a(phySet.o)
                0x0040fc0c                PHY_SetReq
 .text.PHY_SetTrxStateReq
                0x0040fd74       0x88 ./../../../../../../Atmel_lib/BitCloud_SAM3S_EK_1_14_0/BitCloud/lib/libBc_All_At91sam3s4c_Rf231_Gcc.a(phySetTrxState.o)
                0x0040fd74                PHY_SetTrxStateReq
 .text.PHY_CheckStateTransition
                0x0040fdfc       0x16 ./../../../../../../Atmel_lib/BitCloud_SAM3S_EK_1_14_0/BitCloud/lib/libBc_All_At91sam3s4c_Rf231_Gcc.a(phyStateMachine.o)
                0x0040fdfc                PHY_CheckStateTransition
 *fill*         0x0040fe12        0x2 00
 .text.PHY_DataReq
                0x0040fe14       0x24 ./../../../../../../Atmel_lib/BitCloud_SAM3S_EK_1_14_0/BitCloud/lib/libBc_All_At91sam3s4c_Rf231_Gcc.a(phyTxFrame.o)
                0x0040fe14                PHY_DataReq
 .text.deleteHeadQueueElem
                0x0040fe38        0xc ./../../../../../../Atmel_lib/BitCloud_SAM3S_EK_1_14_0/BitCloud/lib/libBc_All_At91sam3s4c_Rf231_Gcc.a(queue.o)
                0x0040fe38                deleteHeadQueueElem
 .text.deleteQueueElem
                0x0040fe44       0x2c ./../../../../../../Atmel_lib/BitCloud_SAM3S_EK_1_14_0/BitCloud/lib/libBc_All_At91sam3s4c_Rf231_Gcc.a(queue.o)
                0x0040fe44                deleteQueueElem
 .text.isQueueElem
                0x0040fe70       0x12 ./../../../../../../Atmel_lib/BitCloud_SAM3S_EK_1_14_0/BitCloud/lib/libBc_All_At91sam3s4c_Rf231_Gcc.a(queue.o)
                0x0040fe70                isQueueElem
 .text.putQueueElem
                0x0040fe82       0x22 ./../../../../../../Atmel_lib/BitCloud_SAM3S_EK_1_14_0/BitCloud/lib/libBc_All_At91sam3s4c_Rf231_Gcc.a(queue.o)
                0x0040fe82                putQueueElem
 .text.SYS_DuplicateTableReset
                0x0040fea4       0x42 ./../../../../../../Atmel_lib/BitCloud_SAM3S_EK_1_14_0/BitCloud/lib/libBc_All_At91sam3s4c_Rf231_Gcc.a(sysDuplicateTable.o)
                0x0040fea4                SYS_DuplicateTableReset
 .text.duplicateTableUpdate
                0x0040fee6       0x4c ./../../../../../../Atmel_lib/BitCloud_SAM3S_EK_1_14_0/BitCloud/lib/libBc_All_At91sam3s4c_Rf231_Gcc.a(sysDuplicateTable.o)
                0x0040fee6                duplicateTableUpdate
 .text.SYS_DuplicateTableCheck
                0x0040ff32       0xa8 ./../../../../../../Atmel_lib/BitCloud_SAM3S_EK_1_14_0/BitCloud/lib/libBc_All_At91sam3s4c_Rf231_Gcc.a(sysDuplicateTable.o)
                0x0040ff32                SYS_DuplicateTableCheck
 .text.SYS_DuplicateTableClear
                0x0040ffda       0x40 ./../../../../../../Atmel_lib/BitCloud_SAM3S_EK_1_14_0/BitCloud/lib/libBc_All_At91sam3s4c_Rf231_Gcc.a(sysDuplicateTable.o)
                0x0040ffda                SYS_DuplicateTableClear
 *fill*         0x0041001a        0x2 00
 .text.SYS_PostEvent
                0x0041001c       0x40 ./../../../../../../Atmel_lib/BitCloud_SAM3S_EK_1_14_0/BitCloud/lib/libBc_All_At91sam3s4c_Rf231_Gcc.a(sysEvents.o)
                0x0041001c                SYS_PostEvent
 .text.SYS_IsEventDeliverable
                0x0041005c       0x20 ./../../../../../../Atmel_lib/BitCloud_SAM3S_EK_1_14_0/BitCloud/lib/libBc_All_At91sam3s4c_Rf231_Gcc.a(sysEvents.o)
                0x0041005c                SYS_IsEventDeliverable
 .text.SYS_IsEventSubscriber
                0x0041007c       0x1c ./../../../../../../Atmel_lib/BitCloud_SAM3S_EK_1_14_0/BitCloud/lib/libBc_All_At91sam3s4c_Rf231_Gcc.a(sysEvents.o)
                0x0041007c                SYS_IsEventSubscriber
 .text.SYS_SubscribeToEvent
                0x00410098       0x54 ./../../../../../../Atmel_lib/BitCloud_SAM3S_EK_1_14_0/BitCloud/lib/libBc_All_At91sam3s4c_Rf231_Gcc.a(sysEvents.o)
                0x00410098                SYS_SubscribeToEvent
 .text.SYS_StartTimer
                0x004100ec       0x10 ./../../../../../../Atmel_lib/BitCloud_SAM3S_EK_1_14_0/BitCloud/lib/libBc_All_At91sam3s4c_Rf231_Gcc.a(sysTimer.o)
                0x004100ec                SYS_StartTimer
 .text.SYS_StopTimer
                0x004100fc       0x12 ./../../../../../../Atmel_lib/BitCloud_SAM3S_EK_1_14_0/BitCloud/lib/libBc_All_At91sam3s4c_Rf231_Gcc.a(sysTimer.o)
                0x004100fc                SYS_StopTimer
 .text.SYS_InitTimer
                0x0041010e       0x1a ./../../../../../../Atmel_lib/BitCloud_SAM3S_EK_1_14_0/BitCloud/lib/libBc_All_At91sam3s4c_Rf231_Gcc.a(sysTimer.o)
                0x0041010e                SYS_InitTimer
 .text.machwdCalibReqHandler
                0x00410128       0x12 ./../../../../../../Atmel_lib/BitCloud_SAM3S_EK_1_14_0/BitCloud/lib/libBc_All_At91sam3s4c_Rf231_Gcc.a(machwdCalibHandler.o)
                0x00410128                machwdCalibReqHandler
 *fill*         0x0041013a        0x2 00
 .text.machwdEdReqHandler
                0x0041013c       0x10 ./../../../../../../Atmel_lib/BitCloud_SAM3S_EK_1_14_0/BitCloud/lib/libBc_All_At91sam3s4c_Rf231_Gcc.a(machwdEdHandler.o)
                0x0041013c                machwdEdReqHandler
 .text.machwdEdTaskHandler
                0x0041014c       0x18 ./../../../../../../Atmel_lib/BitCloud_SAM3S_EK_1_14_0/BitCloud/lib/libBc_All_At91sam3s4c_Rf231_Gcc.a(machwdEdHandler.o)
                0x0041014c                machwdEdTaskHandler
 .text.composePanIdAndAddress
                0x00410164       0x4a ./../../../../../../Atmel_lib/BitCloud_SAM3S_EK_1_14_0/BitCloud/lib/libBc_All_At91sam3s4c_Rf231_Gcc.a(machwdFrameRoutine.o)
 *fill*         0x004101ae        0x2 00
 .text.parsePanIdAndAddress
                0x004101b0       0x40 ./../../../../../../Atmel_lib/BitCloud_SAM3S_EK_1_14_0/BitCloud/lib/libBc_All_At91sam3s4c_Rf231_Gcc.a(machwdFrameRoutine.o)
 .text.machwdParseFrame
                0x004101f0      0x21c ./../../../../../../Atmel_lib/BitCloud_SAM3S_EK_1_14_0/BitCloud/lib/libBc_All_At91sam3s4c_Rf231_Gcc.a(machwdFrameRoutine.o)
                0x004101f0                machwdParseFrame
 .text.machwdComposeFrame
                0x0041040c      0x1a0 ./../../../../../../Atmel_lib/BitCloud_SAM3S_EK_1_14_0/BitCloud/lib/libBc_All_At91sam3s4c_Rf231_Gcc.a(machwdFrameRoutine.o)
                0x0041040c                machwdComposeFrame
 .text.machwdGetHandlerId
                0x004105ac       0x30 ./../../../../../../Atmel_lib/BitCloud_SAM3S_EK_1_14_0/BitCloud/lib/libBc_All_At91sam3s4c_Rf231_Gcc.a(machwdHandlerCtrl.o)
                0x004105ac                machwdGetHandlerId
 .text.setHandling
                0x004105dc       0x20 ./../../../../../../Atmel_lib/BitCloud_SAM3S_EK_1_14_0/BitCloud/lib/libBc_All_At91sam3s4c_Rf231_Gcc.a(machwiAssociateHandler.o)
 .text.completeHandling
                0x004105fc       0x1c ./../../../../../../Atmel_lib/BitCloud_SAM3S_EK_1_14_0/BitCloud/lib/libBc_All_At91sam3s4c_Rf231_Gcc.a(machwiAssociateHandler.o)
 .text.machwdSetConfirm
                0x00410618      0x10c ./../../../../../../Atmel_lib/BitCloud_SAM3S_EK_1_14_0/BitCloud/lib/libBc_All_At91sam3s4c_Rf231_Gcc.a(machwiAssociateHandler.o)
 .text.machwdDataConfirm
                0x00410724       0x80 ./../../../../../../Atmel_lib/BitCloud_SAM3S_EK_1_14_0/BitCloud/lib/libBc_All_At91sam3s4c_Rf231_Gcc.a(machwiAssociateHandler.o)
 .text.associateTimerFired
                0x004107a4       0xac ./../../../../../../Atmel_lib/BitCloud_SAM3S_EK_1_14_0/BitCloud/lib/libBc_All_At91sam3s4c_Rf231_Gcc.a(machwiAssociateHandler.o)
 .text.switchingCompleted
                0x00410850       0x10 ./../../../../../../Atmel_lib/BitCloud_SAM3S_EK_1_14_0/BitCloud/lib/libBc_All_At91sam3s4c_Rf231_Gcc.a(machwiAssociateHandler.o)
 .text.machwiResetAssociateHandler
                0x00410860        0xc ./../../../../../../Atmel_lib/BitCloud_SAM3S_EK_1_14_0/BitCloud/lib/libBc_All_At91sam3s4c_Rf231_Gcc.a(machwiAssociateHandler.o)
                0x00410860                machwiResetAssociateHandler
 .text.machwiAssociateReqInd
                0x0041086c       0x38 ./../../../../../../Atmel_lib/BitCloud_SAM3S_EK_1_14_0/BitCloud/lib/libBc_All_At91sam3s4c_Rf231_Gcc.a(machwiAssociateHandler.o)
                0x0041086c                machwiAssociateReqInd
 .text.machwiAssociateReqHandler
                0x004108a4       0x74 ./../../../../../../Atmel_lib/BitCloud_SAM3S_EK_1_14_0/BitCloud/lib/libBc_All_At91sam3s4c_Rf231_Gcc.a(machwiAssociateHandler.o)
                0x004108a4                machwiAssociateReqHandler
 .text.machwiAssociateRespHandler
                0x00410918       0x1c ./../../../../../../Atmel_lib/BitCloud_SAM3S_EK_1_14_0/BitCloud/lib/libBc_All_At91sam3s4c_Rf231_Gcc.a(machwiAssociateHandler.o)
                0x00410918                machwiAssociateRespHandler
 .text.machwiAssociateRespInd
                0x00410934       0x94 ./../../../../../../Atmel_lib/BitCloud_SAM3S_EK_1_14_0/BitCloud/lib/libBc_All_At91sam3s4c_Rf231_Gcc.a(machwiAssociateHandler.o)
                0x00410934                machwiAssociateRespInd
 .text.machwdDataConfirm
                0x004109c8       0x10 ./../../../../../../Atmel_lib/BitCloud_SAM3S_EK_1_14_0/BitCloud/lib/libBc_All_At91sam3s4c_Rf231_Gcc.a(machwiBeaconHandler.o)
 .text.machwiSendBeacon
                0x004109d8       0xe8 ./../../../../../../Atmel_lib/BitCloud_SAM3S_EK_1_14_0/BitCloud/lib/libBc_All_At91sam3s4c_Rf231_Gcc.a(machwiBeaconHandler.o)
                0x004109d8                machwiSendBeacon
 .text.machwiConvertmachwdDataConfirmTypes
                0x00410ac0       0x14 ./../../../../../../Atmel_lib/BitCloud_SAM3S_EK_1_14_0/BitCloud/lib/libBc_All_At91sam3s4c_Rf231_Gcc.a(machwiDataHandler.o)
                0x00410ac0                machwiConvertmachwdDataConfirmTypes
 .text.machwdDataConfirm
                0x00410ad4       0x20 ./../../../../../../Atmel_lib/BitCloud_SAM3S_EK_1_14_0/BitCloud/lib/libBc_All_At91sam3s4c_Rf231_Gcc.a(machwiDataHandler.o)
 .text.machwiPrepareDataFrame
                0x00410af4       0xb8 ./../../../../../../Atmel_lib/BitCloud_SAM3S_EK_1_14_0/BitCloud/lib/libBc_All_At91sam3s4c_Rf231_Gcc.a(machwiDataHandler.o)
                0x00410af4                machwiPrepareDataFrame
 .text.machwiDataReqHandler
                0x00410bac       0x70 ./../../../../../../Atmel_lib/BitCloud_SAM3S_EK_1_14_0/BitCloud/lib/libBc_All_At91sam3s4c_Rf231_Gcc.a(machwiDataHandler.o)
                0x00410bac                machwiDataReqHandler
 .text.PHY_CalibReq
                0x00410c1c       0x9c ./../../../../../../Atmel_lib/BitCloud_SAM3S_EK_1_14_0/BitCloud/lib/libBc_All_At91sam3s4c_Rf231_Gcc.a(phyCalib.o)
                0x00410c1c                PHY_CalibReq
 .text.PHY_EdReq
                0x00410cb8       0x3c ./../../../../../../Atmel_lib/BitCloud_SAM3S_EK_1_14_0/BitCloud/lib/libBc_All_At91sam3s4c_Rf231_Gcc.a(phyEd.o)
                0x00410cb8                PHY_EdReq
 .text.HAL_Init
                0x00410cf4       0x10 ./../../../../../../Atmel_lib/BitCloud_SAM3S_EK_1_14_0/BitCloud/lib/libHAL_deRFusb23e06_At91sam3s4c_64Mhz_Gcc.a(halInit.o)
                0x00410cf4                HAL_Init
 .text.HAL_ReadUid
                0x00410d04       0x1c ./../../../../../../Atmel_lib/BitCloud_SAM3S_EK_1_14_0/BitCloud/lib/libHAL_deRFusb23e06_At91sam3s4c_64Mhz_Gcc.a(uid.o)
                0x00410d04                HAL_ReadUid
 .text.get_nv_basic
                0x00410d20       0xd8 ./../../../../../../Atmel_lib/BitCloud_SAM3S_EK_1_14_0/BitCloud/lib/libHAL_deRFusb23e06_At91sam3s4c_64Mhz_Gcc.a(nv_basic.o)
                0x00410d20                get_nv_basic
 *(.gnu.linkonce.t.*)
 *(.rodata)
 .rodata        0x00410df8       0x18 ./../../../../../../Atmel_lib/BitCloud_SAM3S_EK_1_14_0/BitCloud/lib/libHAL_deRFusb23e06_At91sam3s4c_64Mhz_Gcc.a(halUart.o)
 .rodata        0x00410e10       0x18 ./../../../../../../Atmel_lib/BitCloud_SAM3S_EK_1_14_0/BitCloud/lib/libHAL_deRFusb23e06_At91sam3s4c_64Mhz_Gcc.a(usart.o)
 .rodata        0x00410e28        0x4 ./../../../../../../Atmel_lib/BitCloud_SAM3S_EK_1_14_0/BitCloud/lib/libHAL_deRFusb23e06_At91sam3s4c_64Mhz_Gcc.a(halExcHandler.o)
 .rodata        0x00410e2c       0x2c ./../../../../../../Atmel_lib/BitCloud_SAM3S_EK_1_14_0/BitCloud/lib/libBc_All_At91sam3s4c_Rf231_Gcc.a(taskManager.o)
 .rodata        0x00410e58       0x18 ./../../../../../../Atmel_lib/BitCloud_SAM3S_EK_1_14_0/BitCloud/lib/libBc_All_At91sam3s4c_Rf231_Gcc.a(zdo.o)
 .rodata        0x00410e70       0x20 ./../../../../../../Atmel_lib/BitCloud_SAM3S_EK_1_14_0/BitCloud/lib/libBc_All_At91sam3s4c_Rf231_Gcc.a(aps.o)
 .rodata        0x00410e90       0x16 ./../../../../../../Atmel_lib/BitCloud_SAM3S_EK_1_14_0/BitCloud/lib/libBc_All_At91sam3s4c_Rf231_Gcc.a(machwdTrxCtrl.o)
 .rodata        0x00410ea6        0x6 ./../../../../../../Atmel_lib/BitCloud_SAM3S_EK_1_14_0/BitCloud/lib/libBc_All_At91sam3s4c_Rf231_Gcc.a(machwdTxFrameHandler.o)
 .rodata        0x00410eac      0x2b8 ./../../../../../../Atmel_lib/BitCloud_SAM3S_EK_1_14_0/BitCloud/lib/libBc_All_At91sam3s4c_Rf231_Gcc.a(nwk.o)
 .rodata        0x00411164       0x15 ./../../../../../../Atmel_lib/BitCloud_SAM3S_EK_1_14_0/BitCloud/lib/libBc_All_At91sam3s4c_Rf231_Gcc.a(phySet.o)
 .rodata        0x00411179        0x2 ./../../../../../../Atmel_lib/BitCloud_SAM3S_EK_1_14_0/BitCloud/lib/libBc_All_At91sam3s4c_Rf231_Gcc.a(machwdFrameRoutine.o)
 .rodata        0x0041117b        0x2 ./../../../../../../Atmel_lib/BitCloud_SAM3S_EK_1_14_0/BitCloud/lib/libBc_All_At91sam3s4c_Rf231_Gcc.a(machwiDataHandler.o)
 *(.rodata.*)
 .rodata.str1.1
                0x0041117d      0x24f ./../../../../../../Atmel_lib/BitCloud_SAM3S_EK_1_14_0/BitCloud/lib/libHAL_deRFusb23e06_At91sam3s4c_64Mhz_Gcc.a(halExcHandler.o)
                                0x254 (size before relaxing)
 .rodata.str1.4
                0x004113cc        0x4 c:/users/user/desktop/winsync/code_files/sabre/_toolchains/yagarto_arm/bin/../lib/gcc/arm-none-eabi/4.5.1/../../../../arm-none-eabi/lib/thumb/v7m\libc.a(lib_a-impure.o)
 *(.gnu.linkonce.r.*)
                0x004113d0                . = ALIGN (0x4)
                0x004113d0                __text_end = .

.glue_7         0x00000000        0x0
 .glue_7        0x00000000        0x0 linker stubs

.glue_7t        0x00000000        0x0
 .glue_7t       0x00000000        0x0 linker stubs

.vfp11_veneer   0x00000000        0x0
 .vfp11_veneer  0x00000000        0x0 linker stubs

.v4_bx          0x00000000        0x0
 .v4_bx         0x00000000        0x0 linker stubs

.data           0x20000000      0x958 load address 0x004113d0
                0x004113d0                __data_load = LOADADDR (.data)
                0x20000000                __data = .
 *(.ramvectors)
 .ramvectors    0x20000000       0xd0 ./../../../../../../Atmel_lib/BitCloud_SAM3S_EK_1_14_0/BitCloud/lib/libHAL_deRFusb23e06_At91sam3s4c_64Mhz_Gcc.a(halVectorTable.o)
                0x20000000                __ram_vector_table
 *(.data)
 .data          0x200000d0        0x1 All_deRFusb23e06_At91sam3s4c_Rf231_Gcc/Obj/blink.o
 *fill*         0x200000d1        0x7 00
 .data          0x200000d8      0x3e0 All_deRFusb23e06_At91sam3s4c_Rf231_Gcc/Obj/csMem.o
                0x200000d8                defaultNIB
                0x20000168                defaultZIB
                0x200001a0                defaultAIB
                0x200001a8                defaultSIB
                0x200001f8                csReadOnlyItems
                0x2000021c                csMemoryItems
 .data          0x200004b8       0x48 ./../../../../../../Atmel_lib/BitCloud_SAM3S_EK_1_14_0/BitCloud/lib/libHAL_deRFusb23e06_At91sam3s4c_64Mhz_Gcc.a(halIrq.o)
 .data          0x20000500       0x28 ./../../../../../../Atmel_lib/BitCloud_SAM3S_EK_1_14_0/BitCloud/lib/libBc_All_At91sam3s4c_Rf231_Gcc.a(zdo.o)
 .data          0x20000528      0x430 c:/users/user/desktop/winsync/code_files/sabre/_toolchains/yagarto_arm/bin/../lib/gcc/arm-none-eabi/4.5.1/../../../../arm-none-eabi/lib/thumb/v7m\libc.a(lib_a-impure.o)
                0x20000528                _impure_ptr
 *(.data.*)
 *(.gnu.linkonce.d.*)
                0x20000958                . = ALIGN (0x4)
                0x20000958                __data_end = .

.bss            0x20000958     0x199c load address 0x00411d28
                0x20000958                __bss = .
 *(.bss)
 .bss           0x20000958       0x28 All_deRFusb23e06_At91sam3s4c_Rf231_Gcc/Obj/blink.o
 .bss           0x20000980        0x1 All_deRFusb23e06_At91sam3s4c_Rf231_Gcc/Obj/bspTaskManager.o
                0x20000980                bspTaskFlags
 *fill*         0x20000981        0x3 00
 .bss           0x20000984        0x8 ./../../../../../../Atmel_lib/BitCloud_SAM3S_EK_1_14_0/BitCloud/lib/libHAL_deRFusb23e06_At91sam3s4c_64Mhz_Gcc.a(halAppClock.o)
                0x20000989                halAppTimeOvfw
 .bss           0x2000098c        0xc ./../../../../../../Atmel_lib/BitCloud_SAM3S_EK_1_14_0/BitCloud/lib/libHAL_deRFusb23e06_At91sam3s4c_64Mhz_Gcc.a(halUart.o)
 .bss           0x20000998        0x8 ./../../../../../../Atmel_lib/BitCloud_SAM3S_EK_1_14_0/BitCloud/lib/libHAL_deRFusb23e06_At91sam3s4c_64Mhz_Gcc.a(halUsb.o)
                0x20000998                requestMemory
                0x2000099c                sendReqToUpper
 .bss           0x200009a0       0x18 ./../../../../../../Atmel_lib/BitCloud_SAM3S_EK_1_14_0/BitCloud/lib/libHAL_deRFusb23e06_At91sam3s4c_64Mhz_Gcc.a(halHsmci.o)
                0x200009b4                halHsmciCurrentState
 .bss           0x200009b8        0x2 ./../../../../../../Atmel_lib/BitCloud_SAM3S_EK_1_14_0/BitCloud/lib/libHAL_deRFusb23e06_At91sam3s4c_64Mhz_Gcc.a(halSleepTimerClock.o)
 *fill*         0x200009ba        0x6 00
 .bss           0x200009c0        0x8 ./../../../../../../Atmel_lib/BitCloud_SAM3S_EK_1_14_0/BitCloud/lib/libHAL_deRFusb23e06_At91sam3s4c_64Mhz_Gcc.a(halSleep.o)
 .bss           0x200009c8        0x4 ./../../../../../../Atmel_lib/BitCloud_SAM3S_EK_1_14_0/BitCloud/lib/libHAL_deRFusb23e06_At91sam3s4c_64Mhz_Gcc.a(appTimer.o)
 .bss           0x200009cc        0x4 ./../../../../../../Atmel_lib/BitCloud_SAM3S_EK_1_14_0/BitCloud/lib/libHAL_deRFusb23e06_At91sam3s4c_64Mhz_Gcc.a(halTaskManager.o)
                0x200009cc                halTaskFlags
 .bss           0x200009d0       0x1c ./../../../../../../Atmel_lib/BitCloud_SAM3S_EK_1_14_0/BitCloud/lib/libHAL_deRFusb23e06_At91sam3s4c_64Mhz_Gcc.a(sleep.o)
                0x200009d0                halSleepControl
 .bss           0x200009ec       0x20 ./../../../../../../Atmel_lib/BitCloud_SAM3S_EK_1_14_0/BitCloud/lib/libHAL_deRFusb23e06_At91sam3s4c_64Mhz_Gcc.a(usart.o)
                0x200009ec                halPointDescrip
 .bss           0x20000a0c        0xc ./../../../../../../Atmel_lib/BitCloud_SAM3S_EK_1_14_0/BitCloud/lib/libHAL_deRFusb23e06_At91sam3s4c_64Mhz_Gcc.a(usb.o)
                0x20000a0c                endOfBusResetCallback
                0x20000a10                resumeCallback
                0x20000a14                suspendCallback
 .bss           0x20000a18        0x8 ./../../../../../../Atmel_lib/BitCloud_SAM3S_EK_1_14_0/BitCloud/lib/libHAL_deRFusb23e06_At91sam3s4c_64Mhz_Gcc.a(eeprom.o)
 .bss           0x20000a20        0x2 ./../../../../../../Atmel_lib/BitCloud_SAM3S_EK_1_14_0/BitCloud/lib/libBc_All_At91sam3s4c_Rf231_Gcc.a(taskManager.o)
                0x20000a20                SYS_taskFlag
 *fill*         0x20000a22        0x2 00
 .bss           0x20000a24       0x60 ./../../../../../../Atmel_lib/BitCloud_SAM3S_EK_1_14_0/BitCloud/lib/libBc_All_At91sam3s4c_Rf231_Gcc.a(aps.o)
                0x20000a7c                apsState
 .bss           0x20000a84        0x8 ./../../../../../../Atmel_lib/BitCloud_SAM3S_EK_1_14_0/BitCloud/lib/libBc_All_At91sam3s4c_Rf231_Gcc.a(machwdManager.o)
                0x20000a84                machwdQueueDescr
 .bss           0x20000a8c        0x1 ./../../../../../../Atmel_lib/BitCloud_SAM3S_EK_1_14_0/BitCloud/lib/libBc_All_At91sam3s4c_Rf231_Gcc.a(machwdSetHandler.o)
 .bss           0x20000a8d        0x1 ./../../../../../../Atmel_lib/BitCloud_SAM3S_EK_1_14_0/BitCloud/lib/libBc_All_At91sam3s4c_Rf231_Gcc.a(machwiScanHandler.o)
 *fill*         0x20000a8e        0x2 00
 .bss           0x20000a90        0x8 ./../../../../../../Atmel_lib/BitCloud_SAM3S_EK_1_14_0/BitCloud/lib/libBc_All_At91sam3s4c_Rf231_Gcc.a(sysEvents.o)
 .bss           0x20000a98       0x24 ./../../../../../../Atmel_lib/BitCloud_SAM3S_EK_1_14_0/BitCloud/lib/libHAL_deRFusb23e06_At91sam3s4c_64Mhz_Gcc.a(nv_basic.o)
 *(.bss.*)
 *(.gnu.linkonce.b.*)
 *(COMMON)
 COMMON         0x20000abc        0xc All_deRFusb23e06_At91sam3s4c_Rf231_Gcc/Obj/fakeBSP.o
                0x20000abc                readBatteryDataCallback
                0x20000ac0                readTemperatureDataCallback
                0x20000ac4                readLightDataCallback
 COMMON         0x20000ac8      0xc50 All_deRFusb23e06_At91sam3s4c_Rf231_Gcc/Obj/csMem.o
                0x20000ac8                stackBuffers
                0x200015b0                csAIB
                0x200015b8                csZIB
                0x200015f0                csPIB
                0x20001638                csSIB
                0x20001688                csNIB
 COMMON         0x20001718       0xe4 ./../../../../../../Atmel_lib/BitCloud_SAM3S_EK_1_14_0/BitCloud/lib/libHAL_deRFusb23e06_At91sam3s4c_64Mhz_Gcc.a(halUsb.o)
                0x20001718                deviceState
                0x20001719                previousDeviceState
                0x2000171c                endpoints
 COMMON         0x200017fc        0x6 ./../../../../../../Atmel_lib/BitCloud_SAM3S_EK_1_14_0/BitCloud/lib/libHAL_deRFusb23e06_At91sam3s4c_64Mhz_Gcc.a(halMacIsr.o)
                0x200017fc                __rtimer
 *fill*         0x20001802        0x2 00
 COMMON         0x20001804       0x48 ./../../../../../../Atmel_lib/BitCloud_SAM3S_EK_1_14_0/BitCloud/lib/libHAL_deRFusb23e06_At91sam3s4c_64Mhz_Gcc.a(halExcHandler.o)
                0x20001804                halAvarRegState
 *fill*         0x2000184c        0x4 00
 COMMON         0x20001850      0x548 ./../../../../../../Atmel_lib/BitCloud_SAM3S_EK_1_14_0/BitCloud/lib/libBc_All_At91sam3s4c_Rf231_Gcc.a(zdo.o)
                0x20001850                zdoMem
 COMMON         0x20001d98      0x158 ./../../../../../../Atmel_lib/BitCloud_SAM3S_EK_1_14_0/BitCloud/lib/libBc_All_At91sam3s4c_Rf231_Gcc.a(aps.o)
                0x20001d98                apsMem
 COMMON         0x20001ef0      0x100 ./../../../../../../Atmel_lib/BitCloud_SAM3S_EK_1_14_0/BitCloud/lib/libBc_All_At91sam3s4c_Rf231_Gcc.a(macMem.o)
                0x20001ef0                macMem
 COMMON         0x20001ff0      0x2e0 ./../../../../../../Atmel_lib/BitCloud_SAM3S_EK_1_14_0/BitCloud/lib/libBc_All_At91sam3s4c_Rf231_Gcc.a(nwk.o)
                0x20001ff0                nwkMem
 COMMON         0x200022d0       0x21 ./../../../../../../Atmel_lib/BitCloud_SAM3S_EK_1_14_0/BitCloud/lib/libBc_All_At91sam3s4c_Rf231_Gcc.a(machwdFrameRoutine.o)
                0x200022d0                txBuffer
                0x200022f4                . = ALIGN (0x4)
 *fill*         0x200022f1        0x3 00
                0x200022f4                __bss_end = .

.stack          0x200022f8     0x1000 load address 0x00411d28
                0x200022f8                __stack_bottom = .
                0x200022f8                __process_stack_bottom = .
                0x200032f8                . = (. + MAIN_STACK_SIZE)
 *fill*         0x200022f8     0x1000 00
                0x200032f8                . = ALIGN (0x8)
                0x200032f8                __process_stack_top = .
                0x200032f8                __main_stack_bottom = .
                0x200032f8                . = (. + PROCESS_STACK_SIZE)
                0x200032f8                . = ALIGN (0x8)
                0x200032f8                __main_stack_top = .
                0x200032f8                __stack_top = .
                0x200032f8                __end = .

.stab
 *(.stab)

.stabstr
 *(.stabstr)

.stab.excl
 *(.stab.excl)

.stab.exclstr
 *(.stab.exclstr)

.stab.index
 *(.stab.index)

.stab.indexstr
 *(.stab.indexstr)

.ARM.attributes
                0x00000000       0x2f
 .ARM.attributes
                0x00000000       0x31 All_deRFusb23e06_At91sam3s4c_Rf231_Gcc/Obj/blink.o
 .ARM.attributes
                0x00000031       0x31 All_deRFusb23e06_At91sam3s4c_Rf231_Gcc/Obj/pdsMem.o
 .ARM.attributes
                0x00000062       0x31 All_deRFusb23e06_At91sam3s4c_Rf231_Gcc/Obj/pdsWriteData.o
 .ARM.attributes
                0x00000093       0x31 All_deRFusb23e06_At91sam3s4c_Rf231_Gcc/Obj/pdsDataServer.o
 .ARM.attributes
                0x000000c4       0x31 All_deRFusb23e06_At91sam3s4c_Rf231_Gcc/Obj/pdsInit.o
 .ARM.attributes
                0x000000f5       0x31 All_deRFusb23e06_At91sam3s4c_Rf231_Gcc/Obj/pdsTimer.o
 .ARM.attributes
                0x00000126       0x31 All_deRFusb23e06_At91sam3s4c_Rf231_Gcc/Obj/pdsEvents.o
 .ARM.attributes
                0x00000157       0x31 All_deRFusb23e06_At91sam3s4c_Rf231_Gcc/Obj/pdsMemAccess.o
 .ARM.attributes
                0x00000188       0x31 All_deRFusb23e06_At91sam3s4c_Rf231_Gcc/Obj/pdsCrcService.o
 .ARM.attributes
                0x000001b9       0x31 All_deRFusb23e06_At91sam3s4c_Rf231_Gcc/Obj/vcpVirtualUsart.o
 .ARM.attributes
                0x000001ea       0x31 All_deRFusb23e06_At91sam3s4c_Rf231_Gcc/Obj/vcpCdcProtocol.o
 .ARM.attributes
                0x0000021b       0x31 All_deRFusb23e06_At91sam3s4c_Rf231_Gcc/Obj/usbSetupProcess.o
 .ARM.attributes
                0x0000024c       0x31 All_deRFusb23e06_At91sam3s4c_Rf231_Gcc/Obj/usbDescriptors.o
 .ARM.attributes
                0x0000027d       0x31 All_deRFusb23e06_At91sam3s4c_Rf231_Gcc/Obj/usbEnumeration.o
 .ARM.attributes
                0x000002ae       0x31 All_deRFusb23e06_At91sam3s4c_Rf231_Gcc/Obj/leds.o
 .ARM.attributes
                0x000002df       0x31 All_deRFusb23e06_At91sam3s4c_Rf231_Gcc/Obj/bspTaskManager.o
 .ARM.attributes
                0x00000310       0x31 All_deRFusb23e06_At91sam3s4c_Rf231_Gcc/Obj/fakeBSP.o
 .ARM.attributes
                0x00000341       0x31 All_deRFusb23e06_At91sam3s4c_Rf231_Gcc/Obj/csPersistentMem.o
 .ARM.attributes
                0x00000372       0x31 All_deRFusb23e06_At91sam3s4c_Rf231_Gcc/Obj/csMem.o
 .ARM.attributes
                0x000003a3       0x31 All_deRFusb23e06_At91sam3s4c_Rf231_Gcc/Obj/configServer.o
 .ARM.attributes
                0x000003d4       0x31 ./../../../../../../Atmel_lib/BitCloud_SAM3S_EK_1_14_0/BitCloud/lib/libHAL_deRFusb23e06_At91sam3s4c_64Mhz_Gcc.a(atomic.o)
 .ARM.attributes
                0x00000405       0x31 ./../../../../../../Atmel_lib/BitCloud_SAM3S_EK_1_14_0/BitCloud/lib/libHAL_deRFusb23e06_At91sam3s4c_64Mhz_Gcc.a(core_cm3.o)
 .ARM.attributes
                0x00000436       0x31 ./../../../../../../Atmel_lib/BitCloud_SAM3S_EK_1_14_0/BitCloud/lib/libHAL_deRFusb23e06_At91sam3s4c_64Mhz_Gcc.a(halVectorTable.o)
 .ARM.attributes
                0x00000467       0x31 ./../../../../../../Atmel_lib/BitCloud_SAM3S_EK_1_14_0/BitCloud/lib/libHAL_deRFusb23e06_At91sam3s4c_64Mhz_Gcc.a(halAppClock.o)
 .ARM.attributes
                0x00000498       0x31 ./../../../../../../Atmel_lib/BitCloud_SAM3S_EK_1_14_0/BitCloud/lib/libHAL_deRFusb23e06_At91sam3s4c_64Mhz_Gcc.a(halUsart.o)
 .ARM.attributes
                0x000004c9       0x31 ./../../../../../../Atmel_lib/BitCloud_SAM3S_EK_1_14_0/BitCloud/lib/libHAL_deRFusb23e06_At91sam3s4c_64Mhz_Gcc.a(halUart.o)
 .ARM.attributes
                0x000004fa       0x31 ./../../../../../../Atmel_lib/BitCloud_SAM3S_EK_1_14_0/BitCloud/lib/libHAL_deRFusb23e06_At91sam3s4c_64Mhz_Gcc.a(halUsb.o)
 .ARM.attributes
                0x0000052b       0x31 ./../../../../../../Atmel_lib/BitCloud_SAM3S_EK_1_14_0/BitCloud/lib/libHAL_deRFusb23e06_At91sam3s4c_64Mhz_Gcc.a(halIrq.o)
 .ARM.attributes
                0x0000055c       0x31 ./../../../../../../Atmel_lib/BitCloud_SAM3S_EK_1_14_0/BitCloud/lib/libHAL_deRFusb23e06_At91sam3s4c_64Mhz_Gcc.a(halHsmci.o)
 .ARM.attributes
                0x0000058d       0x31 ./../../../../../../Atmel_lib/BitCloud_SAM3S_EK_1_14_0/BitCloud/lib/libHAL_deRFusb23e06_At91sam3s4c_64Mhz_Gcc.a(halSleepTimerClock.o)
 .ARM.attributes
                0x000005be       0x31 ./../../../../../../Atmel_lib/BitCloud_SAM3S_EK_1_14_0/BitCloud/lib/libHAL_deRFusb23e06_At91sam3s4c_64Mhz_Gcc.a(halSleep.o)
 .ARM.attributes
                0x000005ef       0x31 ./../../../../../../Atmel_lib/BitCloud_SAM3S_EK_1_14_0/BitCloud/lib/libHAL_deRFusb23e06_At91sam3s4c_64Mhz_Gcc.a(halStartupGcc.o)
 .ARM.attributes
                0x00000620       0x31 ./../../../../../../Atmel_lib/BitCloud_SAM3S_EK_1_14_0/BitCloud/lib/libHAL_deRFusb23e06_At91sam3s4c_64Mhz_Gcc.a(halRfCtrl.o)
 .ARM.attributes
                0x00000651       0x31 ./../../../../../../Atmel_lib/BitCloud_SAM3S_EK_1_14_0/BitCloud/lib/libHAL_deRFusb23e06_At91sam3s4c_64Mhz_Gcc.a(halRfSpi.o)
 .ARM.attributes
                0x00000682       0x31 ./../../../../../../Atmel_lib/BitCloud_SAM3S_EK_1_14_0/BitCloud/lib/libHAL_deRFusb23e06_At91sam3s4c_64Mhz_Gcc.a(halMacIsr.o)
 .ARM.attributes
                0x000006b3       0x31 ./../../../../../../Atmel_lib/BitCloud_SAM3S_EK_1_14_0/BitCloud/lib/libHAL_deRFusb23e06_At91sam3s4c_64Mhz_Gcc.a(appTimer.o)
 .ARM.attributes
                0x000006e4       0x31 ./../../../../../../Atmel_lib/BitCloud_SAM3S_EK_1_14_0/BitCloud/lib/libHAL_deRFusb23e06_At91sam3s4c_64Mhz_Gcc.a(halTaskManager.o)
 .ARM.attributes
                0x00000715       0x31 ./../../../../../../Atmel_lib/BitCloud_SAM3S_EK_1_14_0/BitCloud/lib/libHAL_deRFusb23e06_At91sam3s4c_64Mhz_Gcc.a(sleep.o)
 .ARM.attributes
                0x00000746       0x31 ./../../../../../../Atmel_lib/BitCloud_SAM3S_EK_1_14_0/BitCloud/lib/libHAL_deRFusb23e06_At91sam3s4c_64Mhz_Gcc.a(timer.o)
 .ARM.attributes
                0x00000777       0x31 ./../../../../../../Atmel_lib/BitCloud_SAM3S_EK_1_14_0/BitCloud/lib/libHAL_deRFusb23e06_At91sam3s4c_64Mhz_Gcc.a(usart.o)
 .ARM.attributes
                0x000007a8       0x31 ./../../../../../../Atmel_lib/BitCloud_SAM3S_EK_1_14_0/BitCloud/lib/libHAL_deRFusb23e06_At91sam3s4c_64Mhz_Gcc.a(uart.o)
 .ARM.attributes
                0x000007d9       0x31 ./../../../../../../Atmel_lib/BitCloud_SAM3S_EK_1_14_0/BitCloud/lib/libHAL_deRFusb23e06_At91sam3s4c_64Mhz_Gcc.a(usb.o)
 .ARM.attributes
                0x0000080a       0x31 ./../../../../../../Atmel_lib/BitCloud_SAM3S_EK_1_14_0/BitCloud/lib/libHAL_deRFusb23e06_At91sam3s4c_64Mhz_Gcc.a(eeprom.o)
 .ARM.attributes
                0x0000083b       0x31 ./../../../../../../Atmel_lib/BitCloud_SAM3S_EK_1_14_0/BitCloud/lib/libHAL_deRFusb23e06_At91sam3s4c_64Mhz_Gcc.a(sleepTimer.o)
 .ARM.attributes
                0x0000086c       0x21 ./../../../../../../Atmel_lib/BitCloud_SAM3S_EK_1_14_0/BitCloud/lib/libHAL_deRFusb23e06_At91sam3s4c_64Mhz_Gcc.a(halExceptionGcc.o)
 .ARM.attributes
                0x0000088d       0x31 ./../../../../../../Atmel_lib/BitCloud_SAM3S_EK_1_14_0/BitCloud/lib/libHAL_deRFusb23e06_At91sam3s4c_64Mhz_Gcc.a(halLowLevelInit.o)
 .ARM.attributes
                0x000008be       0x31 ./../../../../../../Atmel_lib/BitCloud_SAM3S_EK_1_14_0/BitCloud/lib/libHAL_deRFusb23e06_At91sam3s4c_64Mhz_Gcc.a(halExcHandler.o)
 .ARM.attributes
                0x000008ef       0x31 ./../../../../../../Atmel_lib/BitCloud_SAM3S_EK_1_14_0/BitCloud/lib/libHAL_deRFusb23e06_At91sam3s4c_64Mhz_Gcc.a(halFlash.o)
 .ARM.attributes
                0x00000920       0x31 ./../../../../../../Atmel_lib/BitCloud_SAM3S_EK_1_14_0/BitCloud/lib/libBc_All_At91sam3s4c_Rf231_Gcc.a(phyRfIrqDispatcher.o)
 .ARM.attributes
                0x00000951       0x31 ./../../../../../../Atmel_lib/BitCloud_SAM3S_EK_1_14_0/BitCloud/lib/libBc_All_At91sam3s4c_Rf231_Gcc.a(phyRtimerIrqDispatcher.o)
 .ARM.attributes
                0x00000982       0x31 ./../../../../../../Atmel_lib/BitCloud_SAM3S_EK_1_14_0/BitCloud/lib/libBc_All_At91sam3s4c_Rf231_Gcc.a(phyRxTxIndicator.o)
 .ARM.attributes
                0x000009b3       0x31 ./../../../../../../Atmel_lib/BitCloud_SAM3S_EK_1_14_0/BitCloud/lib/libBc_All_At91sam3s4c_Rf231_Gcc.a(taskManager.o)
 .ARM.attributes
                0x000009e4       0x31 ./../../../../../../Atmel_lib/BitCloud_SAM3S_EK_1_14_0/BitCloud/lib/libBc_All_At91sam3s4c_Rf231_Gcc.a(zdo.o)
 .ARM.attributes
                0x00000a15       0x31 ./../../../../../../Atmel_lib/BitCloud_SAM3S_EK_1_14_0/BitCloud/lib/libBc_All_At91sam3s4c_Rf231_Gcc.a(aps.o)
 .ARM.attributes
                0x00000a46       0x31 ./../../../../../../Atmel_lib/BitCloud_SAM3S_EK_1_14_0/BitCloud/lib/libBc_All_At91sam3s4c_Rf231_Gcc.a(bcSysSleep.o)
 .ARM.attributes
                0x00000a77       0x31 ./../../../../../../Atmel_lib/BitCloud_SAM3S_EK_1_14_0/BitCloud/lib/libBc_All_At91sam3s4c_Rf231_Gcc.a(macMem.o)
 .ARM.attributes
                0x00000aa8       0x31 ./../../../../../../Atmel_lib/BitCloud_SAM3S_EK_1_14_0/BitCloud/lib/libBc_All_At91sam3s4c_Rf231_Gcc.a(macenvPib.o)
 .ARM.attributes
                0x00000ad9       0x31 ./../../../../../../Atmel_lib/BitCloud_SAM3S_EK_1_14_0/BitCloud/lib/libBc_All_At91sam3s4c_Rf231_Gcc.a(machwdManager.o)
 .ARM.attributes
                0x00000b0a       0x31 ./../../../../../../Atmel_lib/BitCloud_SAM3S_EK_1_14_0/BitCloud/lib/libBc_All_At91sam3s4c_Rf231_Gcc.a(machwdRegAccessHandler.o)
 .ARM.attributes
                0x00000b3b       0x31 ./../../../../../../Atmel_lib/BitCloud_SAM3S_EK_1_14_0/BitCloud/lib/libBc_All_At91sam3s4c_Rf231_Gcc.a(machwdResetHandler.o)
 .ARM.attributes
                0x00000b6c       0x31 ./../../../../../../Atmel_lib/BitCloud_SAM3S_EK_1_14_0/BitCloud/lib/libBc_All_At91sam3s4c_Rf231_Gcc.a(machwdRndHandler.o)
 .ARM.attributes
                0x00000b9d       0x31 ./../../../../../../Atmel_lib/BitCloud_SAM3S_EK_1_14_0/BitCloud/lib/libBc_All_At91sam3s4c_Rf231_Gcc.a(machwdRxBuffer.o)
 .ARM.attributes
                0x00000bce       0x31 ./../../../../../../Atmel_lib/BitCloud_SAM3S_EK_1_14_0/BitCloud/lib/libBc_All_At91sam3s4c_Rf231_Gcc.a(machwdRxFrameHandler.o)
 .ARM.attributes
                0x00000bff       0x31 ./../../../../../../Atmel_lib/BitCloud_SAM3S_EK_1_14_0/BitCloud/lib/libBc_All_At91sam3s4c_Rf231_Gcc.a(machwdSetHandler.o)
 .ARM.attributes
                0x00000c30       0x31 ./../../../../../../Atmel_lib/BitCloud_SAM3S_EK_1_14_0/BitCloud/lib/libBc_All_At91sam3s4c_Rf231_Gcc.a(machwdTrxCtrl.o)
 .ARM.attributes
                0x00000c61       0x31 ./../../../../../../Atmel_lib/BitCloud_SAM3S_EK_1_14_0/BitCloud/lib/libBc_All_At91sam3s4c_Rf231_Gcc.a(machwdTrxHandler.o)
 .ARM.attributes
                0x00000c92       0x31 ./../../../../../../Atmel_lib/BitCloud_SAM3S_EK_1_14_0/BitCloud/lib/libBc_All_At91sam3s4c_Rf231_Gcc.a(machwdTxFrameHandler.o)
 .ARM.attributes
                0x00000cc3       0x31 ./../../../../../../Atmel_lib/BitCloud_SAM3S_EK_1_14_0/BitCloud/lib/libBc_All_At91sam3s4c_Rf231_Gcc.a(machwiManager.o)
 .ARM.attributes
                0x00000cf4       0x31 ./../../../../../../Atmel_lib/BitCloud_SAM3S_EK_1_14_0/BitCloud/lib/libBc_All_At91sam3s4c_Rf231_Gcc.a(machwiOrphanHandler.o)
 .ARM.attributes
                0x00000d25       0x31 ./../../../../../../Atmel_lib/BitCloud_SAM3S_EK_1_14_0/BitCloud/lib/libBc_All_At91sam3s4c_Rf231_Gcc.a(machwiPanServer.o)
 .ARM.attributes
                0x00000d56       0x31 ./../../../../../../Atmel_lib/BitCloud_SAM3S_EK_1_14_0/BitCloud/lib/libBc_All_At91sam3s4c_Rf231_Gcc.a(machwiPollHandler.o)
 .ARM.attributes
                0x00000d87       0x31 ./../../../../../../Atmel_lib/BitCloud_SAM3S_EK_1_14_0/BitCloud/lib/libBc_All_At91sam3s4c_Rf231_Gcc.a(machwiPurgeHandler.o)
 .ARM.attributes
                0x00000db8       0x31 ./../../../../../../Atmel_lib/BitCloud_SAM3S_EK_1_14_0/BitCloud/lib/libBc_All_At91sam3s4c_Rf231_Gcc.a(machwiResetHandler.o)
 .ARM.attributes
                0x00000de9       0x31 ./../../../../../../Atmel_lib/BitCloud_SAM3S_EK_1_14_0/BitCloud/lib/libBc_All_At91sam3s4c_Rf231_Gcc.a(machwiRxEnableHandler.o)
 .ARM.attributes
                0x00000e1a       0x31 ./../../../../../../Atmel_lib/BitCloud_SAM3S_EK_1_14_0/BitCloud/lib/libBc_All_At91sam3s4c_Rf231_Gcc.a(machwiScanHandler.o)
 .ARM.attributes
                0x00000e4b       0x31 ./../../../../../../Atmel_lib/BitCloud_SAM3S_EK_1_14_0/BitCloud/lib/libBc_All_At91sam3s4c_Rf231_Gcc.a(machwiSetGetHandler.o)
 .ARM.attributes
                0x00000e7c       0x31 ./../../../../../../Atmel_lib/BitCloud_SAM3S_EK_1_14_0/BitCloud/lib/libBc_All_At91sam3s4c_Rf231_Gcc.a(machwiStartHandler.o)
 .ARM.attributes
                0x00000ead       0x31 ./../../../../../../Atmel_lib/BitCloud_SAM3S_EK_1_14_0/BitCloud/lib/libBc_All_At91sam3s4c_Rf231_Gcc.a(machwiSwitchRxCtrl.o)
 .ARM.attributes
                0x00000ede       0x31 ./../../../../../../Atmel_lib/BitCloud_SAM3S_EK_1_14_0/BitCloud/lib/libBc_All_At91sam3s4c_Rf231_Gcc.a(machwiTransactionHandler.o)
 .ARM.attributes
                0x00000f0f       0x31 ./../../../../../../Atmel_lib/BitCloud_SAM3S_EK_1_14_0/BitCloud/lib/libBc_All_At91sam3s4c_Rf231_Gcc.a(machwiTransactionQueue.o)
 .ARM.attributes
                0x00000f40       0x31 ./../../../../../../Atmel_lib/BitCloud_SAM3S_EK_1_14_0/BitCloud/lib/libBc_All_At91sam3s4c_Rf231_Gcc.a(nwk.o)
 .ARM.attributes
                0x00000f71       0x31 ./../../../../../../Atmel_lib/BitCloud_SAM3S_EK_1_14_0/BitCloud/lib/libBc_All_At91sam3s4c_Rf231_Gcc.a(phyInit.o)
 .ARM.attributes
                0x00000fa2       0x31 ./../../../../../../Atmel_lib/BitCloud_SAM3S_EK_1_14_0/BitCloud/lib/libBc_All_At91sam3s4c_Rf231_Gcc.a(phyRegAccess.o)
 .ARM.attributes
                0x00000fd3       0x31 ./../../../../../../Atmel_lib/BitCloud_SAM3S_EK_1_14_0/BitCloud/lib/libBc_All_At91sam3s4c_Rf231_Gcc.a(phyReset.o)
 .ARM.attributes
                0x00001004       0x31 ./../../../../../../Atmel_lib/BitCloud_SAM3S_EK_1_14_0/BitCloud/lib/libBc_All_At91sam3s4c_Rf231_Gcc.a(phyRfSpiProto.o)
 .ARM.attributes
                0x00001035       0x31 ./../../../../../../Atmel_lib/BitCloud_SAM3S_EK_1_14_0/BitCloud/lib/libBc_All_At91sam3s4c_Rf231_Gcc.a(phyRnd.o)
 .ARM.attributes
                0x00001066       0x31 ./../../../../../../Atmel_lib/BitCloud_SAM3S_EK_1_14_0/BitCloud/lib/libBc_All_At91sam3s4c_Rf231_Gcc.a(phyRxFrame.o)
 .ARM.attributes
                0x00001097       0x31 ./../../../../../../Atmel_lib/BitCloud_SAM3S_EK_1_14_0/BitCloud/lib/libBc_All_At91sam3s4c_Rf231_Gcc.a(phySet.o)
 .ARM.attributes
                0x000010c8       0x31 ./../../../../../../Atmel_lib/BitCloud_SAM3S_EK_1_14_0/BitCloud/lib/libBc_All_At91sam3s4c_Rf231_Gcc.a(phySetTrxState.o)
 .ARM.attributes
                0x000010f9       0x31 ./../../../../../../Atmel_lib/BitCloud_SAM3S_EK_1_14_0/BitCloud/lib/libBc_All_At91sam3s4c_Rf231_Gcc.a(phyStateMachine.o)
 .ARM.attributes
                0x0000112a       0x31 ./../../../../../../Atmel_lib/BitCloud_SAM3S_EK_1_14_0/BitCloud/lib/libBc_All_At91sam3s4c_Rf231_Gcc.a(phyTxFrame.o)
 .ARM.attributes
                0x0000115b       0x31 ./../../../../../../Atmel_lib/BitCloud_SAM3S_EK_1_14_0/BitCloud/lib/libBc_All_At91sam3s4c_Rf231_Gcc.a(queue.o)
 .ARM.attributes
                0x0000118c       0x31 ./../../../../../../Atmel_lib/BitCloud_SAM3S_EK_1_14_0/BitCloud/lib/libBc_All_At91sam3s4c_Rf231_Gcc.a(sysDuplicateTable.o)
 .ARM.attributes
                0x000011bd       0x31 ./../../../../../../Atmel_lib/BitCloud_SAM3S_EK_1_14_0/BitCloud/lib/libBc_All_At91sam3s4c_Rf231_Gcc.a(sysEvents.o)
 .ARM.attributes
                0x000011ee       0x31 ./../../../../../../Atmel_lib/BitCloud_SAM3S_EK_1_14_0/BitCloud/lib/libBc_All_At91sam3s4c_Rf231_Gcc.a(sysTimer.o)
 .ARM.attributes
                0x0000121f       0x31 ./../../../../../../Atmel_lib/BitCloud_SAM3S_EK_1_14_0/BitCloud/lib/libBc_All_At91sam3s4c_Rf231_Gcc.a(machwdCalibHandler.o)
 .ARM.attributes
                0x00001250       0x31 ./../../../../../../Atmel_lib/BitCloud_SAM3S_EK_1_14_0/BitCloud/lib/libBc_All_At91sam3s4c_Rf231_Gcc.a(machwdEdHandler.o)
 .ARM.attributes
                0x00001281       0x31 ./../../../../../../Atmel_lib/BitCloud_SAM3S_EK_1_14_0/BitCloud/lib/libBc_All_At91sam3s4c_Rf231_Gcc.a(machwdFrameRoutine.o)
 .ARM.attributes
                0x000012b2       0x31 ./../../../../../../Atmel_lib/BitCloud_SAM3S_EK_1_14_0/BitCloud/lib/libBc_All_At91sam3s4c_Rf231_Gcc.a(machwdHandlerCtrl.o)
 .ARM.attributes
                0x000012e3       0x31 ./../../../../../../Atmel_lib/BitCloud_SAM3S_EK_1_14_0/BitCloud/lib/libBc_All_At91sam3s4c_Rf231_Gcc.a(machwiAssociateHandler.o)
 .ARM.attributes
                0x00001314       0x31 ./../../../../../../Atmel_lib/BitCloud_SAM3S_EK_1_14_0/BitCloud/lib/libBc_All_At91sam3s4c_Rf231_Gcc.a(machwiBeaconHandler.o)
 .ARM.attributes
                0x00001345       0x31 ./../../../../../../Atmel_lib/BitCloud_SAM3S_EK_1_14_0/BitCloud/lib/libBc_All_At91sam3s4c_Rf231_Gcc.a(machwiDataHandler.o)
 .ARM.attributes
                0x00001376       0x31 ./../../../../../../Atmel_lib/BitCloud_SAM3S_EK_1_14_0/BitCloud/lib/libBc_All_At91sam3s4c_Rf231_Gcc.a(phyCalib.o)
 .ARM.attributes
                0x000013a7       0x31 ./../../../../../../Atmel_lib/BitCloud_SAM3S_EK_1_14_0/BitCloud/lib/libBc_All_At91sam3s4c_Rf231_Gcc.a(phyEd.o)
 .ARM.attributes
                0x000013d8       0x31 ./../../../../../../Atmel_lib/BitCloud_SAM3S_EK_1_14_0/BitCloud/lib/libHAL_deRFusb23e06_At91sam3s4c_64Mhz_Gcc.a(halInit.o)
 .ARM.attributes
                0x00001409       0x31 ./../../../../../../Atmel_lib/BitCloud_SAM3S_EK_1_14_0/BitCloud/lib/libHAL_deRFusb23e06_At91sam3s4c_64Mhz_Gcc.a(uid.o)
 .ARM.attributes
                0x0000143a       0x31 ./../../../../../../Atmel_lib/BitCloud_SAM3S_EK_1_14_0/BitCloud/lib/libHAL_deRFusb23e06_At91sam3s4c_64Mhz_Gcc.a(nv_basic.o)
 .ARM.attributes
                0x0000146b       0x27 c:/users/user/desktop/winsync/code_files/sabre/_toolchains/yagarto_arm/bin/../lib/gcc/arm-none-eabi/4.5.1/../../../../arm-none-eabi/lib/thumb/v7m\libc.a(lib_a-memcmp.o)
 .ARM.attributes
                0x00001492       0x27 c:/users/user/desktop/winsync/code_files/sabre/_toolchains/yagarto_arm/bin/../lib/gcc/arm-none-eabi/4.5.1/../../../../arm-none-eabi/lib/thumb/v7m\libc.a(lib_a-memcpy.o)
 .ARM.attributes
                0x000014b9       0x27 c:/users/user/desktop/winsync/code_files/sabre/_toolchains/yagarto_arm/bin/../lib/gcc/arm-none-eabi/4.5.1/../../../../arm-none-eabi/lib/thumb/v7m\libc.a(lib_a-memmove.o)
 .ARM.attributes
                0x000014e0       0x27 c:/users/user/desktop/winsync/code_files/sabre/_toolchains/yagarto_arm/bin/../lib/gcc/arm-none-eabi/4.5.1/../../../../arm-none-eabi/lib/thumb/v7m\libc.a(lib_a-memset.o)
 .ARM.attributes
                0x00001507       0x27 c:/users/user/desktop/winsync/code_files/sabre/_toolchains/yagarto_arm/bin/../lib/gcc/arm-none-eabi/4.5.1/../../../../arm-none-eabi/lib/thumb/v7m\libc.a(lib_a-rand.o)
 .ARM.attributes
                0x0000152e       0x27 c:/users/user/desktop/winsync/code_files/sabre/_toolchains/yagarto_arm/bin/../lib/gcc/arm-none-eabi/4.5.1/../../../../arm-none-eabi/lib/thumb/v7m\libc.a(lib_a-impure.o)

.comment        0x00000000       0x33
 *(.comment)
 .comment       0x00000000       0x11 All_deRFusb23e06_At91sam3s4c_Rf231_Gcc/Obj/blink.o
                                 0x12 (size before relaxing)
 .comment       0x00000000       0x12 All_deRFusb23e06_At91sam3s4c_Rf231_Gcc/Obj/pdsMem.o
 .comment       0x00000000       0x12 All_deRFusb23e06_At91sam3s4c_Rf231_Gcc/Obj/pdsWriteData.o
 .comment       0x00000000       0x12 All_deRFusb23e06_At91sam3s4c_Rf231_Gcc/Obj/pdsDataServer.o
 .comment       0x00000000       0x12 All_deRFusb23e06_At91sam3s4c_Rf231_Gcc/Obj/pdsInit.o
 .comment       0x00000000       0x12 All_deRFusb23e06_At91sam3s4c_Rf231_Gcc/Obj/pdsTimer.o
 .comment       0x00000000       0x12 All_deRFusb23e06_At91sam3s4c_Rf231_Gcc/Obj/pdsEvents.o
 .comment       0x00000000       0x12 All_deRFusb23e06_At91sam3s4c_Rf231_Gcc/Obj/pdsMemAccess.o
 .comment       0x00000000       0x12 All_deRFusb23e06_At91sam3s4c_Rf231_Gcc/Obj/pdsCrcService.o
 .comment       0x00000000       0x12 All_deRFusb23e06_At91sam3s4c_Rf231_Gcc/Obj/vcpVirtualUsart.o
 .comment       0x00000000       0x12 All_deRFusb23e06_At91sam3s4c_Rf231_Gcc/Obj/vcpCdcProtocol.o
 .comment       0x00000000       0x12 All_deRFusb23e06_At91sam3s4c_Rf231_Gcc/Obj/usbSetupProcess.o
 .comment       0x00000000       0x12 All_deRFusb23e06_At91sam3s4c_Rf231_Gcc/Obj/usbDescriptors.o
 .comment       0x00000000       0x12 All_deRFusb23e06_At91sam3s4c_Rf231_Gcc/Obj/usbEnumeration.o
 .comment       0x00000000       0x12 All_deRFusb23e06_At91sam3s4c_Rf231_Gcc/Obj/leds.o
 .comment       0x00000000       0x12 All_deRFusb23e06_At91sam3s4c_Rf231_Gcc/Obj/bspTaskManager.o
 .comment       0x00000000       0x12 All_deRFusb23e06_At91sam3s4c_Rf231_Gcc/Obj/fakeBSP.o
 .comment       0x00000000       0x12 All_deRFusb23e06_At91sam3s4c_Rf231_Gcc/Obj/csPersistentMem.o
 .comment       0x00000000       0x12 All_deRFusb23e06_At91sam3s4c_Rf231_Gcc/Obj/csMem.o
 .comment       0x00000000       0x12 All_deRFusb23e06_At91sam3s4c_Rf231_Gcc/Obj/configServer.o
 .comment       0x00000011       0x11 ./../../../../../../Atmel_lib/BitCloud_SAM3S_EK_1_14_0/BitCloud/lib/libHAL_deRFusb23e06_At91sam3s4c_64Mhz_Gcc.a(atomic.o)
                                 0x12 (size before relaxing)
 .comment       0x00000000       0x12 ./../../../../../../Atmel_lib/BitCloud_SAM3S_EK_1_14_0/BitCloud/lib/libHAL_deRFusb23e06_At91sam3s4c_64Mhz_Gcc.a(core_cm3.o)
 .comment       0x00000000       0x12 ./../../../../../../Atmel_lib/BitCloud_SAM3S_EK_1_14_0/BitCloud/lib/libHAL_deRFusb23e06_At91sam3s4c_64Mhz_Gcc.a(halVectorTable.o)
 .comment       0x00000000       0x12 ./../../../../../../Atmel_lib/BitCloud_SAM3S_EK_1_14_0/BitCloud/lib/libHAL_deRFusb23e06_At91sam3s4c_64Mhz_Gcc.a(halAppClock.o)
 .comment       0x00000000       0x12 ./../../../../../../Atmel_lib/BitCloud_SAM3S_EK_1_14_0/BitCloud/lib/libHAL_deRFusb23e06_At91sam3s4c_64Mhz_Gcc.a(halUsart.o)
 .comment       0x00000000       0x12 ./../../../../../../Atmel_lib/BitCloud_SAM3S_EK_1_14_0/BitCloud/lib/libHAL_deRFusb23e06_At91sam3s4c_64Mhz_Gcc.a(halUart.o)
 .comment       0x00000000       0x12 ./../../../../../../Atmel_lib/BitCloud_SAM3S_EK_1_14_0/BitCloud/lib/libHAL_deRFusb23e06_At91sam3s4c_64Mhz_Gcc.a(halUsb.o)
 .comment       0x00000000       0x12 ./../../../../../../Atmel_lib/BitCloud_SAM3S_EK_1_14_0/BitCloud/lib/libHAL_deRFusb23e06_At91sam3s4c_64Mhz_Gcc.a(halIrq.o)
 .comment       0x00000000       0x12 ./../../../../../../Atmel_lib/BitCloud_SAM3S_EK_1_14_0/BitCloud/lib/libHAL_deRFusb23e06_At91sam3s4c_64Mhz_Gcc.a(halHsmci.o)
 .comment       0x00000000       0x12 ./../../../../../../Atmel_lib/BitCloud_SAM3S_EK_1_14_0/BitCloud/lib/libHAL_deRFusb23e06_At91sam3s4c_64Mhz_Gcc.a(halSleepTimerClock.o)
 .comment       0x00000000       0x12 ./../../../../../../Atmel_lib/BitCloud_SAM3S_EK_1_14_0/BitCloud/lib/libHAL_deRFusb23e06_At91sam3s4c_64Mhz_Gcc.a(halSleep.o)
 .comment       0x00000000       0x12 ./../../../../../../Atmel_lib/BitCloud_SAM3S_EK_1_14_0/BitCloud/lib/libHAL_deRFusb23e06_At91sam3s4c_64Mhz_Gcc.a(halStartupGcc.o)
 .comment       0x00000000       0x12 ./../../../../../../Atmel_lib/BitCloud_SAM3S_EK_1_14_0/BitCloud/lib/libHAL_deRFusb23e06_At91sam3s4c_64Mhz_Gcc.a(halRfCtrl.o)
 .comment       0x00000000       0x12 ./../../../../../../Atmel_lib/BitCloud_SAM3S_EK_1_14_0/BitCloud/lib/libHAL_deRFusb23e06_At91sam3s4c_64Mhz_Gcc.a(halRfSpi.o)
 .comment       0x00000000       0x12 ./../../../../../../Atmel_lib/BitCloud_SAM3S_EK_1_14_0/BitCloud/lib/libHAL_deRFusb23e06_At91sam3s4c_64Mhz_Gcc.a(halMacIsr.o)
 .comment       0x00000000       0x12 ./../../../../../../Atmel_lib/BitCloud_SAM3S_EK_1_14_0/BitCloud/lib/libHAL_deRFusb23e06_At91sam3s4c_64Mhz_Gcc.a(appTimer.o)
 .comment       0x00000000       0x12 ./../../../../../../Atmel_lib/BitCloud_SAM3S_EK_1_14_0/BitCloud/lib/libHAL_deRFusb23e06_At91sam3s4c_64Mhz_Gcc.a(halTaskManager.o)
 .comment       0x00000000       0x12 ./../../../../../../Atmel_lib/BitCloud_SAM3S_EK_1_14_0/BitCloud/lib/libHAL_deRFusb23e06_At91sam3s4c_64Mhz_Gcc.a(sleep.o)
 .comment       0x00000000       0x12 ./../../../../../../Atmel_lib/BitCloud_SAM3S_EK_1_14_0/BitCloud/lib/libHAL_deRFusb23e06_At91sam3s4c_64Mhz_Gcc.a(timer.o)
 .comment       0x00000000       0x12 ./../../../../../../Atmel_lib/BitCloud_SAM3S_EK_1_14_0/BitCloud/lib/libHAL_deRFusb23e06_At91sam3s4c_64Mhz_Gcc.a(usart.o)
 .comment       0x00000000       0x12 ./../../../../../../Atmel_lib/BitCloud_SAM3S_EK_1_14_0/BitCloud/lib/libHAL_deRFusb23e06_At91sam3s4c_64Mhz_Gcc.a(uart.o)
 .comment       0x00000000       0x12 ./../../../../../../Atmel_lib/BitCloud_SAM3S_EK_1_14_0/BitCloud/lib/libHAL_deRFusb23e06_At91sam3s4c_64Mhz_Gcc.a(usb.o)
 .comment       0x00000000       0x12 ./../../../../../../Atmel_lib/BitCloud_SAM3S_EK_1_14_0/BitCloud/lib/libHAL_deRFusb23e06_At91sam3s4c_64Mhz_Gcc.a(eeprom.o)
 .comment       0x00000000       0x12 ./../../../../../../Atmel_lib/BitCloud_SAM3S_EK_1_14_0/BitCloud/lib/libHAL_deRFusb23e06_At91sam3s4c_64Mhz_Gcc.a(sleepTimer.o)
 .comment       0x00000000       0x12 ./../../../../../../Atmel_lib/BitCloud_SAM3S_EK_1_14_0/BitCloud/lib/libHAL_deRFusb23e06_At91sam3s4c_64Mhz_Gcc.a(halLowLevelInit.o)
 .comment       0x00000000       0x12 ./../../../../../../Atmel_lib/BitCloud_SAM3S_EK_1_14_0/BitCloud/lib/libHAL_deRFusb23e06_At91sam3s4c_64Mhz_Gcc.a(halExcHandler.o)
 .comment       0x00000000       0x12 ./../../../../../../Atmel_lib/BitCloud_SAM3S_EK_1_14_0/BitCloud/lib/libHAL_deRFusb23e06_At91sam3s4c_64Mhz_Gcc.a(halFlash.o)
 .comment       0x00000022       0x11 ./../../../../../../Atmel_lib/BitCloud_SAM3S_EK_1_14_0/BitCloud/lib/libBc_All_At91sam3s4c_Rf231_Gcc.a(phyRfIrqDispatcher.o)
                                 0x12 (size before relaxing)
 .comment       0x00000000       0x12 ./../../../../../../Atmel_lib/BitCloud_SAM3S_EK_1_14_0/BitCloud/lib/libBc_All_At91sam3s4c_Rf231_Gcc.a(phyRtimerIrqDispatcher.o)
 .comment       0x00000000       0x12 ./../../../../../../Atmel_lib/BitCloud_SAM3S_EK_1_14_0/BitCloud/lib/libBc_All_At91sam3s4c_Rf231_Gcc.a(phyRxTxIndicator.o)
 .comment       0x00000000       0x12 ./../../../../../../Atmel_lib/BitCloud_SAM3S_EK_1_14_0/BitCloud/lib/libBc_All_At91sam3s4c_Rf231_Gcc.a(taskManager.o)
 .comment       0x00000000       0x12 ./../../../../../../Atmel_lib/BitCloud_SAM3S_EK_1_14_0/BitCloud/lib/libBc_All_At91sam3s4c_Rf231_Gcc.a(zdo.o)
 .comment       0x00000000       0x12 ./../../../../../../Atmel_lib/BitCloud_SAM3S_EK_1_14_0/BitCloud/lib/libBc_All_At91sam3s4c_Rf231_Gcc.a(aps.o)
 .comment       0x00000000       0x12 ./../../../../../../Atmel_lib/BitCloud_SAM3S_EK_1_14_0/BitCloud/lib/libBc_All_At91sam3s4c_Rf231_Gcc.a(bcSysSleep.o)
 .comment       0x00000000       0x12 ./../../../../../../Atmel_lib/BitCloud_SAM3S_EK_1_14_0/BitCloud/lib/libBc_All_At91sam3s4c_Rf231_Gcc.a(macMem.o)
 .comment       0x00000000       0x12 ./../../../../../../Atmel_lib/BitCloud_SAM3S_EK_1_14_0/BitCloud/lib/libBc_All_At91sam3s4c_Rf231_Gcc.a(macenvPib.o)
 .comment       0x00000000       0x12 ./../../../../../../Atmel_lib/BitCloud_SAM3S_EK_1_14_0/BitCloud/lib/libBc_All_At91sam3s4c_Rf231_Gcc.a(machwdManager.o)
 .comment       0x00000000       0x12 ./../../../../../../Atmel_lib/BitCloud_SAM3S_EK_1_14_0/BitCloud/lib/libBc_All_At91sam3s4c_Rf231_Gcc.a(machwdRegAccessHandler.o)
 .comment       0x00000000       0x12 ./../../../../../../Atmel_lib/BitCloud_SAM3S_EK_1_14_0/BitCloud/lib/libBc_All_At91sam3s4c_Rf231_Gcc.a(machwdResetHandler.o)
 .comment       0x00000000       0x12 ./../../../../../../Atmel_lib/BitCloud_SAM3S_EK_1_14_0/BitCloud/lib/libBc_All_At91sam3s4c_Rf231_Gcc.a(machwdRndHandler.o)
 .comment       0x00000000       0x12 ./../../../../../../Atmel_lib/BitCloud_SAM3S_EK_1_14_0/BitCloud/lib/libBc_All_At91sam3s4c_Rf231_Gcc.a(machwdRxBuffer.o)
 .comment       0x00000000       0x12 ./../../../../../../Atmel_lib/BitCloud_SAM3S_EK_1_14_0/BitCloud/lib/libBc_All_At91sam3s4c_Rf231_Gcc.a(machwdRxFrameHandler.o)
 .comment       0x00000000       0x12 ./../../../../../../Atmel_lib/BitCloud_SAM3S_EK_1_14_0/BitCloud/lib/libBc_All_At91sam3s4c_Rf231_Gcc.a(machwdSetHandler.o)
 .comment       0x00000000       0x12 ./../../../../../../Atmel_lib/BitCloud_SAM3S_EK_1_14_0/BitCloud/lib/libBc_All_At91sam3s4c_Rf231_Gcc.a(machwdTrxCtrl.o)
 .comment       0x00000000       0x12 ./../../../../../../Atmel_lib/BitCloud_SAM3S_EK_1_14_0/BitCloud/lib/libBc_All_At91sam3s4c_Rf231_Gcc.a(machwdTrxHandler.o)
 .comment       0x00000000       0x12 ./../../../../../../Atmel_lib/BitCloud_SAM3S_EK_1_14_0/BitCloud/lib/libBc_All_At91sam3s4c_Rf231_Gcc.a(machwdTxFrameHandler.o)
 .comment       0x00000000       0x12 ./../../../../../../Atmel_lib/BitCloud_SAM3S_EK_1_14_0/BitCloud/lib/libBc_All_At91sam3s4c_Rf231_Gcc.a(machwiManager.o)
 .comment       0x00000000       0x12 ./../../../../../../Atmel_lib/BitCloud_SAM3S_EK_1_14_0/BitCloud/lib/libBc_All_At91sam3s4c_Rf231_Gcc.a(machwiOrphanHandler.o)
 .comment       0x00000000       0x12 ./../../../../../../Atmel_lib/BitCloud_SAM3S_EK_1_14_0/BitCloud/lib/libBc_All_At91sam3s4c_Rf231_Gcc.a(machwiPanServer.o)
 .comment       0x00000000       0x12 ./../../../../../../Atmel_lib/BitCloud_SAM3S_EK_1_14_0/BitCloud/lib/libBc_All_At91sam3s4c_Rf231_Gcc.a(machwiPollHandler.o)
 .comment       0x00000000       0x12 ./../../../../../../Atmel_lib/BitCloud_SAM3S_EK_1_14_0/BitCloud/lib/libBc_All_At91sam3s4c_Rf231_Gcc.a(machwiPurgeHandler.o)
 .comment       0x00000000       0x12 ./../../../../../../Atmel_lib/BitCloud_SAM3S_EK_1_14_0/BitCloud/lib/libBc_All_At91sam3s4c_Rf231_Gcc.a(machwiResetHandler.o)
 .comment       0x00000000       0x12 ./../../../../../../Atmel_lib/BitCloud_SAM3S_EK_1_14_0/BitCloud/lib/libBc_All_At91sam3s4c_Rf231_Gcc.a(machwiRxEnableHandler.o)
 .comment       0x00000000       0x12 ./../../../../../../Atmel_lib/BitCloud_SAM3S_EK_1_14_0/BitCloud/lib/libBc_All_At91sam3s4c_Rf231_Gcc.a(machwiScanHandler.o)
 .comment       0x00000000       0x12 ./../../../../../../Atmel_lib/BitCloud_SAM3S_EK_1_14_0/BitCloud/lib/libBc_All_At91sam3s4c_Rf231_Gcc.a(machwiSetGetHandler.o)
 .comment       0x00000000       0x12 ./../../../../../../Atmel_lib/BitCloud_SAM3S_EK_1_14_0/BitCloud/lib/libBc_All_At91sam3s4c_Rf231_Gcc.a(machwiStartHandler.o)
 .comment       0x00000000       0x12 ./../../../../../../Atmel_lib/BitCloud_SAM3S_EK_1_14_0/BitCloud/lib/libBc_All_At91sam3s4c_Rf231_Gcc.a(machwiSwitchRxCtrl.o)
 .comment       0x00000000       0x12 ./../../../../../../Atmel_lib/BitCloud_SAM3S_EK_1_14_0/BitCloud/lib/libBc_All_At91sam3s4c_Rf231_Gcc.a(machwiTransactionHandler.o)
 .comment       0x00000000       0x12 ./../../../../../../Atmel_lib/BitCloud_SAM3S_EK_1_14_0/BitCloud/lib/libBc_All_At91sam3s4c_Rf231_Gcc.a(machwiTransactionQueue.o)
 .comment       0x00000000       0x12 ./../../../../../../Atmel_lib/BitCloud_SAM3S_EK_1_14_0/BitCloud/lib/libBc_All_At91sam3s4c_Rf231_Gcc.a(nwk.o)
 .comment       0x00000000       0x12 ./../../../../../../Atmel_lib/BitCloud_SAM3S_EK_1_14_0/BitCloud/lib/libBc_All_At91sam3s4c_Rf231_Gcc.a(phyInit.o)
 .comment       0x00000000       0x12 ./../../../../../../Atmel_lib/BitCloud_SAM3S_EK_1_14_0/BitCloud/lib/libBc_All_At91sam3s4c_Rf231_Gcc.a(phyRegAccess.o)
 .comment       0x00000000       0x12 ./../../../../../../Atmel_lib/BitCloud_SAM3S_EK_1_14_0/BitCloud/lib/libBc_All_At91sam3s4c_Rf231_Gcc.a(phyReset.o)
 .comment       0x00000000       0x12 ./../../../../../../Atmel_lib/BitCloud_SAM3S_EK_1_14_0/BitCloud/lib/libBc_All_At91sam3s4c_Rf231_Gcc.a(phyRfSpiProto.o)
 .comment       0x00000000       0x12 ./../../../../../../Atmel_lib/BitCloud_SAM3S_EK_1_14_0/BitCloud/lib/libBc_All_At91sam3s4c_Rf231_Gcc.a(phyRnd.o)
 .comment       0x00000000       0x12 ./../../../../../../Atmel_lib/BitCloud_SAM3S_EK_1_14_0/BitCloud/lib/libBc_All_At91sam3s4c_Rf231_Gcc.a(phyRxFrame.o)
 .comment       0x00000000       0x12 ./../../../../../../Atmel_lib/BitCloud_SAM3S_EK_1_14_0/BitCloud/lib/libBc_All_At91sam3s4c_Rf231_Gcc.a(phySet.o)
 .comment       0x00000000       0x12 ./../../../../../../Atmel_lib/BitCloud_SAM3S_EK_1_14_0/BitCloud/lib/libBc_All_At91sam3s4c_Rf231_Gcc.a(phySetTrxState.o)
 .comment       0x00000000       0x12 ./../../../../../../Atmel_lib/BitCloud_SAM3S_EK_1_14_0/BitCloud/lib/libBc_All_At91sam3s4c_Rf231_Gcc.a(phyStateMachine.o)
 .comment       0x00000000       0x12 ./../../../../../../Atmel_lib/BitCloud_SAM3S_EK_1_14_0/BitCloud/lib/libBc_All_At91sam3s4c_Rf231_Gcc.a(phyTxFrame.o)
 .comment       0x00000000       0x12 ./../../../../../../Atmel_lib/BitCloud_SAM3S_EK_1_14_0/BitCloud/lib/libBc_All_At91sam3s4c_Rf231_Gcc.a(queue.o)
 .comment       0x00000000       0x12 ./../../../../../../Atmel_lib/BitCloud_SAM3S_EK_1_14_0/BitCloud/lib/libBc_All_At91sam3s4c_Rf231_Gcc.a(sysDuplicateTable.o)
 .comment       0x00000000       0x12 ./../../../../../../Atmel_lib/BitCloud_SAM3S_EK_1_14_0/BitCloud/lib/libBc_All_At91sam3s4c_Rf231_Gcc.a(sysEvents.o)
 .comment       0x00000000       0x12 ./../../../../../../Atmel_lib/BitCloud_SAM3S_EK_1_14_0/BitCloud/lib/libBc_All_At91sam3s4c_Rf231_Gcc.a(sysTimer.o)
 .comment       0x00000000       0x12 ./../../../../../../Atmel_lib/BitCloud_SAM3S_EK_1_14_0/BitCloud/lib/libBc_All_At91sam3s4c_Rf231_Gcc.a(machwdCalibHandler.o)
 .comment       0x00000000       0x12 ./../../../../../../Atmel_lib/BitCloud_SAM3S_EK_1_14_0/BitCloud/lib/libBc_All_At91sam3s4c_Rf231_Gcc.a(machwdEdHandler.o)
 .comment       0x00000000       0x12 ./../../../../../../Atmel_lib/BitCloud_SAM3S_EK_1_14_0/BitCloud/lib/libBc_All_At91sam3s4c_Rf231_Gcc.a(machwdFrameRoutine.o)
 .comment       0x00000000       0x12 ./../../../../../../Atmel_lib/BitCloud_SAM3S_EK_1_14_0/BitCloud/lib/libBc_All_At91sam3s4c_Rf231_Gcc.a(machwdHandlerCtrl.o)
 .comment       0x00000000       0x12 ./../../../../../../Atmel_lib/BitCloud_SAM3S_EK_1_14_0/BitCloud/lib/libBc_All_At91sam3s4c_Rf231_Gcc.a(machwiAssociateHandler.o)
 .comment       0x00000000       0x12 ./../../../../../../Atmel_lib/BitCloud_SAM3S_EK_1_14_0/BitCloud/lib/libBc_All_At91sam3s4c_Rf231_Gcc.a(machwiBeaconHandler.o)
 .comment       0x00000000       0x12 ./../../../../../../Atmel_lib/BitCloud_SAM3S_EK_1_14_0/BitCloud/lib/libBc_All_At91sam3s4c_Rf231_Gcc.a(machwiDataHandler.o)
 .comment       0x00000000       0x12 ./../../../../../../Atmel_lib/BitCloud_SAM3S_EK_1_14_0/BitCloud/lib/libBc_All_At91sam3s4c_Rf231_Gcc.a(phyCalib.o)
 .comment       0x00000000       0x12 ./../../../../../../Atmel_lib/BitCloud_SAM3S_EK_1_14_0/BitCloud/lib/libBc_All_At91sam3s4c_Rf231_Gcc.a(phyEd.o)
 .comment       0x00000000       0x12 ./../../../../../../Atmel_lib/BitCloud_SAM3S_EK_1_14_0/BitCloud/lib/libHAL_deRFusb23e06_At91sam3s4c_64Mhz_Gcc.a(halInit.o)
 .comment       0x00000000       0x12 ./../../../../../../Atmel_lib/BitCloud_SAM3S_EK_1_14_0/BitCloud/lib/libHAL_deRFusb23e06_At91sam3s4c_64Mhz_Gcc.a(uid.o)
 .comment       0x00000000       0x12 ./../../../../../../Atmel_lib/BitCloud_SAM3S_EK_1_14_0/BitCloud/lib/libHAL_deRFusb23e06_At91sam3s4c_64Mhz_Gcc.a(nv_basic.o)
 .comment       0x00000000       0x12 c:/users/user/desktop/winsync/code_files/sabre/_toolchains/yagarto_arm/bin/../lib/gcc/arm-none-eabi/4.5.1/../../../../arm-none-eabi/lib/thumb/v7m\libc.a(lib_a-memcmp.o)
 .comment       0x00000000       0x12 c:/users/user/desktop/winsync/code_files/sabre/_toolchains/yagarto_arm/bin/../lib/gcc/arm-none-eabi/4.5.1/../../../../arm-none-eabi/lib/thumb/v7m\libc.a(lib_a-memcpy.o)
 .comment       0x00000000       0x12 c:/users/user/desktop/winsync/code_files/sabre/_toolchains/yagarto_arm/bin/../lib/gcc/arm-none-eabi/4.5.1/../../../../arm-none-eabi/lib/thumb/v7m\libc.a(lib_a-memmove.o)
 .comment       0x00000000       0x12 c:/users/user/desktop/winsync/code_files/sabre/_toolchains/yagarto_arm/bin/../lib/gcc/arm-none-eabi/4.5.1/../../../../arm-none-eabi/lib/thumb/v7m\libc.a(lib_a-memset.o)
 .comment       0x00000000       0x12 c:/users/user/desktop/winsync/code_files/sabre/_toolchains/yagarto_arm/bin/../lib/gcc/arm-none-eabi/4.5.1/../../../../arm-none-eabi/lib/thumb/v7m\libc.a(lib_a-rand.o)
 .comment       0x00000000       0x12 c:/users/user/desktop/winsync/code_files/sabre/_toolchains/yagarto_arm/bin/../lib/gcc/arm-none-eabi/4.5.1/../../../../arm-none-eabi/lib/thumb/v7m\libc.a(lib_a-impure.o)

.debug
 *(.debug)

.line
 *(.line)

.debug_srcinfo
 *(.debug_srcinfo)

.debug_sfnames
 *(.debug_sfnames)

.debug_aranges  0x00000000      0x408
 *(.debug_aranges)
 .debug_aranges
                0x00000000       0x60 All_deRFusb23e06_At91sam3s4c_Rf231_Gcc/Obj/blink.o
 .debug_aranges
                0x00000060       0x38 All_deRFusb23e06_At91sam3s4c_Rf231_Gcc/Obj/pdsWriteData.o
 .debug_aranges
                0x00000098       0x28 All_deRFusb23e06_At91sam3s4c_Rf231_Gcc/Obj/pdsDataServer.o
 .debug_aranges
                0x000000c0       0x58 All_deRFusb23e06_At91sam3s4c_Rf231_Gcc/Obj/vcpVirtualUsart.o
 .debug_aranges
                0x00000118       0x70 All_deRFusb23e06_At91sam3s4c_Rf231_Gcc/Obj/vcpCdcProtocol.o
 .debug_aranges
                0x00000188       0x20 All_deRFusb23e06_At91sam3s4c_Rf231_Gcc/Obj/usbSetupProcess.o
 .debug_aranges
                0x000001a8       0x48 All_deRFusb23e06_At91sam3s4c_Rf231_Gcc/Obj/usbEnumeration.o
 .debug_aranges
                0x000001f0       0x40 All_deRFusb23e06_At91sam3s4c_Rf231_Gcc/Obj/leds.o
 .debug_aranges
                0x00000230       0x20 All_deRFusb23e06_At91sam3s4c_Rf231_Gcc/Obj/bspTaskManager.o
 .debug_aranges
                0x00000250       0xb0 All_deRFusb23e06_At91sam3s4c_Rf231_Gcc/Obj/fakeBSP.o
 .debug_aranges
                0x00000300       0x20 All_deRFusb23e06_At91sam3s4c_Rf231_Gcc/Obj/csMem.o
 .debug_aranges
                0x00000320       0x48 All_deRFusb23e06_At91sam3s4c_Rf231_Gcc/Obj/configServer.o
 .debug_aranges
                0x00000368       0x20 c:/users/user/desktop/winsync/code_files/sabre/_toolchains/yagarto_arm/bin/../lib/gcc/arm-none-eabi/4.5.1/../../../../arm-none-eabi/lib/thumb/v7m\libc.a(lib_a-memcmp.o)
 .debug_aranges
                0x00000388       0x20 c:/users/user/desktop/winsync/code_files/sabre/_toolchains/yagarto_arm/bin/../lib/gcc/arm-none-eabi/4.5.1/../../../../arm-none-eabi/lib/thumb/v7m\libc.a(lib_a-memcpy.o)
 .debug_aranges
                0x000003a8       0x20 c:/users/user/desktop/winsync/code_files/sabre/_toolchains/yagarto_arm/bin/../lib/gcc/arm-none-eabi/4.5.1/../../../../arm-none-eabi/lib/thumb/v7m\libc.a(lib_a-memmove.o)
 .debug_aranges
                0x000003c8       0x20 c:/users/user/desktop/winsync/code_files/sabre/_toolchains/yagarto_arm/bin/../lib/gcc/arm-none-eabi/4.5.1/../../../../arm-none-eabi/lib/thumb/v7m\libc.a(lib_a-memset.o)
 .debug_aranges
                0x000003e8       0x20 c:/users/user/desktop/winsync/code_files/sabre/_toolchains/yagarto_arm/bin/../lib/gcc/arm-none-eabi/4.5.1/../../../../arm-none-eabi/lib/thumb/v7m\libc.a(lib_a-rand.o)

.debug_pubnames
                0x00000000      0x907
 *(.debug_pubnames)
 .debug_pubnames
                0x00000000       0x8b All_deRFusb23e06_At91sam3s4c_Rf231_Gcc/Obj/blink.o
 .debug_pubnames
                0x0000008b       0x56 All_deRFusb23e06_At91sam3s4c_Rf231_Gcc/Obj/pdsWriteData.o
 .debug_pubnames
                0x000000e1       0x3d All_deRFusb23e06_At91sam3s4c_Rf231_Gcc/Obj/pdsDataServer.o
 .debug_pubnames
                0x0000011e       0xcd All_deRFusb23e06_At91sam3s4c_Rf231_Gcc/Obj/vcpVirtualUsart.o
 .debug_pubnames
                0x000001eb      0x113 All_deRFusb23e06_At91sam3s4c_Rf231_Gcc/Obj/vcpCdcProtocol.o
 .debug_pubnames
                0x000002fe       0x31 All_deRFusb23e06_At91sam3s4c_Rf231_Gcc/Obj/usbSetupProcess.o
 .debug_pubnames
                0x0000032f       0x49 All_deRFusb23e06_At91sam3s4c_Rf231_Gcc/Obj/usbDescriptors.o
 .debug_pubnames
                0x00000378       0xa1 All_deRFusb23e06_At91sam3s4c_Rf231_Gcc/Obj/usbEnumeration.o
 .debug_pubnames
                0x00000419       0x64 All_deRFusb23e06_At91sam3s4c_Rf231_Gcc/Obj/leds.o
 .debug_pubnames
                0x0000047d       0x37 All_deRFusb23e06_At91sam3s4c_Rf231_Gcc/Obj/bspTaskManager.o
 .debug_pubnames
                0x000004b4      0x245 All_deRFusb23e06_At91sam3s4c_Rf231_Gcc/Obj/fakeBSP.o
 .debug_pubnames
                0x000006f9       0xca All_deRFusb23e06_At91sam3s4c_Rf231_Gcc/Obj/csMem.o
 .debug_pubnames
                0x000007c3       0x71 All_deRFusb23e06_At91sam3s4c_Rf231_Gcc/Obj/configServer.o
 .debug_pubnames
                0x00000834       0x1d c:/users/user/desktop/winsync/code_files/sabre/_toolchains/yagarto_arm/bin/../lib/gcc/arm-none-eabi/4.5.1/../../../../arm-none-eabi/lib/thumb/v7m\libc.a(lib_a-memcmp.o)
 .debug_pubnames
                0x00000851       0x1d c:/users/user/desktop/winsync/code_files/sabre/_toolchains/yagarto_arm/bin/../lib/gcc/arm-none-eabi/4.5.1/../../../../arm-none-eabi/lib/thumb/v7m\libc.a(lib_a-memcpy.o)
 .debug_pubnames
                0x0000086e       0x1e c:/users/user/desktop/winsync/code_files/sabre/_toolchains/yagarto_arm/bin/../lib/gcc/arm-none-eabi/4.5.1/../../../../arm-none-eabi/lib/thumb/v7m\libc.a(lib_a-memmove.o)
 .debug_pubnames
                0x0000088c       0x1d c:/users/user/desktop/winsync/code_files/sabre/_toolchains/yagarto_arm/bin/../lib/gcc/arm-none-eabi/4.5.1/../../../../arm-none-eabi/lib/thumb/v7m\libc.a(lib_a-memset.o)
 .debug_pubnames
                0x000008a9       0x25 c:/users/user/desktop/winsync/code_files/sabre/_toolchains/yagarto_arm/bin/../lib/gcc/arm-none-eabi/4.5.1/../../../../arm-none-eabi/lib/thumb/v7m\libc.a(lib_a-rand.o)
 .debug_pubnames
                0x000008ce       0x39 c:/users/user/desktop/winsync/code_files/sabre/_toolchains/yagarto_arm/bin/../lib/gcc/arm-none-eabi/4.5.1/../../../../arm-none-eabi/lib/thumb/v7m\libc.a(lib_a-impure.o)

.debug_info     0x00000000     0xfd71
 *(.debug_info .gnu.linkonce.wi.*)
 .debug_info    0x00000000      0x87a All_deRFusb23e06_At91sam3s4c_Rf231_Gcc/Obj/blink.o
 .debug_info    0x0000087a      0x34c All_deRFusb23e06_At91sam3s4c_Rf231_Gcc/Obj/pdsMem.o
 .debug_info    0x00000bc6      0x472 All_deRFusb23e06_At91sam3s4c_Rf231_Gcc/Obj/pdsWriteData.o
 .debug_info    0x00001038      0x758 All_deRFusb23e06_At91sam3s4c_Rf231_Gcc/Obj/pdsDataServer.o
 .debug_info    0x00001790      0x34c All_deRFusb23e06_At91sam3s4c_Rf231_Gcc/Obj/pdsInit.o
 .debug_info    0x00001adc      0x34c All_deRFusb23e06_At91sam3s4c_Rf231_Gcc/Obj/pdsTimer.o
 .debug_info    0x00001e28      0x34c All_deRFusb23e06_At91sam3s4c_Rf231_Gcc/Obj/pdsEvents.o
 .debug_info    0x00002174      0x34c All_deRFusb23e06_At91sam3s4c_Rf231_Gcc/Obj/pdsMemAccess.o
 .debug_info    0x000024c0        0x0 All_deRFusb23e06_At91sam3s4c_Rf231_Gcc/Obj/pdsCrcService.o
 .debug_info    0x000024c0      0xac6 All_deRFusb23e06_At91sam3s4c_Rf231_Gcc/Obj/vcpVirtualUsart.o
 .debug_info    0x00002f86      0xa44 All_deRFusb23e06_At91sam3s4c_Rf231_Gcc/Obj/vcpCdcProtocol.o
 .debug_info    0x000039ca      0x132 All_deRFusb23e06_At91sam3s4c_Rf231_Gcc/Obj/usbSetupProcess.o
 .debug_info    0x00003afc      0x567 All_deRFusb23e06_At91sam3s4c_Rf231_Gcc/Obj/usbDescriptors.o
 .debug_info    0x00004063      0xd2b All_deRFusb23e06_At91sam3s4c_Rf231_Gcc/Obj/usbEnumeration.o
 .debug_info    0x00004d8e      0x785 All_deRFusb23e06_At91sam3s4c_Rf231_Gcc/Obj/leds.o
 .debug_info    0x00005513      0x1d3 All_deRFusb23e06_At91sam3s4c_Rf231_Gcc/Obj/bspTaskManager.o
 .debug_info    0x000056e6      0x57d All_deRFusb23e06_At91sam3s4c_Rf231_Gcc/Obj/fakeBSP.o
 .debug_info    0x00005c63     0x1e49 All_deRFusb23e06_At91sam3s4c_Rf231_Gcc/Obj/csPersistentMem.o
 .debug_info    0x00007aac     0x350e All_deRFusb23e06_At91sam3s4c_Rf231_Gcc/Obj/csMem.o
 .debug_info    0x0000afba     0x362e All_deRFusb23e06_At91sam3s4c_Rf231_Gcc/Obj/configServer.o
 .debug_info    0x0000e5e8      0x110 c:/users/user/desktop/winsync/code_files/sabre/_toolchains/yagarto_arm/bin/../lib/gcc/arm-none-eabi/4.5.1/../../../../arm-none-eabi/lib/thumb/v7m\libc.a(lib_a-memcmp.o)
 .debug_info    0x0000e6f8      0x13b c:/users/user/desktop/winsync/code_files/sabre/_toolchains/yagarto_arm/bin/../lib/gcc/arm-none-eabi/4.5.1/../../../../arm-none-eabi/lib/thumb/v7m\libc.a(lib_a-memcpy.o)
 .debug_info    0x0000e833      0x13f c:/users/user/desktop/winsync/code_files/sabre/_toolchains/yagarto_arm/bin/../lib/gcc/arm-none-eabi/4.5.1/../../../../arm-none-eabi/lib/thumb/v7m\libc.a(lib_a-memmove.o)
 .debug_info    0x0000e972      0x114 c:/users/user/desktop/winsync/code_files/sabre/_toolchains/yagarto_arm/bin/../lib/gcc/arm-none-eabi/4.5.1/../../../../arm-none-eabi/lib/thumb/v7m\libc.a(lib_a-memset.o)
 .debug_info    0x0000ea86      0x985 c:/users/user/desktop/winsync/code_files/sabre/_toolchains/yagarto_arm/bin/../lib/gcc/arm-none-eabi/4.5.1/../../../../arm-none-eabi/lib/thumb/v7m\libc.a(lib_a-rand.o)
 .debug_info    0x0000f40b      0x966 c:/users/user/desktop/winsync/code_files/sabre/_toolchains/yagarto_arm/bin/../lib/gcc/arm-none-eabi/4.5.1/../../../../arm-none-eabi/lib/thumb/v7m\libc.a(lib_a-impure.o)

.debug_abbrev   0x00000000     0x1db6
 *(.debug_abbrev)
 .debug_abbrev  0x00000000      0x1d8 All_deRFusb23e06_At91sam3s4c_Rf231_Gcc/Obj/blink.o
 .debug_abbrev  0x000001d8       0xc0 All_deRFusb23e06_At91sam3s4c_Rf231_Gcc/Obj/pdsMem.o
 .debug_abbrev  0x00000298      0x13c All_deRFusb23e06_At91sam3s4c_Rf231_Gcc/Obj/pdsWriteData.o
 .debug_abbrev  0x000003d4      0x119 All_deRFusb23e06_At91sam3s4c_Rf231_Gcc/Obj/pdsDataServer.o
 .debug_abbrev  0x000004ed       0xc0 All_deRFusb23e06_At91sam3s4c_Rf231_Gcc/Obj/pdsInit.o
 .debug_abbrev  0x000005ad       0xc0 All_deRFusb23e06_At91sam3s4c_Rf231_Gcc/Obj/pdsTimer.o
 .debug_abbrev  0x0000066d       0xc0 All_deRFusb23e06_At91sam3s4c_Rf231_Gcc/Obj/pdsEvents.o
 .debug_abbrev  0x0000072d       0xc0 All_deRFusb23e06_At91sam3s4c_Rf231_Gcc/Obj/pdsMemAccess.o
 .debug_abbrev  0x000007ed        0x1 All_deRFusb23e06_At91sam3s4c_Rf231_Gcc/Obj/pdsCrcService.o
 .debug_abbrev  0x000007ee      0x1f0 All_deRFusb23e06_At91sam3s4c_Rf231_Gcc/Obj/vcpVirtualUsart.o
 .debug_abbrev  0x000009de      0x1e0 All_deRFusb23e06_At91sam3s4c_Rf231_Gcc/Obj/vcpCdcProtocol.o
 .debug_abbrev  0x00000bbe       0x93 All_deRFusb23e06_At91sam3s4c_Rf231_Gcc/Obj/usbSetupProcess.o
 .debug_abbrev  0x00000c51       0x7d All_deRFusb23e06_At91sam3s4c_Rf231_Gcc/Obj/usbDescriptors.o
 .debug_abbrev  0x00000cce      0x1bd All_deRFusb23e06_At91sam3s4c_Rf231_Gcc/Obj/usbEnumeration.o
 .debug_abbrev  0x00000e8b      0x121 All_deRFusb23e06_At91sam3s4c_Rf231_Gcc/Obj/leds.o
 .debug_abbrev  0x00000fac       0xe9 All_deRFusb23e06_At91sam3s4c_Rf231_Gcc/Obj/bspTaskManager.o
 .debug_abbrev  0x00001095      0x208 All_deRFusb23e06_At91sam3s4c_Rf231_Gcc/Obj/fakeBSP.o
 .debug_abbrev  0x0000129d      0x164 All_deRFusb23e06_At91sam3s4c_Rf231_Gcc/Obj/csPersistentMem.o
 .debug_abbrev  0x00001401      0x1f8 All_deRFusb23e06_At91sam3s4c_Rf231_Gcc/Obj/csMem.o
 .debug_abbrev  0x000015f9      0x26a All_deRFusb23e06_At91sam3s4c_Rf231_Gcc/Obj/configServer.o
 .debug_abbrev  0x00001863       0x7c c:/users/user/desktop/winsync/code_files/sabre/_toolchains/yagarto_arm/bin/../lib/gcc/arm-none-eabi/4.5.1/../../../../arm-none-eabi/lib/thumb/v7m\libc.a(lib_a-memcmp.o)
 .debug_abbrev  0x000018df       0xa8 c:/users/user/desktop/winsync/code_files/sabre/_toolchains/yagarto_arm/bin/../lib/gcc/arm-none-eabi/4.5.1/../../../../arm-none-eabi/lib/thumb/v7m\libc.a(lib_a-memcpy.o)
 .debug_abbrev  0x00001987       0x99 c:/users/user/desktop/winsync/code_files/sabre/_toolchains/yagarto_arm/bin/../lib/gcc/arm-none-eabi/4.5.1/../../../../arm-none-eabi/lib/thumb/v7m\libc.a(lib_a-memmove.o)
 .debug_abbrev  0x00001a20       0x9c c:/users/user/desktop/winsync/code_files/sabre/_toolchains/yagarto_arm/bin/../lib/gcc/arm-none-eabi/4.5.1/../../../../arm-none-eabi/lib/thumb/v7m\libc.a(lib_a-memset.o)
 .debug_abbrev  0x00001abc      0x194 c:/users/user/desktop/winsync/code_files/sabre/_toolchains/yagarto_arm/bin/../lib/gcc/arm-none-eabi/4.5.1/../../../../arm-none-eabi/lib/thumb/v7m\libc.a(lib_a-rand.o)
 .debug_abbrev  0x00001c50      0x166 c:/users/user/desktop/winsync/code_files/sabre/_toolchains/yagarto_arm/bin/../lib/gcc/arm-none-eabi/4.5.1/../../../../arm-none-eabi/lib/thumb/v7m\libc.a(lib_a-impure.o)

.debug_line     0x00000000     0x5133
 *(.debug_line)
 .debug_line    0x00000000      0x3eb All_deRFusb23e06_At91sam3s4c_Rf231_Gcc/Obj/blink.o
 .debug_line    0x000003eb      0x297 All_deRFusb23e06_At91sam3s4c_Rf231_Gcc/Obj/pdsMem.o
 .debug_line    0x00000682      0x36f All_deRFusb23e06_At91sam3s4c_Rf231_Gcc/Obj/pdsWriteData.o
 .debug_line    0x000009f1      0x44f All_deRFusb23e06_At91sam3s4c_Rf231_Gcc/Obj/pdsDataServer.o
 .debug_line    0x00000e40      0x297 All_deRFusb23e06_At91sam3s4c_Rf231_Gcc/Obj/pdsInit.o
 .debug_line    0x000010d7      0x297 All_deRFusb23e06_At91sam3s4c_Rf231_Gcc/Obj/pdsTimer.o
 .debug_line    0x0000136e      0x297 All_deRFusb23e06_At91sam3s4c_Rf231_Gcc/Obj/pdsEvents.o
 .debug_line    0x00001605      0x297 All_deRFusb23e06_At91sam3s4c_Rf231_Gcc/Obj/pdsMemAccess.o
 .debug_line    0x0000189c        0x0 All_deRFusb23e06_At91sam3s4c_Rf231_Gcc/Obj/pdsCrcService.o
 .debug_line    0x0000189c      0x4f8 All_deRFusb23e06_At91sam3s4c_Rf231_Gcc/Obj/vcpVirtualUsart.o
 .debug_line    0x00001d94      0x482 All_deRFusb23e06_At91sam3s4c_Rf231_Gcc/Obj/vcpCdcProtocol.o
 .debug_line    0x00002216      0x1b7 All_deRFusb23e06_At91sam3s4c_Rf231_Gcc/Obj/usbSetupProcess.o
 .debug_line    0x000023cd      0x1fe All_deRFusb23e06_At91sam3s4c_Rf231_Gcc/Obj/usbDescriptors.o
 .debug_line    0x000025cb      0x3dc All_deRFusb23e06_At91sam3s4c_Rf231_Gcc/Obj/usbEnumeration.o
 .debug_line    0x000029a7      0x2af All_deRFusb23e06_At91sam3s4c_Rf231_Gcc/Obj/leds.o
 .debug_line    0x00002c56      0x284 All_deRFusb23e06_At91sam3s4c_Rf231_Gcc/Obj/bspTaskManager.o
 .debug_line    0x00002eda      0x48d All_deRFusb23e06_At91sam3s4c_Rf231_Gcc/Obj/fakeBSP.o
 .debug_line    0x00003367      0x4e0 All_deRFusb23e06_At91sam3s4c_Rf231_Gcc/Obj/csPersistentMem.o
 .debug_line    0x00003847      0x7e0 All_deRFusb23e06_At91sam3s4c_Rf231_Gcc/Obj/csMem.o
 .debug_line    0x00004027      0x8d6 All_deRFusb23e06_At91sam3s4c_Rf231_Gcc/Obj/configServer.o
 .debug_line    0x000048fd      0x13e c:/users/user/desktop/winsync/code_files/sabre/_toolchains/yagarto_arm/bin/../lib/gcc/arm-none-eabi/4.5.1/../../../../arm-none-eabi/lib/thumb/v7m\libc.a(lib_a-memcmp.o)
 .debug_line    0x00004a3b      0x173 c:/users/user/desktop/winsync/code_files/sabre/_toolchains/yagarto_arm/bin/../lib/gcc/arm-none-eabi/4.5.1/../../../../arm-none-eabi/lib/thumb/v7m\libc.a(lib_a-memcpy.o)
 .debug_line    0x00004bae      0x188 c:/users/user/desktop/winsync/code_files/sabre/_toolchains/yagarto_arm/bin/../lib/gcc/arm-none-eabi/4.5.1/../../../../arm-none-eabi/lib/thumb/v7m\libc.a(lib_a-memmove.o)
 .debug_line    0x00004d36      0x16f c:/users/user/desktop/winsync/code_files/sabre/_toolchains/yagarto_arm/bin/../lib/gcc/arm-none-eabi/4.5.1/../../../../arm-none-eabi/lib/thumb/v7m\libc.a(lib_a-memset.o)
 .debug_line    0x00004ea5      0x178 c:/users/user/desktop/winsync/code_files/sabre/_toolchains/yagarto_arm/bin/../lib/gcc/arm-none-eabi/4.5.1/../../../../arm-none-eabi/lib/thumb/v7m\libc.a(lib_a-rand.o)
 .debug_line    0x0000501d      0x116 c:/users/user/desktop/winsync/code_files/sabre/_toolchains/yagarto_arm/bin/../lib/gcc/arm-none-eabi/4.5.1/../../../../arm-none-eabi/lib/thumb/v7m\libc.a(lib_a-impure.o)

.debug_frame    0x00000000      0x7f0
 *(.debug_frame)
 .debug_frame   0x00000000       0xd0 All_deRFusb23e06_At91sam3s4c_Rf231_Gcc/Obj/blink.o
 .debug_frame   0x000000d0       0x70 All_deRFusb23e06_At91sam3s4c_Rf231_Gcc/Obj/pdsWriteData.o
 .debug_frame   0x00000140       0x50 All_deRFusb23e06_At91sam3s4c_Rf231_Gcc/Obj/pdsDataServer.o
 .debug_frame   0x00000190       0xe8 All_deRFusb23e06_At91sam3s4c_Rf231_Gcc/Obj/vcpVirtualUsart.o
 .debug_frame   0x00000278       0xe0 All_deRFusb23e06_At91sam3s4c_Rf231_Gcc/Obj/vcpCdcProtocol.o
 .debug_frame   0x00000358       0x28 All_deRFusb23e06_At91sam3s4c_Rf231_Gcc/Obj/usbSetupProcess.o
 .debug_frame   0x00000380       0xa8 All_deRFusb23e06_At91sam3s4c_Rf231_Gcc/Obj/usbEnumeration.o
 .debug_frame   0x00000428       0x60 All_deRFusb23e06_At91sam3s4c_Rf231_Gcc/Obj/leds.o
 .debug_frame   0x00000488       0x2c All_deRFusb23e06_At91sam3s4c_Rf231_Gcc/Obj/bspTaskManager.o
 .debug_frame   0x000004b4      0x17c All_deRFusb23e06_At91sam3s4c_Rf231_Gcc/Obj/fakeBSP.o
 .debug_frame   0x00000630       0x28 All_deRFusb23e06_At91sam3s4c_Rf231_Gcc/Obj/csMem.o
 .debug_frame   0x00000658       0xb8 All_deRFusb23e06_At91sam3s4c_Rf231_Gcc/Obj/configServer.o
 .debug_frame   0x00000710       0x28 c:/users/user/desktop/winsync/code_files/sabre/_toolchains/yagarto_arm/bin/../lib/gcc/arm-none-eabi/4.5.1/../../../../arm-none-eabi/lib/thumb/v7m\libc.a(lib_a-memcmp.o)
 .debug_frame   0x00000738       0x2c c:/users/user/desktop/winsync/code_files/sabre/_toolchains/yagarto_arm/bin/../lib/gcc/arm-none-eabi/4.5.1/../../../../arm-none-eabi/lib/thumb/v7m\libc.a(lib_a-memcpy.o)
 .debug_frame   0x00000764       0x2c c:/users/user/desktop/winsync/code_files/sabre/_toolchains/yagarto_arm/bin/../lib/gcc/arm-none-eabi/4.5.1/../../../../arm-none-eabi/lib/thumb/v7m\libc.a(lib_a-memmove.o)
 .debug_frame   0x00000790       0x28 c:/users/user/desktop/winsync/code_files/sabre/_toolchains/yagarto_arm/bin/../lib/gcc/arm-none-eabi/4.5.1/../../../../arm-none-eabi/lib/thumb/v7m\libc.a(lib_a-memset.o)
 .debug_frame   0x000007b8       0x38 c:/users/user/desktop/winsync/code_files/sabre/_toolchains/yagarto_arm/bin/../lib/gcc/arm-none-eabi/4.5.1/../../../../arm-none-eabi/lib/thumb/v7m\libc.a(lib_a-rand.o)

.debug_str      0x00000000     0x67bf
 *(.debug_str)
 .debug_str     0x00000000      0x6b2 All_deRFusb23e06_At91sam3s4c_Rf231_Gcc/Obj/blink.o
                                0x719 (size before relaxing)
 .debug_str     0x000006b2      0x1a2 All_deRFusb23e06_At91sam3s4c_Rf231_Gcc/Obj/pdsMem.o
                                0x390 (size before relaxing)
 .debug_str     0x00000854      0x140 All_deRFusb23e06_At91sam3s4c_Rf231_Gcc/Obj/pdsWriteData.o
                                0x46b (size before relaxing)
 .debug_str     0x00000994       0x9e All_deRFusb23e06_At91sam3s4c_Rf231_Gcc/Obj/pdsDataServer.o
                                0x6ab (size before relaxing)
 .debug_str     0x00000a32       0x6b All_deRFusb23e06_At91sam3s4c_Rf231_Gcc/Obj/pdsInit.o
                                0x391 (size before relaxing)
 .debug_str     0x00000a9d       0x6c All_deRFusb23e06_At91sam3s4c_Rf231_Gcc/Obj/pdsTimer.o
                                0x392 (size before relaxing)
 .debug_str     0x00000b09       0x6d All_deRFusb23e06_At91sam3s4c_Rf231_Gcc/Obj/pdsEvents.o
                                0x393 (size before relaxing)
 .debug_str     0x00000b76       0x70 All_deRFusb23e06_At91sam3s4c_Rf231_Gcc/Obj/pdsMemAccess.o
                                0x396 (size before relaxing)
 .debug_str     0x00000be6      0x73c All_deRFusb23e06_At91sam3s4c_Rf231_Gcc/Obj/vcpVirtualUsart.o
                                0x89a (size before relaxing)
 .debug_str     0x00001322      0x1d1 All_deRFusb23e06_At91sam3s4c_Rf231_Gcc/Obj/vcpCdcProtocol.o
                                0x89d (size before relaxing)
 .debug_str     0x000014f3       0x9a All_deRFusb23e06_At91sam3s4c_Rf231_Gcc/Obj/usbSetupProcess.o
                                0x1f1 (size before relaxing)
 .debug_str     0x0000158d      0x441 All_deRFusb23e06_At91sam3s4c_Rf231_Gcc/Obj/usbDescriptors.o
                                0x550 (size before relaxing)
 .debug_str     0x000019ce      0x125 All_deRFusb23e06_At91sam3s4c_Rf231_Gcc/Obj/usbEnumeration.o
                                0xbbe (size before relaxing)
 .debug_str     0x00001af3      0x3ea All_deRFusb23e06_At91sam3s4c_Rf231_Gcc/Obj/leds.o
                                0x518 (size before relaxing)
 .debug_str     0x00001edd      0x176 All_deRFusb23e06_At91sam3s4c_Rf231_Gcc/Obj/bspTaskManager.o
                                0x29b (size before relaxing)
 .debug_str     0x00002053      0x2cf All_deRFusb23e06_At91sam3s4c_Rf231_Gcc/Obj/fakeBSP.o
                                0x4fa (size before relaxing)
 .debug_str     0x00002322     0x2287 All_deRFusb23e06_At91sam3s4c_Rf231_Gcc/Obj/csPersistentMem.o
                               0x2d84 (size before relaxing)
 .debug_str     0x000045a9     0x1200 All_deRFusb23e06_At91sam3s4c_Rf231_Gcc/Obj/csMem.o
                               0x4117 (size before relaxing)
 .debug_str     0x000057a9      0x981 All_deRFusb23e06_At91sam3s4c_Rf231_Gcc/Obj/configServer.o
                               0x478a (size before relaxing)
 .debug_str     0x0000612a       0x9e c:/users/user/desktop/winsync/code_files/sabre/_toolchains/yagarto_arm/bin/../lib/gcc/arm-none-eabi/4.5.1/../../../../arm-none-eabi/lib/thumb/v7m\libc.a(lib_a-memcmp.o)
                                0x133 (size before relaxing)
 .debug_str     0x000061c8       0x6d c:/users/user/desktop/winsync/code_files/sabre/_toolchains/yagarto_arm/bin/../lib/gcc/arm-none-eabi/4.5.1/../../../../arm-none-eabi/lib/thumb/v7m\libc.a(lib_a-memcpy.o)
                                0x15a (size before relaxing)
 .debug_str     0x00006235       0x5a c:/users/user/desktop/winsync/code_files/sabre/_toolchains/yagarto_arm/bin/../lib/gcc/arm-none-eabi/4.5.1/../../../../arm-none-eabi/lib/thumb/v7m\libc.a(lib_a-memmove.o)
                                0x166 (size before relaxing)
 .debug_str     0x0000628f       0x53 c:/users/user/desktop/winsync/code_files/sabre/_toolchains/yagarto_arm/bin/../lib/gcc/arm-none-eabi/4.5.1/../../../../arm-none-eabi/lib/thumb/v7m\libc.a(lib_a-memset.o)
                                0x147 (size before relaxing)
 .debug_str     0x000062e2      0x430 c:/users/user/desktop/winsync/code_files/sabre/_toolchains/yagarto_arm/bin/../lib/gcc/arm-none-eabi/4.5.1/../../../../arm-none-eabi/lib/thumb/v7m\libc.a(lib_a-rand.o)
                                0x4ee (size before relaxing)
 .debug_str     0x00006712       0xad c:/users/user/desktop/winsync/code_files/sabre/_toolchains/yagarto_arm/bin/../lib/gcc/arm-none-eabi/4.5.1/../../../../arm-none-eabi/lib/thumb/v7m\libc.a(lib_a-impure.o)
                                0x4fd (size before relaxing)

.debug_loc      0x00000000     0x1644
 *(.debug_loc)
 .debug_loc     0x00000000       0xbb All_deRFusb23e06_At91sam3s4c_Rf231_Gcc/Obj/blink.o
 .debug_loc     0x000000bb       0xd8 All_deRFusb23e06_At91sam3s4c_Rf231_Gcc/Obj/pdsWriteData.o
 .debug_loc     0x00000193      0x11c All_deRFusb23e06_At91sam3s4c_Rf231_Gcc/Obj/pdsDataServer.o
 .debug_loc     0x000002af      0x692 All_deRFusb23e06_At91sam3s4c_Rf231_Gcc/Obj/vcpVirtualUsart.o
 .debug_loc     0x00000941       0xc8 All_deRFusb23e06_At91sam3s4c_Rf231_Gcc/Obj/vcpCdcProtocol.o
 .debug_loc     0x00000a09       0x5c All_deRFusb23e06_At91sam3s4c_Rf231_Gcc/Obj/usbSetupProcess.o
 .debug_loc     0x00000a65      0x248 All_deRFusb23e06_At91sam3s4c_Rf231_Gcc/Obj/usbEnumeration.o
 .debug_loc     0x00000cad       0x36 All_deRFusb23e06_At91sam3s4c_Rf231_Gcc/Obj/bspTaskManager.o
 .debug_loc     0x00000ce3      0x14c All_deRFusb23e06_At91sam3s4c_Rf231_Gcc/Obj/fakeBSP.o
 .debug_loc     0x00000e2f       0x20 All_deRFusb23e06_At91sam3s4c_Rf231_Gcc/Obj/csMem.o
 .debug_loc     0x00000e4f      0x19a All_deRFusb23e06_At91sam3s4c_Rf231_Gcc/Obj/configServer.o
 .debug_loc     0x00000fe9       0xe0 c:/users/user/desktop/winsync/code_files/sabre/_toolchains/yagarto_arm/bin/../lib/gcc/arm-none-eabi/4.5.1/../../../../arm-none-eabi/lib/thumb/v7m\libc.a(lib_a-memcmp.o)
 .debug_loc     0x000010c9      0x1a1 c:/users/user/desktop/winsync/code_files/sabre/_toolchains/yagarto_arm/bin/../lib/gcc/arm-none-eabi/4.5.1/../../../../arm-none-eabi/lib/thumb/v7m\libc.a(lib_a-memcpy.o)
 .debug_loc     0x0000126a      0x23c c:/users/user/desktop/winsync/code_files/sabre/_toolchains/yagarto_arm/bin/../lib/gcc/arm-none-eabi/4.5.1/../../../../arm-none-eabi/lib/thumb/v7m\libc.a(lib_a-memmove.o)
 .debug_loc     0x000014a6      0x17e c:/users/user/desktop/winsync/code_files/sabre/_toolchains/yagarto_arm/bin/../lib/gcc/arm-none-eabi/4.5.1/../../../../arm-none-eabi/lib/thumb/v7m\libc.a(lib_a-memset.o)
 .debug_loc     0x00001624       0x20 c:/users/user/desktop/winsync/code_files/sabre/_toolchains/yagarto_arm/bin/../lib/gcc/arm-none-eabi/4.5.1/../../../../arm-none-eabi/lib/thumb/v7m\libc.a(lib_a-rand.o)

.debug_macinfo
 *(.debug_macinfo)

.debug_weaknames
 *(.debug_weaknames)

.debug_funcnames
 *(.debug_funcnames)

.debug_typenames
 *(.debug_typenames)

.debug_varnames
 *(.debug_varnames)
LOAD All_deRFusb23e06_At91sam3s4c_Rf231_Gcc/Obj/blink.o
LOAD All_deRFusb23e06_At91sam3s4c_Rf231_Gcc/Obj/pdsMem.o
LOAD All_deRFusb23e06_At91sam3s4c_Rf231_Gcc/Obj/pdsWriteData.o
LOAD All_deRFusb23e06_At91sam3s4c_Rf231_Gcc/Obj/pdsDataServer.o
LOAD All_deRFusb23e06_At91sam3s4c_Rf231_Gcc/Obj/pdsInit.o
LOAD All_deRFusb23e06_At91sam3s4c_Rf231_Gcc/Obj/pdsTimer.o
LOAD All_deRFusb23e06_At91sam3s4c_Rf231_Gcc/Obj/pdsEvents.o
LOAD All_deRFusb23e06_At91sam3s4c_Rf231_Gcc/Obj/pdsMemAccess.o
LOAD All_deRFusb23e06_At91sam3s4c_Rf231_Gcc/Obj/pdsCrcService.o
LOAD All_deRFusb23e06_At91sam3s4c_Rf231_Gcc/Obj/vcpVirtualUsart.o
LOAD All_deRFusb23e06_At91sam3s4c_Rf231_Gcc/Obj/vcpCdcProtocol.o
LOAD All_deRFusb23e06_At91sam3s4c_Rf231_Gcc/Obj/usbSetupProcess.o
LOAD All_deRFusb23e06_At91sam3s4c_Rf231_Gcc/Obj/usbDescriptors.o
LOAD All_deRFusb23e06_At91sam3s4c_Rf231_Gcc/Obj/usbEnumeration.o
LOAD All_deRFusb23e06_At91sam3s4c_Rf231_Gcc/Obj/leds.o
LOAD All_deRFusb23e06_At91sam3s4c_Rf231_Gcc/Obj/bspTaskManager.o
LOAD All_deRFusb23e06_At91sam3s4c_Rf231_Gcc/Obj/fakeBSP.o
LOAD All_deRFusb23e06_At91sam3s4c_Rf231_Gcc/Obj/csPersistentMem.o
LOAD All_deRFusb23e06_At91sam3s4c_Rf231_Gcc/Obj/csMem.o
LOAD All_deRFusb23e06_At91sam3s4c_Rf231_Gcc/Obj/configServer.o
START GROUP
LOAD ./../../../../../../Atmel_lib/BitCloud_SAM3S_EK_1_14_0/BitCloud/lib/libHAL_deRFusb23e06_At91sam3s4c_64Mhz_Gcc.a
LOAD ./../../../../../../Atmel_lib/BitCloud_SAM3S_EK_1_14_0/BitCloud/lib/libBc_All_At91sam3s4c_Rf231_Gcc.a
END GROUP
START GROUP
LOAD c:/users/user/desktop/winsync/code_files/sabre/_toolchains/yagarto_arm/bin/../lib/gcc/arm-none-eabi/4.5.1/thumb/v7m\libgcc.a
LOAD c:/users/user/desktop/winsync/code_files/sabre/_toolchains/yagarto_arm/bin/../lib/gcc/arm-none-eabi/4.5.1/../../../../arm-none-eabi/lib/thumb/v7m\libc.a
END GROUP
OUTPUT(All_deRFusb23e06_At91sam3s4c_Rf231_Gcc/Exe/Blink.elf elf32-littlearm)

.debug_pubtypes
                0x00000000     0x3b0b
 .debug_pubtypes
                0x00000000      0x1d0 All_deRFusb23e06_At91sam3s4c_Rf231_Gcc/Obj/blink.o
 .debug_pubtypes
                0x000001d0      0x154 All_deRFusb23e06_At91sam3s4c_Rf231_Gcc/Obj/pdsMem.o
 .debug_pubtypes
                0x00000324      0x185 All_deRFusb23e06_At91sam3s4c_Rf231_Gcc/Obj/pdsWriteData.o
 .debug_pubtypes
                0x000004a9      0x205 All_deRFusb23e06_At91sam3s4c_Rf231_Gcc/Obj/pdsDataServer.o
 .debug_pubtypes
                0x000006ae      0x154 All_deRFusb23e06_At91sam3s4c_Rf231_Gcc/Obj/pdsInit.o
 .debug_pubtypes
                0x00000802      0x154 All_deRFusb23e06_At91sam3s4c_Rf231_Gcc/Obj/pdsTimer.o
 .debug_pubtypes
                0x00000956      0x154 All_deRFusb23e06_At91sam3s4c_Rf231_Gcc/Obj/pdsEvents.o
 .debug_pubtypes
                0x00000aaa      0x154 All_deRFusb23e06_At91sam3s4c_Rf231_Gcc/Obj/pdsMemAccess.o
 .debug_pubtypes
                0x00000bfe      0x13c All_deRFusb23e06_At91sam3s4c_Rf231_Gcc/Obj/vcpVirtualUsart.o
 .debug_pubtypes
                0x00000d3a      0x173 All_deRFusb23e06_At91sam3s4c_Rf231_Gcc/Obj/vcpCdcProtocol.o
 .debug_pubtypes
                0x00000ead       0x3c All_deRFusb23e06_At91sam3s4c_Rf231_Gcc/Obj/usbSetupProcess.o
 .debug_pubtypes
                0x00000ee9      0x161 All_deRFusb23e06_At91sam3s4c_Rf231_Gcc/Obj/usbDescriptors.o
 .debug_pubtypes
                0x0000104a      0x264 All_deRFusb23e06_At91sam3s4c_Rf231_Gcc/Obj/usbEnumeration.o
 .debug_pubtypes
                0x000012ae       0x33 All_deRFusb23e06_At91sam3s4c_Rf231_Gcc/Obj/leds.o
 .debug_pubtypes
                0x000012e1       0x56 All_deRFusb23e06_At91sam3s4c_Rf231_Gcc/Obj/bspTaskManager.o
 .debug_pubtypes
                0x00001337       0x87 All_deRFusb23e06_At91sam3s4c_Rf231_Gcc/Obj/fakeBSP.o
 .debug_pubtypes
                0x000013be      0x810 All_deRFusb23e06_At91sam3s4c_Rf231_Gcc/Obj/csPersistentMem.o
 .debug_pubtypes
                0x00001bce      0xea9 All_deRFusb23e06_At91sam3s4c_Rf231_Gcc/Obj/csMem.o
 .debug_pubtypes
                0x00002a77      0xe66 All_deRFusb23e06_At91sam3s4c_Rf231_Gcc/Obj/configServer.o
 .debug_pubtypes
                0x000038dd       0x1d c:/users/user/desktop/winsync/code_files/sabre/_toolchains/yagarto_arm/bin/../lib/gcc/arm-none-eabi/4.5.1/../../../../arm-none-eabi/lib/thumb/v7m\libc.a(lib_a-memcmp.o)
 .debug_pubtypes
                0x000038fa       0x1d c:/users/user/desktop/winsync/code_files/sabre/_toolchains/yagarto_arm/bin/../lib/gcc/arm-none-eabi/4.5.1/../../../../arm-none-eabi/lib/thumb/v7m\libc.a(lib_a-memcpy.o)
 .debug_pubtypes
                0x00003917       0x1d c:/users/user/desktop/winsync/code_files/sabre/_toolchains/yagarto_arm/bin/../lib/gcc/arm-none-eabi/4.5.1/../../../../arm-none-eabi/lib/thumb/v7m\libc.a(lib_a-memmove.o)
 .debug_pubtypes
                0x00003934       0x1d c:/users/user/desktop/winsync/code_files/sabre/_toolchains/yagarto_arm/bin/../lib/gcc/arm-none-eabi/4.5.1/../../../../arm-none-eabi/lib/thumb/v7m\libc.a(lib_a-memset.o)
 .debug_pubtypes
                0x00003951       0xdd c:/users/user/desktop/winsync/code_files/sabre/_toolchains/yagarto_arm/bin/../lib/gcc/arm-none-eabi/4.5.1/../../../../arm-none-eabi/lib/thumb/v7m\libc.a(lib_a-rand.o)
 .debug_pubtypes
                0x00003a2e       0xdd c:/users/user/desktop/winsync/code_files/sabre/_toolchains/yagarto_arm/bin/../lib/gcc/arm-none-eabi/4.5.1/../../../../arm-none-eabi/lib/thumb/v7m\libc.a(lib_a-impure.o)

.debug_ranges   0x00000000      0x470
 .debug_ranges  0x00000000       0x50 All_deRFusb23e06_At91sam3s4c_Rf231_Gcc/Obj/blink.o
 .debug_ranges  0x00000050       0x28 All_deRFusb23e06_At91sam3s4c_Rf231_Gcc/Obj/pdsWriteData.o
 .debug_ranges  0x00000078       0x18 All_deRFusb23e06_At91sam3s4c_Rf231_Gcc/Obj/pdsDataServer.o
 .debug_ranges  0x00000090       0x60 All_deRFusb23e06_At91sam3s4c_Rf231_Gcc/Obj/vcpVirtualUsart.o
 .debug_ranges  0x000000f0       0x90 All_deRFusb23e06_At91sam3s4c_Rf231_Gcc/Obj/vcpCdcProtocol.o
 .debug_ranges  0x00000180       0x10 All_deRFusb23e06_At91sam3s4c_Rf231_Gcc/Obj/usbSetupProcess.o
 .debug_ranges  0x00000190       0x50 All_deRFusb23e06_At91sam3s4c_Rf231_Gcc/Obj/usbEnumeration.o
 .debug_ranges  0x000001e0       0x90 All_deRFusb23e06_At91sam3s4c_Rf231_Gcc/Obj/leds.o
 .debug_ranges  0x00000270       0x10 All_deRFusb23e06_At91sam3s4c_Rf231_Gcc/Obj/bspTaskManager.o
 .debug_ranges  0x00000280      0x1a8 All_deRFusb23e06_At91sam3s4c_Rf231_Gcc/Obj/fakeBSP.o
 .debug_ranges  0x00000428       0x10 All_deRFusb23e06_At91sam3s4c_Rf231_Gcc/Obj/csMem.o
 .debug_ranges  0x00000438       0x38 All_deRFusb23e06_At91sam3s4c_Rf231_Gcc/Obj/configServer.o
