Archive member included because of file (symbol)

./../../../../BitCloud/lib/libHAL_deRFusb23e06_At91sam3s4c_64Mhz_Gcc.a(atomic.o)
                              All_deRFusb23e06_At91sam3s4c_Rf231_Gcc/Obj/WSNDemoApp.o (halStartAtomic)
./../../../../BitCloud/lib/libHAL_deRFusb23e06_At91sam3s4c_64Mhz_Gcc.a(core_cm3.o)
                              ./../../../../BitCloud/lib/libHAL_deRFusb23e06_At91sam3s4c_64Mhz_Gcc.a(atomic.o) (__get_PRIMASK)
./../../../../BitCloud/lib/libHAL_deRFusb23e06_At91sam3s4c_64Mhz_Gcc.a(halVectorTable.o)
                              (__vector_table)
./../../../../BitCloud/lib/libHAL_deRFusb23e06_At91sam3s4c_64Mhz_Gcc.a(halAppClock.o)
                              ./../../../../BitCloud/lib/libHAL_deRFusb23e06_At91sam3s4c_64Mhz_Gcc.a(halVectorTable.o) (timerHandler)
./../../../../BitCloud/lib/libHAL_deRFusb23e06_At91sam3s4c_64Mhz_Gcc.a(halUsart.o)
                              ./../../../../BitCloud/lib/libHAL_deRFusb23e06_At91sam3s4c_64Mhz_Gcc.a(halVectorTable.o) (usart0Handler)
./../../../../BitCloud/lib/libHAL_deRFusb23e06_At91sam3s4c_64Mhz_Gcc.a(halUart.o)
                              ./../../../../BitCloud/lib/libHAL_deRFusb23e06_At91sam3s4c_64Mhz_Gcc.a(halVectorTable.o) (uart0Handler)
./../../../../BitCloud/lib/libHAL_deRFusb23e06_At91sam3s4c_64Mhz_Gcc.a(halUsb.o)
                              ./../../../../BitCloud/lib/libHAL_deRFusb23e06_At91sam3s4c_64Mhz_Gcc.a(halVectorTable.o) (usbHandler)
./../../../../BitCloud/lib/libHAL_deRFusb23e06_At91sam3s4c_64Mhz_Gcc.a(halIrq.o)
                              ./../../../../BitCloud/lib/libHAL_deRFusb23e06_At91sam3s4c_64Mhz_Gcc.a(halVectorTable.o) (pioaHandler)
./../../../../BitCloud/lib/libHAL_deRFusb23e06_At91sam3s4c_64Mhz_Gcc.a(halHsmci.o)
                              ./../../../../BitCloud/lib/libHAL_deRFusb23e06_At91sam3s4c_64Mhz_Gcc.a(halVectorTable.o) (hsmciHandler)
./../../../../BitCloud/lib/libHAL_deRFusb23e06_At91sam3s4c_64Mhz_Gcc.a(halSleepTimerClock.o)
                              ./../../../../BitCloud/lib/libHAL_deRFusb23e06_At91sam3s4c_64Mhz_Gcc.a(halVectorTable.o) (rttHandler)
./../../../../BitCloud/lib/libHAL_deRFusb23e06_At91sam3s4c_64Mhz_Gcc.a(halSleep.o)
                              ./../../../../BitCloud/lib/libHAL_deRFusb23e06_At91sam3s4c_64Mhz_Gcc.a(halSleepTimerClock.o) (halPowerOn)
./../../../../BitCloud/lib/libHAL_deRFusb23e06_At91sam3s4c_64Mhz_Gcc.a(halStartupGcc.o)
                              ./../../../../BitCloud/lib/libHAL_deRFusb23e06_At91sam3s4c_64Mhz_Gcc.a(halVectorTable.o) (gccReset)
./../../../../BitCloud/lib/libHAL_deRFusb23e06_At91sam3s4c_64Mhz_Gcc.a(halRfCtrl.o)
                              ./../../../../BitCloud/lib/libHAL_deRFusb23e06_At91sam3s4c_64Mhz_Gcc.a(halSleep.o) (halWaitRadio)
./../../../../BitCloud/lib/libHAL_deRFusb23e06_At91sam3s4c_64Mhz_Gcc.a(halRfSpi.o)
                              ./../../../../BitCloud/lib/libHAL_deRFusb23e06_At91sam3s4c_64Mhz_Gcc.a(halRfCtrl.o) (HAL_WriteByteRfSpi)
./../../../../BitCloud/lib/libHAL_deRFusb23e06_At91sam3s4c_64Mhz_Gcc.a(halMacIsr.o)
                              ./../../../../BitCloud/lib/libHAL_deRFusb23e06_At91sam3s4c_64Mhz_Gcc.a(halAppClock.o) (halMacTimerHandler)
./../../../../BitCloud/lib/libHAL_deRFusb23e06_At91sam3s4c_64Mhz_Gcc.a(appTimer.o)
                              All_deRFusb23e06_At91sam3s4c_Rf231_Gcc/Obj/WSNEndDevice.o (HAL_StartAppTimer)
./../../../../BitCloud/lib/libHAL_deRFusb23e06_At91sam3s4c_64Mhz_Gcc.a(halTaskManager.o)
                              ./../../../../BitCloud/lib/libHAL_deRFusb23e06_At91sam3s4c_64Mhz_Gcc.a(halAppClock.o) (halTaskFlags)
./../../../../BitCloud/lib/libHAL_deRFusb23e06_At91sam3s4c_64Mhz_Gcc.a(sleep.o)
                              ./../../../../BitCloud/lib/libHAL_deRFusb23e06_At91sam3s4c_64Mhz_Gcc.a(halSleepTimerClock.o) (halSleepControl)
./../../../../BitCloud/lib/libHAL_deRFusb23e06_At91sam3s4c_64Mhz_Gcc.a(timer.o)
                              ./../../../../BitCloud/lib/libHAL_deRFusb23e06_At91sam3s4c_64Mhz_Gcc.a(appTimer.o) (halAddTimer)
./../../../../BitCloud/lib/libHAL_deRFusb23e06_At91sam3s4c_64Mhz_Gcc.a(usart.o)
                              ./../../../../BitCloud/lib/libHAL_deRFusb23e06_At91sam3s4c_64Mhz_Gcc.a(halTaskManager.o) (halSigUsartHandler)
./../../../../BitCloud/lib/libHAL_deRFusb23e06_At91sam3s4c_64Mhz_Gcc.a(uart.o)
                              ./../../../../BitCloud/lib/libHAL_deRFusb23e06_At91sam3s4c_64Mhz_Gcc.a(halUart.o) (halUartStoreRx)
./../../../../BitCloud/lib/libHAL_deRFusb23e06_At91sam3s4c_64Mhz_Gcc.a(usb.o)
                              All_deRFusb23e06_At91sam3s4c_Rf231_Gcc/Obj/vcpVirtualUsart.o (HAL_RegisterEndOfBusResetHandler)
./../../../../BitCloud/lib/libHAL_deRFusb23e06_At91sam3s4c_64Mhz_Gcc.a(eeprom.o)
                              All_deRFusb23e06_At91sam3s4c_Rf231_Gcc/Obj/pdsWriteData.o (HAL_ReadEeprom)
./../../../../BitCloud/lib/libHAL_deRFusb23e06_At91sam3s4c_64Mhz_Gcc.a(sleepTimer.o)
                              ./../../../../BitCloud/lib/libHAL_deRFusb23e06_At91sam3s4c_64Mhz_Gcc.a(sleep.o) (HAL_StartSleepTimer)
./../../../../BitCloud/lib/libHAL_deRFusb23e06_At91sam3s4c_64Mhz_Gcc.a(halExceptionGcc.o)
                              ./../../../../BitCloud/lib/libHAL_deRFusb23e06_At91sam3s4c_64Mhz_Gcc.a(halVectorTable.o) (halNmiHandler)
./../../../../BitCloud/lib/libHAL_deRFusb23e06_At91sam3s4c_64Mhz_Gcc.a(halLowLevelInit.o)
                              ./../../../../BitCloud/lib/libHAL_deRFusb23e06_At91sam3s4c_64Mhz_Gcc.a(halSleep.o) (halSwitchToRcClock)
./../../../../BitCloud/lib/libHAL_deRFusb23e06_At91sam3s4c_64Mhz_Gcc.a(halExcHandler.o)
                              ./../../../../BitCloud/lib/libHAL_deRFusb23e06_At91sam3s4c_64Mhz_Gcc.a(halExceptionGcc.o) (halCommonExcHandler)
./../../../../BitCloud/lib/libHAL_deRFusb23e06_At91sam3s4c_64Mhz_Gcc.a(halFlash.o)
                              ./../../../../BitCloud/lib/libHAL_deRFusb23e06_At91sam3s4c_64Mhz_Gcc.a(eeprom.o) (halFlashPrepareForWrite)
./../../../../BitCloud/lib/libBc_All_At91sam3s4c_Rf231_Gcc.a(aps.o)
                              All_deRFusb23e06_At91sam3s4c_Rf231_Gcc/Obj/WSNMessageSender.o (APS_DataReq)
./../../../../BitCloud/lib/libBc_All_At91sam3s4c_Rf231_Gcc.a(macenvPib.o)
                              ./../../../../BitCloud/lib/libBc_All_At91sam3s4c_Rf231_Gcc.a(aps.o) (MAC_GetExtAddr)
./../../../../BitCloud/lib/libBc_All_At91sam3s4c_Rf231_Gcc.a(nwk.o)
                              ./../../../../BitCloud/lib/libBc_All_At91sam3s4c_Rf231_Gcc.a(aps.o) (NWK_GetShortAddr)
./../../../../BitCloud/lib/libBc_All_At91sam3s4c_Rf231_Gcc.a(phyRfIrqDispatcher.o)
                              ./../../../../BitCloud/lib/libHAL_deRFusb23e06_At91sam3s4c_64Mhz_Gcc.a(halRfCtrl.o) (phyDispatcheRfInterrupt)
./../../../../BitCloud/lib/libBc_All_At91sam3s4c_Rf231_Gcc.a(phyRtimerIrqDispatcher.o)
                              ./../../../../BitCloud/lib/libHAL_deRFusb23e06_At91sam3s4c_64Mhz_Gcc.a(halMacIsr.o) (phyDispatcheRTimerEvent)
./../../../../BitCloud/lib/libBc_All_At91sam3s4c_Rf231_Gcc.a(phyRxTxIndicator.o)
                              ./../../../../BitCloud/lib/libHAL_deRFusb23e06_At91sam3s4c_64Mhz_Gcc.a(halSleep.o) (phyRxTxSwitcherOn)
./../../../../BitCloud/lib/libBc_All_At91sam3s4c_Rf231_Gcc.a(queue.o)
                              All_deRFusb23e06_At91sam3s4c_Rf231_Gcc/Obj/WSNMessageSender.o (deleteHeadQueueElem)
./../../../../BitCloud/lib/libBc_All_At91sam3s4c_Rf231_Gcc.a(sysDuplicateTable.o)
                              ./../../../../BitCloud/lib/libBc_All_At91sam3s4c_Rf231_Gcc.a(aps.o) (SYS_DuplicateTableReset)
./../../../../BitCloud/lib/libBc_All_At91sam3s4c_Rf231_Gcc.a(sysEvents.o)
                              ./../../../../BitCloud/lib/libBc_All_At91sam3s4c_Rf231_Gcc.a(aps.o) (SYS_PostEvent)
./../../../../BitCloud/lib/libBc_All_At91sam3s4c_Rf231_Gcc.a(sysTimer.o)
                              ./../../../../BitCloud/lib/libBc_All_At91sam3s4c_Rf231_Gcc.a(aps.o) (SYS_StartTimer)
./../../../../BitCloud/lib/libBc_All_At91sam3s4c_Rf231_Gcc.a(taskManager.o)
                              All_deRFusb23e06_At91sam3s4c_Rf231_Gcc/Obj/WSNDemoApp.o (SYS_RunTask)
./../../../../BitCloud/lib/libBc_All_At91sam3s4c_Rf231_Gcc.a(zdo.o)
                              ./../../../../BitCloud/lib/libBc_All_At91sam3s4c_Rf231_Gcc.a(nwk.o) (NWK_JoinInd)
./../../../../BitCloud/lib/libBc_All_At91sam3s4c_Rf231_Gcc.a(bcSysSleep.o)
                              ./../../../../BitCloud/lib/libBc_All_At91sam3s4c_Rf231_Gcc.a(zdo.o) (SYS_Sleep)
./../../../../BitCloud/lib/libBc_All_At91sam3s4c_Rf231_Gcc.a(macMem.o)
                              ./../../../../BitCloud/lib/libBc_All_At91sam3s4c_Rf231_Gcc.a(phyRfIrqDispatcher.o) (macMem)
./../../../../BitCloud/lib/libBc_All_At91sam3s4c_Rf231_Gcc.a(machwdManager.o)
                              ./../../../../BitCloud/lib/libBc_All_At91sam3s4c_Rf231_Gcc.a(zdo.o) (RF_RandomReq)
./../../../../BitCloud/lib/libBc_All_At91sam3s4c_Rf231_Gcc.a(machwdRegAccessHandler.o)
                              ./../../../../BitCloud/lib/libBc_All_At91sam3s4c_Rf231_Gcc.a(machwdManager.o) (machwdRegAccessReqHandler)
./../../../../BitCloud/lib/libBc_All_At91sam3s4c_Rf231_Gcc.a(machwdResetHandler.o)
                              ./../../../../BitCloud/lib/libBc_All_At91sam3s4c_Rf231_Gcc.a(machwdManager.o) (machwdReset)
./../../../../BitCloud/lib/libBc_All_At91sam3s4c_Rf231_Gcc.a(machwdRndHandler.o)
                              ./../../../../BitCloud/lib/libBc_All_At91sam3s4c_Rf231_Gcc.a(machwdManager.o) (machwdRndReqHandler)
./../../../../BitCloud/lib/libBc_All_At91sam3s4c_Rf231_Gcc.a(machwdRxBuffer.o)
                              ./../../../../BitCloud/lib/libBc_All_At91sam3s4c_Rf231_Gcc.a(machwdResetHandler.o) (machwdResetRxBuffer)
./../../../../BitCloud/lib/libBc_All_At91sam3s4c_Rf231_Gcc.a(machwdRxFrameHandler.o)
                              ./../../../../BitCloud/lib/libBc_All_At91sam3s4c_Rf231_Gcc.a(machwdManager.o) (machwdRxFrameTaskHandler)
./../../../../BitCloud/lib/libBc_All_At91sam3s4c_Rf231_Gcc.a(machwdSetHandler.o)
                              ./../../../../BitCloud/lib/libBc_All_At91sam3s4c_Rf231_Gcc.a(machwdManager.o) (machwdSetReqHandler)
./../../../../BitCloud/lib/libBc_All_At91sam3s4c_Rf231_Gcc.a(machwdTrxCtrl.o)
                              ./../../../../BitCloud/lib/libBc_All_At91sam3s4c_Rf231_Gcc.a(machwdSetHandler.o) (machwdGetPhyTrxCmd)
./../../../../BitCloud/lib/libBc_All_At91sam3s4c_Rf231_Gcc.a(machwdTrxHandler.o)
                              ./../../../../BitCloud/lib/libBc_All_At91sam3s4c_Rf231_Gcc.a(machwdManager.o) (machwdTrxReqHandler)
./../../../../BitCloud/lib/libBc_All_At91sam3s4c_Rf231_Gcc.a(machwdTxFrameHandler.o)
                              ./../../../../BitCloud/lib/libBc_All_At91sam3s4c_Rf231_Gcc.a(machwdManager.o) (machwdTxFrameReqHandler)
./../../../../BitCloud/lib/libBc_All_At91sam3s4c_Rf231_Gcc.a(machwiManager.o)
                              ./../../../../BitCloud/lib/libBc_All_At91sam3s4c_Rf231_Gcc.a(taskManager.o) (MAC_HWI_TaskHandler)
./../../../../BitCloud/lib/libBc_All_At91sam3s4c_Rf231_Gcc.a(machwiOrphanHandler.o)
                              ./../../../../BitCloud/lib/libBc_All_At91sam3s4c_Rf231_Gcc.a(machwiManager.o) (machwiOrphanRespHandler)
./../../../../BitCloud/lib/libBc_All_At91sam3s4c_Rf231_Gcc.a(machwiPanServer.o)
                              ./../../../../BitCloud/lib/libBc_All_At91sam3s4c_Rf231_Gcc.a(machwdManager.o) (MACHWD_DataInd)
./../../../../BitCloud/lib/libBc_All_At91sam3s4c_Rf231_Gcc.a(machwiPollHandler.o)
                              ./../../../../BitCloud/lib/libBc_All_At91sam3s4c_Rf231_Gcc.a(machwiPanServer.o) (machwiPollInd)
./../../../../BitCloud/lib/libBc_All_At91sam3s4c_Rf231_Gcc.a(machwiPurgeHandler.o)
                              ./../../../../BitCloud/lib/libBc_All_At91sam3s4c_Rf231_Gcc.a(machwiManager.o) (machwiPurgeReqHandler)
./../../../../BitCloud/lib/libBc_All_At91sam3s4c_Rf231_Gcc.a(machwiResetHandler.o)
                              ./../../../../BitCloud/lib/libBc_All_At91sam3s4c_Rf231_Gcc.a(machwiManager.o) (machwiResetReqHandler)
./../../../../BitCloud/lib/libBc_All_At91sam3s4c_Rf231_Gcc.a(machwiRxEnableHandler.o)
                              ./../../../../BitCloud/lib/libBc_All_At91sam3s4c_Rf231_Gcc.a(machwiManager.o) (machwiRxEnableReqHandler)
./../../../../BitCloud/lib/libBc_All_At91sam3s4c_Rf231_Gcc.a(machwiScanHandler.o)
                              ./../../../../BitCloud/lib/libBc_All_At91sam3s4c_Rf231_Gcc.a(machwiManager.o) (machwiScanReqHandler)
./../../../../BitCloud/lib/libBc_All_At91sam3s4c_Rf231_Gcc.a(machwiSetGetHandler.o)
                              ./../../../../BitCloud/lib/libBc_All_At91sam3s4c_Rf231_Gcc.a(machwiManager.o) (machwiGetReqHandler)
./../../../../BitCloud/lib/libBc_All_At91sam3s4c_Rf231_Gcc.a(machwiStartHandler.o)
                              ./../../../../BitCloud/lib/libBc_All_At91sam3s4c_Rf231_Gcc.a(machwiManager.o) (machwiStartReqHandler)
./../../../../BitCloud/lib/libBc_All_At91sam3s4c_Rf231_Gcc.a(machwiSwitchRxCtrl.o)
                              ./../../../../BitCloud/lib/libBc_All_At91sam3s4c_Rf231_Gcc.a(machwiPollHandler.o) (machwiSwitchRxAccordToRxOnWhenIdle)
./../../../../BitCloud/lib/libBc_All_At91sam3s4c_Rf231_Gcc.a(machwiTransactionHandler.o)
                              ./../../../../BitCloud/lib/libBc_All_At91sam3s4c_Rf231_Gcc.a(machwiResetHandler.o) (machwiResetTransactionHandler)
./../../../../BitCloud/lib/libBc_All_At91sam3s4c_Rf231_Gcc.a(machwiTransactionQueue.o)
                              ./../../../../BitCloud/lib/libBc_All_At91sam3s4c_Rf231_Gcc.a(machwiManager.o) (machwiGetActivatedTransactionFromQueue)
./../../../../BitCloud/lib/libBc_All_At91sam3s4c_Rf231_Gcc.a(phyInit.o)
                              ./../../../../BitCloud/lib/libBc_All_At91sam3s4c_Rf231_Gcc.a(taskManager.o) (RF_Init)
./../../../../BitCloud/lib/libBc_All_At91sam3s4c_Rf231_Gcc.a(phyRegAccess.o)
                              ./../../../../BitCloud/lib/libBc_All_At91sam3s4c_Rf231_Gcc.a(machwdRegAccessHandler.o) (PHY_RegWriteReq)
./../../../../BitCloud/lib/libBc_All_At91sam3s4c_Rf231_Gcc.a(phyReset.o)
                              ./../../../../BitCloud/lib/libBc_All_At91sam3s4c_Rf231_Gcc.a(machwdResetHandler.o) (PHY_Reset)
./../../../../BitCloud/lib/libBc_All_At91sam3s4c_Rf231_Gcc.a(phyRfSpiProto.o)
                              ./../../../../BitCloud/lib/libBc_All_At91sam3s4c_Rf231_Gcc.a(phyRxTxIndicator.o) (phyWriteRegister)
./../../../../BitCloud/lib/libBc_All_At91sam3s4c_Rf231_Gcc.a(phyRnd.o)
                              ./../../../../BitCloud/lib/libBc_All_At91sam3s4c_Rf231_Gcc.a(machwdRndHandler.o) (PHY_RndReq)
./../../../../BitCloud/lib/libBc_All_At91sam3s4c_Rf231_Gcc.a(phyRxFrame.o)
                              ./../../../../BitCloud/lib/libBc_All_At91sam3s4c_Rf231_Gcc.a(machwdRxFrameHandler.o) (PHY_DownloadFrame)
./../../../../BitCloud/lib/libBc_All_At91sam3s4c_Rf231_Gcc.a(phySet.o)
                              ./../../../../BitCloud/lib/libBc_All_At91sam3s4c_Rf231_Gcc.a(machwdResetHandler.o) (PHY_SetReq)
./../../../../BitCloud/lib/libBc_All_At91sam3s4c_Rf231_Gcc.a(phySetTrxState.o)
                              ./../../../../BitCloud/lib/libBc_All_At91sam3s4c_Rf231_Gcc.a(machwdSetHandler.o) (PHY_SetTrxStateReq)
./../../../../BitCloud/lib/libBc_All_At91sam3s4c_Rf231_Gcc.a(phyStateMachine.o)
                              ./../../../../BitCloud/lib/libBc_All_At91sam3s4c_Rf231_Gcc.a(phyRnd.o) (PHY_CheckStateTransition)
./../../../../BitCloud/lib/libBc_All_At91sam3s4c_Rf231_Gcc.a(phyTxFrame.o)
                              ./../../../../BitCloud/lib/libBc_All_At91sam3s4c_Rf231_Gcc.a(machwdTxFrameHandler.o) (PHY_DataReq)
./../../../../BitCloud/lib/libBc_All_At91sam3s4c_Rf231_Gcc.a(machwdCalibHandler.o)
                              ./../../../../BitCloud/lib/libBc_All_At91sam3s4c_Rf231_Gcc.a(machwdManager.o) (machwdCalibReqHandler)
./../../../../BitCloud/lib/libBc_All_At91sam3s4c_Rf231_Gcc.a(machwdEdHandler.o)
                              ./../../../../BitCloud/lib/libBc_All_At91sam3s4c_Rf231_Gcc.a(machwdManager.o) (machwdEdReqHandler)
./../../../../BitCloud/lib/libBc_All_At91sam3s4c_Rf231_Gcc.a(machwdFrameRoutine.o)
                              ./../../../../BitCloud/lib/libBc_All_At91sam3s4c_Rf231_Gcc.a(machwdRxFrameHandler.o) (machwdParseFrame)
./../../../../BitCloud/lib/libBc_All_At91sam3s4c_Rf231_Gcc.a(machwdHandlerCtrl.o)
                              ./../../../../BitCloud/lib/libBc_All_At91sam3s4c_Rf231_Gcc.a(machwdManager.o) (machwdGetHandlerId)
./../../../../BitCloud/lib/libBc_All_At91sam3s4c_Rf231_Gcc.a(machwiAssociateHandler.o)
                              ./../../../../BitCloud/lib/libBc_All_At91sam3s4c_Rf231_Gcc.a(machwiResetHandler.o) (machwiResetAssociateHandler)
./../../../../BitCloud/lib/libBc_All_At91sam3s4c_Rf231_Gcc.a(machwiBeaconHandler.o)
                              ./../../../../BitCloud/lib/libBc_All_At91sam3s4c_Rf231_Gcc.a(machwiManager.o) (machwiSendBeacon)
./../../../../BitCloud/lib/libBc_All_At91sam3s4c_Rf231_Gcc.a(machwiDataHandler.o)
                              ./../../../../BitCloud/lib/libBc_All_At91sam3s4c_Rf231_Gcc.a(machwiOrphanHandler.o) (machwiConvertmachwdDataConfirmTypes)
./../../../../BitCloud/lib/libBc_All_At91sam3s4c_Rf231_Gcc.a(phyCalib.o)
                              ./../../../../BitCloud/lib/libBc_All_At91sam3s4c_Rf231_Gcc.a(machwdCalibHandler.o) (PHY_CalibReq)
./../../../../BitCloud/lib/libBc_All_At91sam3s4c_Rf231_Gcc.a(phyEd.o)
                              ./../../../../BitCloud/lib/libBc_All_At91sam3s4c_Rf231_Gcc.a(machwdEdHandler.o) (PHY_EdReq)
./../../../../BitCloud/lib/libHAL_deRFusb23e06_At91sam3s4c_64Mhz_Gcc.a(halInit.o)
                              ./../../../../BitCloud/lib/libBc_All_At91sam3s4c_Rf231_Gcc.a(taskManager.o) (HAL_Init)
./../../../../BitCloud/lib/libHAL_deRFusb23e06_At91sam3s4c_64Mhz_Gcc.a(uid.o)
                              ./../../../../BitCloud/lib/libBc_All_At91sam3s4c_Rf231_Gcc.a(zdo.o) (HAL_ReadUid)
./../../../../BitCloud/lib/libHAL_deRFusb23e06_At91sam3s4c_64Mhz_Gcc.a(nv_basic.o)
                              ./../../../../BitCloud/lib/libHAL_deRFusb23e06_At91sam3s4c_64Mhz_Gcc.a(uid.o) (get_nv_basic)
c:/users/user/desktop/winsync/code_files/sabre/_toolchains/yagarto_arm/bin/../lib/gcc/arm-none-eabi/4.5.1/../../../../arm-none-eabi/lib/thumb/v7m\libc.a(lib_a-memcmp.o)
                              ./../../../../BitCloud/lib/libBc_All_At91sam3s4c_Rf231_Gcc.a(aps.o) (memcmp)
c:/users/user/desktop/winsync/code_files/sabre/_toolchains/yagarto_arm/bin/../lib/gcc/arm-none-eabi/4.5.1/../../../../arm-none-eabi/lib/thumb/v7m\libc.a(lib_a-memcpy.o)
                              All_deRFusb23e06_At91sam3s4c_Rf231_Gcc/Obj/WSNEndDevice.o (memcpy)
c:/users/user/desktop/winsync/code_files/sabre/_toolchains/yagarto_arm/bin/../lib/gcc/arm-none-eabi/4.5.1/../../../../arm-none-eabi/lib/thumb/v7m\libc.a(lib_a-memmove.o)
                              ./../../../../BitCloud/lib/libBc_All_At91sam3s4c_Rf231_Gcc.a(zdo.o) (memmove)
c:/users/user/desktop/winsync/code_files/sabre/_toolchains/yagarto_arm/bin/../lib/gcc/arm-none-eabi/4.5.1/../../../../arm-none-eabi/lib/thumb/v7m\libc.a(lib_a-memset.o)
                              All_deRFusb23e06_At91sam3s4c_Rf231_Gcc/Obj/WSNEndDevice.o (memset)
c:/users/user/desktop/winsync/code_files/sabre/_toolchains/yagarto_arm/bin/../lib/gcc/arm-none-eabi/4.5.1/../../../../arm-none-eabi/lib/thumb/v7m\libc.a(lib_a-rand.o)
                              ./../../../../BitCloud/lib/libBc_All_At91sam3s4c_Rf231_Gcc.a(zdo.o) (srand)
c:/users/user/desktop/winsync/code_files/sabre/_toolchains/yagarto_arm/bin/../lib/gcc/arm-none-eabi/4.5.1/../../../../arm-none-eabi/lib/thumb/v7m\libc.a(lib_a-impure.o)
                              c:/users/user/desktop/winsync/code_files/sabre/_toolchains/yagarto_arm/bin/../lib/gcc/arm-none-eabi/4.5.1/../../../../arm-none-eabi/lib/thumb/v7m\libc.a(lib_a-rand.o) (_impure_ptr)

Allocating common symbols
Common symbol       size              file

stackBuffers        0xb50             All_deRFusb23e06_At91sam3s4c_Rf231_Gcc/Obj/csMem.o
readBatteryDataCallback
                    0x4               All_deRFusb23e06_At91sam3s4c_Rf231_Gcc/Obj/fakeBSP.o
csAIB               0x2               All_deRFusb23e06_At91sam3s4c_Rf231_Gcc/Obj/csMem.o
response            0x7               All_deRFusb23e06_At91sam3s4c_Rf231_Gcc/Obj/vcpCdcProtocol.o
deviceState         0x1               ./../../../../BitCloud/lib/libHAL_deRFusb23e06_At91sam3s4c_64Mhz_Gcc.a(halUsb.o)
macMem              0x100             ./../../../../BitCloud/lib/libBc_All_At91sam3s4c_Rf231_Gcc.a(macMem.o)
nwkMem              0x2e0             ./../../../../BitCloud/lib/libBc_All_At91sam3s4c_Rf231_Gcc.a(nwk.o)
csZIB               0x38              All_deRFusb23e06_At91sam3s4c_Rf231_Gcc/Obj/csMem.o
csPIB               0x48              All_deRFusb23e06_At91sam3s4c_Rf231_Gcc/Obj/csMem.o
previousDeviceState
                    0x1               ./../../../../BitCloud/lib/libHAL_deRFusb23e06_At91sam3s4c_64Mhz_Gcc.a(halUsb.o)
zdoMem              0x548             ./../../../../BitCloud/lib/libBc_All_At91sam3s4c_Rf231_Gcc.a(zdo.o)
endpoints           0xe0              ./../../../../BitCloud/lib/libHAL_deRFusb23e06_At91sam3s4c_64Mhz_Gcc.a(halUsb.o)
readTemperatureDataCallback
                    0x4               All_deRFusb23e06_At91sam3s4c_Rf231_Gcc/Obj/fakeBSP.o
csSIB               0x50              All_deRFusb23e06_At91sam3s4c_Rf231_Gcc/Obj/csMem.o
request             0xf               All_deRFusb23e06_At91sam3s4c_Rf231_Gcc/Obj/vcpCdcProtocol.o
apsMem              0x158             ./../../../../BitCloud/lib/libBc_All_At91sam3s4c_Rf231_Gcc.a(aps.o)
txBuffer            0x21              ./../../../../BitCloud/lib/libBc_All_At91sam3s4c_Rf231_Gcc.a(machwdFrameRoutine.o)
__rtimer            0x6               ./../../../../BitCloud/lib/libHAL_deRFusb23e06_At91sam3s4c_64Mhz_Gcc.a(halMacIsr.o)
vcpControl          0x2               All_deRFusb23e06_At91sam3s4c_Rf231_Gcc/Obj/vcpVirtualUsart.o
halAvarRegState     0x48              ./../../../../BitCloud/lib/libHAL_deRFusb23e06_At91sam3s4c_64Mhz_Gcc.a(halExcHandler.o)
readLightDataCallback
                    0x4               All_deRFusb23e06_At91sam3s4c_Rf231_Gcc/Obj/fakeBSP.o
csNIB               0x90              All_deRFusb23e06_At91sam3s4c_Rf231_Gcc/Obj/csMem.o

Discarded input sections

 .text          0x00000000        0x0 All_deRFusb23e06_At91sam3s4c_Rf231_Gcc/Obj/WSNSensorManager.o
 .data          0x00000000        0x0 All_deRFusb23e06_At91sam3s4c_Rf231_Gcc/Obj/WSNSensorManager.o
 .text          0x00000000        0x0 All_deRFusb23e06_At91sam3s4c_Rf231_Gcc/Obj/WSNEndDevice.o
 .text          0x00000000        0x0 All_deRFusb23e06_At91sam3s4c_Rf231_Gcc/Obj/WSNCoord.o
 .data          0x00000000       0x10 All_deRFusb23e06_At91sam3s4c_Rf231_Gcc/Obj/WSNCoord.o
 .bss           0x00000000       0x18 All_deRFusb23e06_At91sam3s4c_Rf231_Gcc/Obj/WSNCoord.o
 .text.appCoordinatorInitialization
                0x00000000        0xc All_deRFusb23e06_At91sam3s4c_Rf231_Gcc/Obj/WSNCoord.o
 .text.appCoordinatorTaskReset
                0x00000000       0x14 All_deRFusb23e06_At91sam3s4c_Rf231_Gcc/Obj/WSNCoord.o
 .text.deviceTimerFired
                0x00000000       0x14 All_deRFusb23e06_At91sam3s4c_Rf231_Gcc/Obj/WSNCoord.o
 .text.appCoordinatorTaskHandler
                0x00000000       0x90 All_deRFusb23e06_At91sam3s4c_Rf231_Gcc/Obj/WSNCoord.o
 .text.appSensorsGot
                0x00000000       0x18 All_deRFusb23e06_At91sam3s4c_Rf231_Gcc/Obj/WSNCoord.o
 .text.appCoordinatorConfirmHandler
                0x00000000       0x3e All_deRFusb23e06_At91sam3s4c_Rf231_Gcc/Obj/WSNCoord.o
 .text.appCoordinatorNwkInfoCmdHandler
                0x00000000       0x14 All_deRFusb23e06_At91sam3s4c_Rf231_Gcc/Obj/WSNCoord.o
 .text.appCoordinatorIdentifyCmdHandler
                0x00000000      0x168 All_deRFusb23e06_At91sam3s4c_Rf231_Gcc/Obj/WSNCoord.o
 .text.appCoordinatorGetInterface
                0x00000000       0x2c All_deRFusb23e06_At91sam3s4c_Rf231_Gcc/Obj/WSNCoord.o
 .text          0x00000000        0x0 All_deRFusb23e06_At91sam3s4c_Rf231_Gcc/Obj/WSNVisualizer.o
 .data          0x00000000        0x0 All_deRFusb23e06_At91sam3s4c_Rf231_Gcc/Obj/WSNVisualizer.o
 .bss           0x00000000        0x0 All_deRFusb23e06_At91sam3s4c_Rf231_Gcc/Obj/WSNVisualizer.o
 .text.visualizeSerialTx
                0x00000000        0xa All_deRFusb23e06_At91sam3s4c_Rf231_Gcc/Obj/WSNVisualizer.o
 .text          0x00000000        0x0 All_deRFusb23e06_At91sam3s4c_Rf231_Gcc/Obj/WSNMessageSender.o
 .data          0x00000000        0x0 All_deRFusb23e06_At91sam3s4c_Rf231_Gcc/Obj/WSNMessageSender.o
 .text          0x00000000        0x0 All_deRFusb23e06_At91sam3s4c_Rf231_Gcc/Obj/WSNCommandHandler.o
 .data          0x00000000        0x0 All_deRFusb23e06_At91sam3s4c_Rf231_Gcc/Obj/WSNCommandHandler.o
 .text          0x00000000        0x0 All_deRFusb23e06_At91sam3s4c_Rf231_Gcc/Obj/WSNRouter.o
 .data          0x00000000       0x10 All_deRFusb23e06_At91sam3s4c_Rf231_Gcc/Obj/WSNRouter.o
 .bss           0x00000000       0x18 All_deRFusb23e06_At91sam3s4c_Rf231_Gcc/Obj/WSNRouter.o
 .text.appRouterInitialization
                0x00000000        0xc All_deRFusb23e06_At91sam3s4c_Rf231_Gcc/Obj/WSNRouter.o
 .text.appRouterTaskReset
                0x00000000       0x14 All_deRFusb23e06_At91sam3s4c_Rf231_Gcc/Obj/WSNRouter.o
 .text.deviceTimerFired
                0x00000000       0x14 All_deRFusb23e06_At91sam3s4c_Rf231_Gcc/Obj/WSNRouter.o
 .text.appRouterTaskHandler
                0x00000000       0xa0 All_deRFusb23e06_At91sam3s4c_Rf231_Gcc/Obj/WSNRouter.o
 .text.appSensorsGot
                0x00000000       0x18 All_deRFusb23e06_At91sam3s4c_Rf231_Gcc/Obj/WSNRouter.o
 .text.appRouterIdentifyCmdHandler
                0x00000000       0x1c All_deRFusb23e06_At91sam3s4c_Rf231_Gcc/Obj/WSNRouter.o
 .text.appRouterNwkInfoCmdHandler
                0x00000000       0x4c All_deRFusb23e06_At91sam3s4c_Rf231_Gcc/Obj/WSNRouter.o
 .text.appRouterGetInterface
                0x00000000       0x2c All_deRFusb23e06_At91sam3s4c_Rf231_Gcc/Obj/WSNRouter.o
 .text          0x00000000        0x0 All_deRFusb23e06_At91sam3s4c_Rf231_Gcc/Obj/WSNDemoApp.o
 .text.appPcCmdReceived
                0x00000000       0x10 All_deRFusb23e06_At91sam3s4c_Rf231_Gcc/Obj/WSNDemoApp.o
 .text          0x00000000        0x0 All_deRFusb23e06_At91sam3s4c_Rf231_Gcc/Obj/WSNUARTManager.o
 .data          0x00000000        0x0 All_deRFusb23e06_At91sam3s4c_Rf231_Gcc/Obj/WSNUARTManager.o
 .bss           0x00000000      0x14c All_deRFusb23e06_At91sam3s4c_Rf231_Gcc/Obj/WSNUARTManager.o
 .text.sendNextMessage
                0x00000000       0x34 All_deRFusb23e06_At91sam3s4c_Rf231_Gcc/Obj/WSNUARTManager.o
 .text.writeConfirm
                0x00000000       0x2c All_deRFusb23e06_At91sam3s4c_Rf231_Gcc/Obj/WSNUARTManager.o
 .text.resetUsartRx
                0x00000000       0x24 All_deRFusb23e06_At91sam3s4c_Rf231_Gcc/Obj/WSNUARTManager.o
 .text.linkSafetyTimerFired
                0x00000000        0x8 All_deRFusb23e06_At91sam3s4c_Rf231_Gcc/Obj/WSNUARTManager.o
 .text.readByteEvent
                0x00000000      0x104 All_deRFusb23e06_At91sam3s4c_Rf231_Gcc/Obj/WSNUARTManager.o
 .text.appStartUsartManager
                0x00000000       0x84 All_deRFusb23e06_At91sam3s4c_Rf231_Gcc/Obj/WSNUARTManager.o
 .text.appStopUsartManager
                0x00000000       0x10 All_deRFusb23e06_At91sam3s4c_Rf231_Gcc/Obj/WSNUARTManager.o
 .text.appSendMessageToUsart
                0x00000000       0xac All_deRFusb23e06_At91sam3s4c_Rf231_Gcc/Obj/WSNUARTManager.o
 .text          0x00000000        0x0 All_deRFusb23e06_At91sam3s4c_Rf231_Gcc/Obj/pdsMem.o
 .data          0x00000000        0x0 All_deRFusb23e06_At91sam3s4c_Rf231_Gcc/Obj/pdsMem.o
 .bss           0x00000000        0x0 All_deRFusb23e06_At91sam3s4c_Rf231_Gcc/Obj/pdsMem.o
 .text          0x00000000        0x0 All_deRFusb23e06_At91sam3s4c_Rf231_Gcc/Obj/pdsWriteData.o
 .data          0x00000000        0x0 All_deRFusb23e06_At91sam3s4c_Rf231_Gcc/Obj/pdsWriteData.o
 .bss           0x00000000        0x0 All_deRFusb23e06_At91sam3s4c_Rf231_Gcc/Obj/pdsWriteData.o
 .text.pdsDummyCallback
                0x00000000        0x2 All_deRFusb23e06_At91sam3s4c_Rf231_Gcc/Obj/pdsWriteData.o
 .text.pdsWaitMemoryFree
                0x00000000       0x12 All_deRFusb23e06_At91sam3s4c_Rf231_Gcc/Obj/pdsWriteData.o
 .text.pdsRead  0x00000000       0x30 All_deRFusb23e06_At91sam3s4c_Rf231_Gcc/Obj/pdsWriteData.o
 .text.pdsWrite
                0x00000000       0x30 All_deRFusb23e06_At91sam3s4c_Rf231_Gcc/Obj/pdsWriteData.o
 .text          0x00000000        0x0 All_deRFusb23e06_At91sam3s4c_Rf231_Gcc/Obj/pdsDataServer.o
 .data          0x00000000        0x0 All_deRFusb23e06_At91sam3s4c_Rf231_Gcc/Obj/pdsDataServer.o
 .bss           0x00000000        0x0 All_deRFusb23e06_At91sam3s4c_Rf231_Gcc/Obj/pdsDataServer.o
 .text.PDS_ReadUserData
                0x00000000       0x4c All_deRFusb23e06_At91sam3s4c_Rf231_Gcc/Obj/pdsDataServer.o
 .text.PDS_WriteUserData
                0x00000000       0x4c All_deRFusb23e06_At91sam3s4c_Rf231_Gcc/Obj/pdsDataServer.o
 .text          0x00000000        0x0 All_deRFusb23e06_At91sam3s4c_Rf231_Gcc/Obj/pdsInit.o
 .data          0x00000000        0x0 All_deRFusb23e06_At91sam3s4c_Rf231_Gcc/Obj/pdsInit.o
 .bss           0x00000000        0x0 All_deRFusb23e06_At91sam3s4c_Rf231_Gcc/Obj/pdsInit.o
 .text          0x00000000        0x0 All_deRFusb23e06_At91sam3s4c_Rf231_Gcc/Obj/pdsTimer.o
 .data          0x00000000        0x0 All_deRFusb23e06_At91sam3s4c_Rf231_Gcc/Obj/pdsTimer.o
 .bss           0x00000000        0x0 All_deRFusb23e06_At91sam3s4c_Rf231_Gcc/Obj/pdsTimer.o
 .text          0x00000000        0x0 All_deRFusb23e06_At91sam3s4c_Rf231_Gcc/Obj/pdsEvents.o
 .data          0x00000000        0x0 All_deRFusb23e06_At91sam3s4c_Rf231_Gcc/Obj/pdsEvents.o
 .bss           0x00000000        0x0 All_deRFusb23e06_At91sam3s4c_Rf231_Gcc/Obj/pdsEvents.o
 .text          0x00000000        0x0 All_deRFusb23e06_At91sam3s4c_Rf231_Gcc/Obj/pdsMemAccess.o
 .data          0x00000000        0x0 All_deRFusb23e06_At91sam3s4c_Rf231_Gcc/Obj/pdsMemAccess.o
 .bss           0x00000000        0x0 All_deRFusb23e06_At91sam3s4c_Rf231_Gcc/Obj/pdsMemAccess.o
 .text          0x00000000        0x0 All_deRFusb23e06_At91sam3s4c_Rf231_Gcc/Obj/pdsCrcService.o
 .data          0x00000000        0x0 All_deRFusb23e06_At91sam3s4c_Rf231_Gcc/Obj/pdsCrcService.o
 .bss           0x00000000        0x0 All_deRFusb23e06_At91sam3s4c_Rf231_Gcc/Obj/pdsCrcService.o
 .text          0x00000000        0x0 All_deRFusb23e06_At91sam3s4c_Rf231_Gcc/Obj/leds.o
 .data          0x00000000        0x0 All_deRFusb23e06_At91sam3s4c_Rf231_Gcc/Obj/leds.o
 .bss           0x00000000        0x0 All_deRFusb23e06_At91sam3s4c_Rf231_Gcc/Obj/leds.o
 .text          0x00000000        0x0 All_deRFusb23e06_At91sam3s4c_Rf231_Gcc/Obj/bspTaskManager.o
 .data          0x00000000        0x0 All_deRFusb23e06_At91sam3s4c_Rf231_Gcc/Obj/bspTaskManager.o
 .text          0x00000000        0x0 All_deRFusb23e06_At91sam3s4c_Rf231_Gcc/Obj/fakeBSP.o
 .data          0x00000000        0x0 All_deRFusb23e06_At91sam3s4c_Rf231_Gcc/Obj/fakeBSP.o
 .bss           0x00000000        0x0 All_deRFusb23e06_At91sam3s4c_Rf231_Gcc/Obj/fakeBSP.o
 .text.BSP_OpenButtons
                0x00000000        0x4 All_deRFusb23e06_At91sam3s4c_Rf231_Gcc/Obj/fakeBSP.o
 .text.BSP_CloseButtons
                0x00000000        0x4 All_deRFusb23e06_At91sam3s4c_Rf231_Gcc/Obj/fakeBSP.o
 .text.BSP_ReadButtonsState
                0x00000000        0x4 All_deRFusb23e06_At91sam3s4c_Rf231_Gcc/Obj/fakeBSP.o
 .text.BSP_ReadSliders
                0x00000000        0x4 All_deRFusb23e06_At91sam3s4c_Rf231_Gcc/Obj/fakeBSP.o
 .text.BSP_OpenJoystick
                0x00000000        0x4 All_deRFusb23e06_At91sam3s4c_Rf231_Gcc/Obj/fakeBSP.o
 .text.BSP_CloseJoystick
                0x00000000        0x4 All_deRFusb23e06_At91sam3s4c_Rf231_Gcc/Obj/fakeBSP.o
 .text.BSP_ReadJoystickState
                0x00000000        0x4 All_deRFusb23e06_At91sam3s4c_Rf231_Gcc/Obj/fakeBSP.o
 .text          0x00000000        0x0 All_deRFusb23e06_At91sam3s4c_Rf231_Gcc/Obj/vcpVirtualUsart.o
 .data          0x00000000        0x0 All_deRFusb23e06_At91sam3s4c_Rf231_Gcc/Obj/vcpVirtualUsart.o
 .bss           0x00000000        0x4 All_deRFusb23e06_At91sam3s4c_Rf231_Gcc/Obj/vcpVirtualUsart.o
 .text.vcpTmtCallback
                0x00000000       0x74 All_deRFusb23e06_At91sam3s4c_Rf231_Gcc/Obj/vcpVirtualUsart.o
 .text.VCP_OpenUsart
                0x00000000       0x50 All_deRFusb23e06_At91sam3s4c_Rf231_Gcc/Obj/vcpVirtualUsart.o
 .text.VCP_CloseUsart
                0x00000000       0x1c All_deRFusb23e06_At91sam3s4c_Rf231_Gcc/Obj/vcpVirtualUsart.o
 .text.VCP_WriteUsart
                0x00000000       0xe4 All_deRFusb23e06_At91sam3s4c_Rf231_Gcc/Obj/vcpVirtualUsart.o
 .text.vcpEnableReadPipe
                0x00000000       0x88 All_deRFusb23e06_At91sam3s4c_Rf231_Gcc/Obj/vcpVirtualUsart.o
 .text.vcpRcvCallback
                0x00000000       0x38 All_deRFusb23e06_At91sam3s4c_Rf231_Gcc/Obj/vcpVirtualUsart.o
 .text.VCP_ReadUsart
                0x00000000       0xec All_deRFusb23e06_At91sam3s4c_Rf231_Gcc/Obj/vcpVirtualUsart.o
 .text.VCP_IsTxEmpty
                0x00000000       0x28 All_deRFusb23e06_At91sam3s4c_Rf231_Gcc/Obj/vcpVirtualUsart.o
 COMMON         0x00000000        0x2 All_deRFusb23e06_At91sam3s4c_Rf231_Gcc/Obj/vcpVirtualUsart.o
 .text          0x00000000        0x0 All_deRFusb23e06_At91sam3s4c_Rf231_Gcc/Obj/vcpCdcProtocol.o
 .data          0x00000000        0x0 All_deRFusb23e06_At91sam3s4c_Rf231_Gcc/Obj/vcpCdcProtocol.o
 .bss           0x00000000        0x0 All_deRFusb23e06_At91sam3s4c_Rf231_Gcc/Obj/vcpCdcProtocol.o
 .text.vcpResponseSetLineCoding
                0x00000000        0x8 All_deRFusb23e06_At91sam3s4c_Rf231_Gcc/Obj/vcpCdcProtocol.o
 .text.vcpGetBaudRate
                0x00000000       0x10 All_deRFusb23e06_At91sam3s4c_Rf231_Gcc/Obj/vcpCdcProtocol.o
 .text.vcpGetStopBits
                0x00000000        0xc All_deRFusb23e06_At91sam3s4c_Rf231_Gcc/Obj/vcpCdcProtocol.o
 .text.vcpGetParity
                0x00000000        0xc All_deRFusb23e06_At91sam3s4c_Rf231_Gcc/Obj/vcpCdcProtocol.o
 .text.vcpGetDataLength
                0x00000000        0xc All_deRFusb23e06_At91sam3s4c_Rf231_Gcc/Obj/vcpCdcProtocol.o
 .text.vcpResponseGetLineCoding
                0x00000000       0x24 All_deRFusb23e06_At91sam3s4c_Rf231_Gcc/Obj/vcpCdcProtocol.o
 .text.vcpSetBaudRate
                0x00000000        0x2 All_deRFusb23e06_At91sam3s4c_Rf231_Gcc/Obj/vcpCdcProtocol.o
 .text.vcpSetStopBits
                0x00000000        0x2 All_deRFusb23e06_At91sam3s4c_Rf231_Gcc/Obj/vcpCdcProtocol.o
 .text.vcpSetParity
                0x00000000        0x2 All_deRFusb23e06_At91sam3s4c_Rf231_Gcc/Obj/vcpCdcProtocol.o
 .text.vcpSetDataLength
                0x00000000        0x2 All_deRFusb23e06_At91sam3s4c_Rf231_Gcc/Obj/vcpCdcProtocol.o
 .text.vcpRequestHandler
                0x00000000       0x40 All_deRFusb23e06_At91sam3s4c_Rf231_Gcc/Obj/vcpCdcProtocol.o
 COMMON         0x00000000       0x17 All_deRFusb23e06_At91sam3s4c_Rf231_Gcc/Obj/vcpCdcProtocol.o
 .text          0x00000000        0x0 All_deRFusb23e06_At91sam3s4c_Rf231_Gcc/Obj/usbSetupProcess.o
 .data          0x00000000        0x0 All_deRFusb23e06_At91sam3s4c_Rf231_Gcc/Obj/usbSetupProcess.o
 .bss           0x00000000        0x0 All_deRFusb23e06_At91sam3s4c_Rf231_Gcc/Obj/usbSetupProcess.o
 .text.setupProcessRequestHandler
                0x00000000       0x1c All_deRFusb23e06_At91sam3s4c_Rf231_Gcc/Obj/usbSetupProcess.o
 .text          0x00000000        0x0 All_deRFusb23e06_At91sam3s4c_Rf231_Gcc/Obj/usbDescriptors.o
 .data          0x00000000        0x0 All_deRFusb23e06_At91sam3s4c_Rf231_Gcc/Obj/usbDescriptors.o
 .bss           0x00000000        0x0 All_deRFusb23e06_At91sam3s4c_Rf231_Gcc/Obj/usbDescriptors.o
 .rodata        0x00000000       0x70 All_deRFusb23e06_At91sam3s4c_Rf231_Gcc/Obj/usbDescriptors.o
 .text          0x00000000        0x0 All_deRFusb23e06_At91sam3s4c_Rf231_Gcc/Obj/usbEnumeration.o
 .data          0x00000000       0x18 All_deRFusb23e06_At91sam3s4c_Rf231_Gcc/Obj/usbEnumeration.o
 .bss           0x00000000        0x2 All_deRFusb23e06_At91sam3s4c_Rf231_Gcc/Obj/usbEnumeration.o
 .text.sendZLP  0x00000000       0x12 All_deRFusb23e06_At91sam3s4c_Rf231_Gcc/Obj/usbEnumeration.o
 .text.runtimeSetConfiguration
                0x00000000        0xc All_deRFusb23e06_At91sam3s4c_Rf231_Gcc/Obj/usbEnumeration.o
 .text.runtimeGetDescriptorHandler
                0x00000000       0x6c All_deRFusb23e06_At91sam3s4c_Rf231_Gcc/Obj/usbEnumeration.o
 .text.runtimeRequestHandler
                0x00000000       0xb0 All_deRFusb23e06_At91sam3s4c_Rf231_Gcc/Obj/usbEnumeration.o
 .text.usbBusResetAction
                0x00000000       0x10 All_deRFusb23e06_At91sam3s4c_Rf231_Gcc/Obj/usbEnumeration.o
 .text.usbSetSerialNumber
                0x00000000       0x24 All_deRFusb23e06_At91sam3s4c_Rf231_Gcc/Obj/usbEnumeration.o
 .text          0x00000000        0x0 All_deRFusb23e06_At91sam3s4c_Rf231_Gcc/Obj/csPersistentMem.o
 .data          0x00000000        0x0 All_deRFusb23e06_At91sam3s4c_Rf231_Gcc/Obj/csPersistentMem.o
 .bss           0x00000000        0x0 All_deRFusb23e06_At91sam3s4c_Rf231_Gcc/Obj/csPersistentMem.o
 .text          0x00000000        0x0 All_deRFusb23e06_At91sam3s4c_Rf231_Gcc/Obj/csMem.o
 .bss           0x00000000        0x0 All_deRFusb23e06_At91sam3s4c_Rf231_Gcc/Obj/csMem.o
 .text          0x00000000        0x0 All_deRFusb23e06_At91sam3s4c_Rf231_Gcc/Obj/configServer.o
 .data          0x00000000        0x0 All_deRFusb23e06_At91sam3s4c_Rf231_Gcc/Obj/configServer.o
 .bss           0x00000000        0x0 All_deRFusb23e06_At91sam3s4c_Rf231_Gcc/Obj/configServer.o
 .text.CS_PdsDefaultValue
                0x00000000       0x98 All_deRFusb23e06_At91sam3s4c_Rf231_Gcc/Obj/configServer.o
 .text          0x00000000        0x0 ./../../../../BitCloud/lib/libHAL_deRFusb23e06_At91sam3s4c_64Mhz_Gcc.a(atomic.o)
 .data          0x00000000        0x0 ./../../../../BitCloud/lib/libHAL_deRFusb23e06_At91sam3s4c_64Mhz_Gcc.a(atomic.o)
 .bss           0x00000000        0x0 ./../../../../BitCloud/lib/libHAL_deRFusb23e06_At91sam3s4c_64Mhz_Gcc.a(atomic.o)
 .text          0x00000000        0x0 ./../../../../BitCloud/lib/libHAL_deRFusb23e06_At91sam3s4c_64Mhz_Gcc.a(core_cm3.o)
 .data          0x00000000        0x0 ./../../../../BitCloud/lib/libHAL_deRFusb23e06_At91sam3s4c_64Mhz_Gcc.a(core_cm3.o)
 .bss           0x00000000        0x0 ./../../../../BitCloud/lib/libHAL_deRFusb23e06_At91sam3s4c_64Mhz_Gcc.a(core_cm3.o)
 .text.__get_PSP
                0x00000000        0x6 ./../../../../BitCloud/lib/libHAL_deRFusb23e06_At91sam3s4c_64Mhz_Gcc.a(core_cm3.o)
 .text.__set_PSP
                0x00000000        0x6 ./../../../../BitCloud/lib/libHAL_deRFusb23e06_At91sam3s4c_64Mhz_Gcc.a(core_cm3.o)
 .text.__get_MSP
                0x00000000        0x6 ./../../../../BitCloud/lib/libHAL_deRFusb23e06_At91sam3s4c_64Mhz_Gcc.a(core_cm3.o)
 .text.__set_MSP
                0x00000000        0x6 ./../../../../BitCloud/lib/libHAL_deRFusb23e06_At91sam3s4c_64Mhz_Gcc.a(core_cm3.o)
 .text.__get_BASEPRI
                0x00000000        0x6 ./../../../../BitCloud/lib/libHAL_deRFusb23e06_At91sam3s4c_64Mhz_Gcc.a(core_cm3.o)
 .text.__set_BASEPRI
                0x00000000        0x6 ./../../../../BitCloud/lib/libHAL_deRFusb23e06_At91sam3s4c_64Mhz_Gcc.a(core_cm3.o)
 .text.__get_FAULTMASK
                0x00000000        0x6 ./../../../../BitCloud/lib/libHAL_deRFusb23e06_At91sam3s4c_64Mhz_Gcc.a(core_cm3.o)
 .text.__set_FAULTMASK
                0x00000000        0x6 ./../../../../BitCloud/lib/libHAL_deRFusb23e06_At91sam3s4c_64Mhz_Gcc.a(core_cm3.o)
 .text.__REV    0x00000000        0x4 ./../../../../BitCloud/lib/libHAL_deRFusb23e06_At91sam3s4c_64Mhz_Gcc.a(core_cm3.o)
 .text.__REV16  0x00000000        0x4 ./../../../../BitCloud/lib/libHAL_deRFusb23e06_At91sam3s4c_64Mhz_Gcc.a(core_cm3.o)
 .text.__REVSH  0x00000000        0x4 ./../../../../BitCloud/lib/libHAL_deRFusb23e06_At91sam3s4c_64Mhz_Gcc.a(core_cm3.o)
 .text.__RBIT   0x00000000        0x6 ./../../../../BitCloud/lib/libHAL_deRFusb23e06_At91sam3s4c_64Mhz_Gcc.a(core_cm3.o)
 .text.__LDREXB
                0x00000000        0x8 ./../../../../BitCloud/lib/libHAL_deRFusb23e06_At91sam3s4c_64Mhz_Gcc.a(core_cm3.o)
 .text.__LDREXH
                0x00000000        0x8 ./../../../../BitCloud/lib/libHAL_deRFusb23e06_At91sam3s4c_64Mhz_Gcc.a(core_cm3.o)
 .text.__LDREXW
                0x00000000        0x6 ./../../../../BitCloud/lib/libHAL_deRFusb23e06_At91sam3s4c_64Mhz_Gcc.a(core_cm3.o)
 .text.__STREXB
                0x00000000        0x6 ./../../../../BitCloud/lib/libHAL_deRFusb23e06_At91sam3s4c_64Mhz_Gcc.a(core_cm3.o)
 .text.__STREXH
                0x00000000        0x6 ./../../../../BitCloud/lib/libHAL_deRFusb23e06_At91sam3s4c_64Mhz_Gcc.a(core_cm3.o)
 .text.__STREXW
                0x00000000        0x6 ./../../../../BitCloud/lib/libHAL_deRFusb23e06_At91sam3s4c_64Mhz_Gcc.a(core_cm3.o)
 .text.__get_CONTROL
                0x00000000        0x6 ./../../../../BitCloud/lib/libHAL_deRFusb23e06_At91sam3s4c_64Mhz_Gcc.a(core_cm3.o)
 .text.__set_CONTROL
                0x00000000        0x6 ./../../../../BitCloud/lib/libHAL_deRFusb23e06_At91sam3s4c_64Mhz_Gcc.a(core_cm3.o)
 .text          0x00000000        0x0 ./../../../../BitCloud/lib/libHAL_deRFusb23e06_At91sam3s4c_64Mhz_Gcc.a(halVectorTable.o)
 .data          0x00000000        0x0 ./../../../../BitCloud/lib/libHAL_deRFusb23e06_At91sam3s4c_64Mhz_Gcc.a(halVectorTable.o)
 .bss           0x00000000        0x0 ./../../../../BitCloud/lib/libHAL_deRFusb23e06_At91sam3s4c_64Mhz_Gcc.a(halVectorTable.o)
 .text.HAL_InstallInterruptVector
                0x00000000       0x28 ./../../../../BitCloud/lib/libHAL_deRFusb23e06_At91sam3s4c_64Mhz_Gcc.a(halVectorTable.o)
 .text          0x00000000        0x0 ./../../../../BitCloud/lib/libHAL_deRFusb23e06_At91sam3s4c_64Mhz_Gcc.a(halAppClock.o)
 .data          0x00000000        0x0 ./../../../../BitCloud/lib/libHAL_deRFusb23e06_At91sam3s4c_64Mhz_Gcc.a(halAppClock.o)
 .text.HAL_ReadFreq
                0x00000000        0x8 ./../../../../BitCloud/lib/libHAL_deRFusb23e06_At91sam3s4c_64Mhz_Gcc.a(halAppClock.o)
 .text          0x00000000        0x0 ./../../../../BitCloud/lib/libHAL_deRFusb23e06_At91sam3s4c_64Mhz_Gcc.a(halUsart.o)
 .data          0x00000000        0x0 ./../../../../BitCloud/lib/libHAL_deRFusb23e06_At91sam3s4c_64Mhz_Gcc.a(halUsart.o)
 .bss           0x00000000        0x0 ./../../../../BitCloud/lib/libHAL_deRFusb23e06_At91sam3s4c_64Mhz_Gcc.a(halUsart.o)
 .text.halFoundationsInit
                0x00000000       0x84 ./../../../../BitCloud/lib/libHAL_deRFusb23e06_At91sam3s4c_64Mhz_Gcc.a(halUsart.o)
 .text.halSetUsartConfig
                0x00000000       0x3e ./../../../../BitCloud/lib/libHAL_deRFusb23e06_At91sam3s4c_64Mhz_Gcc.a(halUsart.o)
 .text          0x00000000        0x0 ./../../../../BitCloud/lib/libHAL_deRFusb23e06_At91sam3s4c_64Mhz_Gcc.a(halUart.o)
 .data          0x00000000        0x0 ./../../../../BitCloud/lib/libHAL_deRFusb23e06_At91sam3s4c_64Mhz_Gcc.a(halUart.o)
 .text.halCloseUart
                0x00000000       0x5c ./../../../../BitCloud/lib/libHAL_deRFusb23e06_At91sam3s4c_64Mhz_Gcc.a(halUart.o)
 .text.uart1Handler
                0x00000000       0x68 ./../../../../BitCloud/lib/libHAL_deRFusb23e06_At91sam3s4c_64Mhz_Gcc.a(halUart.o)
 .text.halIsUartValid
                0x00000000       0x20 ./../../../../BitCloud/lib/libHAL_deRFusb23e06_At91sam3s4c_64Mhz_Gcc.a(halUart.o)
 .text.halIsUartOpened
                0x00000000       0x1c ./../../../../BitCloud/lib/libHAL_deRFusb23e06_At91sam3s4c_64Mhz_Gcc.a(halUart.o)
 .text.halOpenUart
                0x00000000       0x88 ./../../../../BitCloud/lib/libHAL_deRFusb23e06_At91sam3s4c_64Mhz_Gcc.a(halUart.o)
 .text          0x00000000        0x0 ./../../../../BitCloud/lib/libHAL_deRFusb23e06_At91sam3s4c_64Mhz_Gcc.a(halUsb.o)
 .data          0x00000000        0x0 ./../../../../BitCloud/lib/libHAL_deRFusb23e06_At91sam3s4c_64Mhz_Gcc.a(halUsb.o)
 .text.halUsbInterrupt
                0x00000000       0x28 ./../../../../BitCloud/lib/libHAL_deRFusb23e06_At91sam3s4c_64Mhz_Gcc.a(halUsb.o)
 .text.halStartUsbWrite
                0x00000000       0x60 ./../../../../BitCloud/lib/libHAL_deRFusb23e06_At91sam3s4c_64Mhz_Gcc.a(halUsb.o)
 .text.halEndpointHaltState
                0x00000000       0x1c ./../../../../BitCloud/lib/libHAL_deRFusb23e06_At91sam3s4c_64Mhz_Gcc.a(halUsb.o)
 .text.halEndpointUnHaltState
                0x00000000       0x28 ./../../../../BitCloud/lib/libHAL_deRFusb23e06_At91sam3s4c_64Mhz_Gcc.a(halUsb.o)
 .text.halSendStallToHost
                0x00000000        0xa ./../../../../BitCloud/lib/libHAL_deRFusb23e06_At91sam3s4c_64Mhz_Gcc.a(halUsb.o)
 .text.halSetUsbAddress
                0x00000000       0x18 ./../../../../BitCloud/lib/libHAL_deRFusb23e06_At91sam3s4c_64Mhz_Gcc.a(halUsb.o)
 .text.halSetUsbConfigState
                0x00000000       0x18 ./../../../../BitCloud/lib/libHAL_deRFusb23e06_At91sam3s4c_64Mhz_Gcc.a(halUsb.o)
 .text          0x00000000        0x0 ./../../../../BitCloud/lib/libHAL_deRFusb23e06_At91sam3s4c_64Mhz_Gcc.a(halIrq.o)
 .bss           0x00000000        0x0 ./../../../../BitCloud/lib/libHAL_deRFusb23e06_At91sam3s4c_64Mhz_Gcc.a(halIrq.o)
 .text.halUnregisterExtIrq
                0x00000000       0xa8 ./../../../../BitCloud/lib/libHAL_deRFusb23e06_At91sam3s4c_64Mhz_Gcc.a(halIrq.o)
 .text.halIsUserExtIrqRegistered
                0x00000000       0x18 ./../../../../BitCloud/lib/libHAL_deRFusb23e06_At91sam3s4c_64Mhz_Gcc.a(halIrq.o)
 .text.halIsUserExtIrqValid
                0x00000000        0xa ./../../../../BitCloud/lib/libHAL_deRFusb23e06_At91sam3s4c_64Mhz_Gcc.a(halIrq.o)
 .text          0x00000000        0x0 ./../../../../BitCloud/lib/libHAL_deRFusb23e06_At91sam3s4c_64Mhz_Gcc.a(halHsmci.o)
 .data          0x00000000        0x0 ./../../../../BitCloud/lib/libHAL_deRFusb23e06_At91sam3s4c_64Mhz_Gcc.a(halHsmci.o)
 .text.halPrepareHsmciCommand
                0x00000000       0x2c ./../../../../BitCloud/lib/libHAL_deRFusb23e06_At91sam3s4c_64Mhz_Gcc.a(halHsmci.o)
 .text.halCalculateHsmciClockDivider
                0x00000000       0x28 ./../../../../BitCloud/lib/libHAL_deRFusb23e06_At91sam3s4c_64Mhz_Gcc.a(halHsmci.o)
 .text.halInitHsmci
                0x00000000       0x90 ./../../../../BitCloud/lib/libHAL_deRFusb23e06_At91sam3s4c_64Mhz_Gcc.a(halHsmci.o)
 .text.halWriteHsmciCommand
                0x00000000       0x24 ./../../../../BitCloud/lib/libHAL_deRFusb23e06_At91sam3s4c_64Mhz_Gcc.a(halHsmci.o)
 .text.halHsmciData
                0x00000000       0x9c ./../../../../BitCloud/lib/libHAL_deRFusb23e06_At91sam3s4c_64Mhz_Gcc.a(halHsmci.o)
 .text.halHsmciIsBusFree
                0x00000000       0x24 ./../../../../BitCloud/lib/libHAL_deRFusb23e06_At91sam3s4c_64Mhz_Gcc.a(halHsmci.o)
 .text.halHsmciSetClockRate
                0x00000000       0x1e ./../../../../BitCloud/lib/libHAL_deRFusb23e06_At91sam3s4c_64Mhz_Gcc.a(halHsmci.o)
 .text.halHsmciSetBusWidth
                0x00000000       0x18 ./../../../../BitCloud/lib/libHAL_deRFusb23e06_At91sam3s4c_64Mhz_Gcc.a(halHsmci.o)
 .text.halHsmciSetHighSpeedMode
                0x00000000       0x1c ./../../../../BitCloud/lib/libHAL_deRFusb23e06_At91sam3s4c_64Mhz_Gcc.a(halHsmci.o)
 .text          0x00000000        0x0 ./../../../../BitCloud/lib/libHAL_deRFusb23e06_At91sam3s4c_64Mhz_Gcc.a(halSleepTimerClock.o)
 .data          0x00000000        0x0 ./../../../../BitCloud/lib/libHAL_deRFusb23e06_At91sam3s4c_64Mhz_Gcc.a(halSleepTimerClock.o)
 .text.halWakeupFromIrq
                0x00000000       0x58 ./../../../../BitCloud/lib/libHAL_deRFusb23e06_At91sam3s4c_64Mhz_Gcc.a(halSleepTimerClock.o)
 .text          0x00000000        0x0 ./../../../../BitCloud/lib/libHAL_deRFusb23e06_At91sam3s4c_64Mhz_Gcc.a(halSleep.o)
 .data          0x00000000        0x0 ./../../../../BitCloud/lib/libHAL_deRFusb23e06_At91sam3s4c_64Mhz_Gcc.a(halSleep.o)
 .text.HAL_IdleMode
                0x00000000       0x20 ./../../../../BitCloud/lib/libHAL_deRFusb23e06_At91sam3s4c_64Mhz_Gcc.a(halSleep.o)
 .text          0x00000000        0x0 ./../../../../BitCloud/lib/libHAL_deRFusb23e06_At91sam3s4c_64Mhz_Gcc.a(halStartupGcc.o)
 .data          0x00000000        0x0 ./../../../../BitCloud/lib/libHAL_deRFusb23e06_At91sam3s4c_64Mhz_Gcc.a(halStartupGcc.o)
 .bss           0x00000000        0x0 ./../../../../BitCloud/lib/libHAL_deRFusb23e06_At91sam3s4c_64Mhz_Gcc.a(halStartupGcc.o)
 .text          0x00000000        0x0 ./../../../../BitCloud/lib/libHAL_deRFusb23e06_At91sam3s4c_64Mhz_Gcc.a(halRfCtrl.o)
 .data          0x00000000        0x0 ./../../../../BitCloud/lib/libHAL_deRFusb23e06_At91sam3s4c_64Mhz_Gcc.a(halRfCtrl.o)
 .bss           0x00000000        0x0 ./../../../../BitCloud/lib/libHAL_deRFusb23e06_At91sam3s4c_64Mhz_Gcc.a(halRfCtrl.o)
 .text.HAL_MakeInRfSlpTr
                0x00000000       0x14 ./../../../../BitCloud/lib/libHAL_deRFusb23e06_At91sam3s4c_64Mhz_Gcc.a(halRfCtrl.o)
 .text.HAL_MakeOutRfSlpTr
                0x00000000       0x10 ./../../../../BitCloud/lib/libHAL_deRFusb23e06_At91sam3s4c_64Mhz_Gcc.a(halRfCtrl.o)
 .text          0x00000000        0x0 ./../../../../BitCloud/lib/libHAL_deRFusb23e06_At91sam3s4c_64Mhz_Gcc.a(halRfSpi.o)
 .data          0x00000000        0x0 ./../../../../BitCloud/lib/libHAL_deRFusb23e06_At91sam3s4c_64Mhz_Gcc.a(halRfSpi.o)
 .bss           0x00000000        0x0 ./../../../../BitCloud/lib/libHAL_deRFusb23e06_At91sam3s4c_64Mhz_Gcc.a(halRfSpi.o)
 .text          0x00000000        0x0 ./../../../../BitCloud/lib/libHAL_deRFusb23e06_At91sam3s4c_64Mhz_Gcc.a(halMacIsr.o)
 .data          0x00000000        0x0 ./../../../../BitCloud/lib/libHAL_deRFusb23e06_At91sam3s4c_64Mhz_Gcc.a(halMacIsr.o)
 .bss           0x00000000        0x0 ./../../../../BitCloud/lib/libHAL_deRFusb23e06_At91sam3s4c_64Mhz_Gcc.a(halMacIsr.o)
 .text          0x00000000        0x0 ./../../../../BitCloud/lib/libHAL_deRFusb23e06_At91sam3s4c_64Mhz_Gcc.a(appTimer.o)
 .data          0x00000000        0x0 ./../../../../BitCloud/lib/libHAL_deRFusb23e06_At91sam3s4c_64Mhz_Gcc.a(appTimer.o)
 .text          0x00000000        0x0 ./../../../../BitCloud/lib/libHAL_deRFusb23e06_At91sam3s4c_64Mhz_Gcc.a(halTaskManager.o)
 .data          0x00000000        0x0 ./../../../../BitCloud/lib/libHAL_deRFusb23e06_At91sam3s4c_64Mhz_Gcc.a(halTaskManager.o)
 .text          0x00000000        0x0 ./../../../../BitCloud/lib/libHAL_deRFusb23e06_At91sam3s4c_64Mhz_Gcc.a(sleep.o)
 .data          0x00000000        0x0 ./../../../../BitCloud/lib/libHAL_deRFusb23e06_At91sam3s4c_64Mhz_Gcc.a(sleep.o)
 .text          0x00000000        0x0 ./../../../../BitCloud/lib/libHAL_deRFusb23e06_At91sam3s4c_64Mhz_Gcc.a(timer.o)
 .data          0x00000000        0x0 ./../../../../BitCloud/lib/libHAL_deRFusb23e06_At91sam3s4c_64Mhz_Gcc.a(timer.o)
 .bss           0x00000000        0x0 ./../../../../BitCloud/lib/libHAL_deRFusb23e06_At91sam3s4c_64Mhz_Gcc.a(timer.o)
 .text          0x00000000        0x0 ./../../../../BitCloud/lib/libHAL_deRFusb23e06_At91sam3s4c_64Mhz_Gcc.a(usart.o)
 .data          0x00000000        0x0 ./../../../../BitCloud/lib/libHAL_deRFusb23e06_At91sam3s4c_64Mhz_Gcc.a(usart.o)
 .text.halIsUsartChannelCorrect
                0x00000000       0x1c ./../../../../BitCloud/lib/libHAL_deRFusb23e06_At91sam3s4c_64Mhz_Gcc.a(usart.o)
 .text.HAL_IsTxEmpty
                0x00000000       0x54 ./../../../../BitCloud/lib/libHAL_deRFusb23e06_At91sam3s4c_64Mhz_Gcc.a(usart.o)
 .text.HAL_ReadUsartDtr
                0x00000000       0x48 ./../../../../BitCloud/lib/libHAL_deRFusb23e06_At91sam3s4c_64Mhz_Gcc.a(usart.o)
 .text.HAL_ReadUsartRts
                0x00000000       0x48 ./../../../../BitCloud/lib/libHAL_deRFusb23e06_At91sam3s4c_64Mhz_Gcc.a(usart.o)
 .text.HAL_OffUsartCts
                0x00000000       0x4c ./../../../../BitCloud/lib/libHAL_deRFusb23e06_At91sam3s4c_64Mhz_Gcc.a(usart.o)
 .text.HAL_OnUsartCts
                0x00000000       0x4c ./../../../../BitCloud/lib/libHAL_deRFusb23e06_At91sam3s4c_64Mhz_Gcc.a(usart.o)
 .text.HAL_ReadUsart
                0x00000000       0xe8 ./../../../../BitCloud/lib/libHAL_deRFusb23e06_At91sam3s4c_64Mhz_Gcc.a(usart.o)
 .text.HAL_WriteUsart
                0x00000000       0xe0 ./../../../../BitCloud/lib/libHAL_deRFusb23e06_At91sam3s4c_64Mhz_Gcc.a(usart.o)
 .text.HAL_CloseUsart
                0x00000000       0x6c ./../../../../BitCloud/lib/libHAL_deRFusb23e06_At91sam3s4c_64Mhz_Gcc.a(usart.o)
 .text.HAL_OpenUsart
                0x00000000       0xd8 ./../../../../BitCloud/lib/libHAL_deRFusb23e06_At91sam3s4c_64Mhz_Gcc.a(usart.o)
 .text          0x00000000        0x0 ./../../../../BitCloud/lib/libHAL_deRFusb23e06_At91sam3s4c_64Mhz_Gcc.a(uart.o)
 .data          0x00000000        0x0 ./../../../../BitCloud/lib/libHAL_deRFusb23e06_At91sam3s4c_64Mhz_Gcc.a(uart.o)
 .bss           0x00000000        0x0 ./../../../../BitCloud/lib/libHAL_deRFusb23e06_At91sam3s4c_64Mhz_Gcc.a(uart.o)
 .text.HAL_OpenUart
                0x00000000       0x6e ./../../../../BitCloud/lib/libHAL_deRFusb23e06_At91sam3s4c_64Mhz_Gcc.a(uart.o)
 .text.HAL_CloseUart
                0x00000000       0x28 ./../../../../BitCloud/lib/libHAL_deRFusb23e06_At91sam3s4c_64Mhz_Gcc.a(uart.o)
 .text.HAL_WriteUart
                0x00000000       0xc0 ./../../../../BitCloud/lib/libHAL_deRFusb23e06_At91sam3s4c_64Mhz_Gcc.a(uart.o)
 .text.HAL_ReadUart
                0x00000000       0x9c ./../../../../BitCloud/lib/libHAL_deRFusb23e06_At91sam3s4c_64Mhz_Gcc.a(uart.o)
 .text.HAL_IsUartTxEmpty
                0x00000000       0x36 ./../../../../BitCloud/lib/libHAL_deRFusb23e06_At91sam3s4c_64Mhz_Gcc.a(uart.o)
 .text          0x00000000        0x0 ./../../../../BitCloud/lib/libHAL_deRFusb23e06_At91sam3s4c_64Mhz_Gcc.a(usb.o)
 .data          0x00000000        0x0 ./../../../../BitCloud/lib/libHAL_deRFusb23e06_At91sam3s4c_64Mhz_Gcc.a(usb.o)
 .text.HAL_RegisterEndOfBusResetHandler
                0x00000000        0xc ./../../../../BitCloud/lib/libHAL_deRFusb23e06_At91sam3s4c_64Mhz_Gcc.a(usb.o)
 .text.HAL_RegisterResumeHandler
                0x00000000        0xc ./../../../../BitCloud/lib/libHAL_deRFusb23e06_At91sam3s4c_64Mhz_Gcc.a(usb.o)
 .text.HAL_RegisterSuspendHandler
                0x00000000        0xc ./../../../../BitCloud/lib/libHAL_deRFusb23e06_At91sam3s4c_64Mhz_Gcc.a(usb.o)
 .text.HAL_RegisterRequestHandler
                0x00000000        0xc ./../../../../BitCloud/lib/libHAL_deRFusb23e06_At91sam3s4c_64Mhz_Gcc.a(usb.o)
 .text.HAL_UsbWrite
                0x00000000       0x50 ./../../../../BitCloud/lib/libHAL_deRFusb23e06_At91sam3s4c_64Mhz_Gcc.a(usb.o)
 .text.HAL_UsbRead
                0x00000000       0x54 ./../../../../BitCloud/lib/libHAL_deRFusb23e06_At91sam3s4c_64Mhz_Gcc.a(usb.o)
 .text.HAL_Halt
                0x00000000       0x30 ./../../../../BitCloud/lib/libHAL_deRFusb23e06_At91sam3s4c_64Mhz_Gcc.a(usb.o)
 .text.HAL_Unhalt
                0x00000000       0x1c ./../../../../BitCloud/lib/libHAL_deRFusb23e06_At91sam3s4c_64Mhz_Gcc.a(usb.o)
 .text.HAL_IsHalted
                0x00000000       0x18 ./../../../../BitCloud/lib/libHAL_deRFusb23e06_At91sam3s4c_64Mhz_Gcc.a(usb.o)
 .text.HAL_Stall
                0x00000000       0x20 ./../../../../BitCloud/lib/libHAL_deRFusb23e06_At91sam3s4c_64Mhz_Gcc.a(usb.o)
 .text.HAL_SetAddress
                0x00000000       0x20 ./../../../../BitCloud/lib/libHAL_deRFusb23e06_At91sam3s4c_64Mhz_Gcc.a(usb.o)
 .text.HAL_SetConfiguration
                0x00000000       0x20 ./../../../../BitCloud/lib/libHAL_deRFusb23e06_At91sam3s4c_64Mhz_Gcc.a(usb.o)
 .text.HAL_UsbInit
                0x00000000       0x50 ./../../../../BitCloud/lib/libHAL_deRFusb23e06_At91sam3s4c_64Mhz_Gcc.a(usb.o)
 .text.HAL_GetState
                0x00000000        0xc ./../../../../BitCloud/lib/libHAL_deRFusb23e06_At91sam3s4c_64Mhz_Gcc.a(usb.o)
 .text          0x00000000        0x0 ./../../../../BitCloud/lib/libHAL_deRFusb23e06_At91sam3s4c_64Mhz_Gcc.a(eeprom.o)
 .data          0x00000000        0x0 ./../../../../BitCloud/lib/libHAL_deRFusb23e06_At91sam3s4c_64Mhz_Gcc.a(eeprom.o)
 .text.HAL_ReadEeprom
                0x00000000       0x90 ./../../../../BitCloud/lib/libHAL_deRFusb23e06_At91sam3s4c_64Mhz_Gcc.a(eeprom.o)
 .text.HAL_WriteEeprom
                0x00000000       0xc8 ./../../../../BitCloud/lib/libHAL_deRFusb23e06_At91sam3s4c_64Mhz_Gcc.a(eeprom.o)
 .text.HAL_IsEepromBusy
                0x00000000       0x10 ./../../../../BitCloud/lib/libHAL_deRFusb23e06_At91sam3s4c_64Mhz_Gcc.a(eeprom.o)
 .text          0x00000000        0x0 ./../../../../BitCloud/lib/libHAL_deRFusb23e06_At91sam3s4c_64Mhz_Gcc.a(sleepTimer.o)
 .data          0x00000000        0x0 ./../../../../BitCloud/lib/libHAL_deRFusb23e06_At91sam3s4c_64Mhz_Gcc.a(sleepTimer.o)
 .bss           0x00000000        0x0 ./../../../../BitCloud/lib/libHAL_deRFusb23e06_At91sam3s4c_64Mhz_Gcc.a(sleepTimer.o)
 .text.HAL_StopSleepTimer
                0x00000000       0x20 ./../../../../BitCloud/lib/libHAL_deRFusb23e06_At91sam3s4c_64Mhz_Gcc.a(sleepTimer.o)
 .data          0x00000000        0x0 ./../../../../BitCloud/lib/libHAL_deRFusb23e06_At91sam3s4c_64Mhz_Gcc.a(halExceptionGcc.o)
 .bss           0x00000000        0x0 ./../../../../BitCloud/lib/libHAL_deRFusb23e06_At91sam3s4c_64Mhz_Gcc.a(halExceptionGcc.o)
 .text          0x00000000        0x0 ./../../../../BitCloud/lib/libHAL_deRFusb23e06_At91sam3s4c_64Mhz_Gcc.a(halLowLevelInit.o)
 .data          0x00000000        0x0 ./../../../../BitCloud/lib/libHAL_deRFusb23e06_At91sam3s4c_64Mhz_Gcc.a(halLowLevelInit.o)
 .bss           0x00000000        0x0 ./../../../../BitCloud/lib/libHAL_deRFusb23e06_At91sam3s4c_64Mhz_Gcc.a(halLowLevelInit.o)
 .text          0x00000000        0x0 ./../../../../BitCloud/lib/libHAL_deRFusb23e06_At91sam3s4c_64Mhz_Gcc.a(halExcHandler.o)
 .data          0x00000000        0x0 ./../../../../BitCloud/lib/libHAL_deRFusb23e06_At91sam3s4c_64Mhz_Gcc.a(halExcHandler.o)
 .bss           0x00000000        0x0 ./../../../../BitCloud/lib/libHAL_deRFusb23e06_At91sam3s4c_64Mhz_Gcc.a(halExcHandler.o)
 .text          0x00000000        0x0 ./../../../../BitCloud/lib/libHAL_deRFusb23e06_At91sam3s4c_64Mhz_Gcc.a(halFlash.o)
 .data          0x00000000        0x0 ./../../../../BitCloud/lib/libHAL_deRFusb23e06_At91sam3s4c_64Mhz_Gcc.a(halFlash.o)
 .bss           0x00000000        0x8 ./../../../../BitCloud/lib/libHAL_deRFusb23e06_At91sam3s4c_64Mhz_Gcc.a(halFlash.o)
 .text.halFlashPrepareForWrite
                0x00000000       0x18 ./../../../../BitCloud/lib/libHAL_deRFusb23e06_At91sam3s4c_64Mhz_Gcc.a(halFlash.o)
 .text.halFlashRestoreFromWrite
                0x00000000       0x14 ./../../../../BitCloud/lib/libHAL_deRFusb23e06_At91sam3s4c_64Mhz_Gcc.a(halFlash.o)
 .text.halFlashPreparePage
                0x00000000       0x90 ./../../../../BitCloud/lib/libHAL_deRFusb23e06_At91sam3s4c_64Mhz_Gcc.a(halFlash.o)
 .text.halFlashWritePage
                0x00000000       0x40 ./../../../../BitCloud/lib/libHAL_deRFusb23e06_At91sam3s4c_64Mhz_Gcc.a(halFlash.o)
 .text.halFlashUnlockPage
                0x00000000       0x34 ./../../../../BitCloud/lib/libHAL_deRFusb23e06_At91sam3s4c_64Mhz_Gcc.a(halFlash.o)
 .text          0x00000000        0x0 ./../../../../BitCloud/lib/libBc_All_At91sam3s4c_Rf231_Gcc.a(aps.o)
 .data          0x00000000        0x0 ./../../../../BitCloud/lib/libBc_All_At91sam3s4c_Rf231_Gcc.a(aps.o)
 .text.APS_DeactivateBindRecords
                0x00000000       0x3c ./../../../../BitCloud/lib/libBc_All_At91sam3s4c_Rf231_Gcc.a(aps.o)
 .text.APS_ActivateBindRecords
                0x00000000       0x3c ./../../../../BitCloud/lib/libBc_All_At91sam3s4c_Rf231_Gcc.a(aps.o)
 .text.APS_NextBindingEntry
                0x00000000       0x40 ./../../../../BitCloud/lib/libBc_All_At91sam3s4c_Rf231_Gcc.a(aps.o)
 .text.APS_UnregisterEndpointReq
                0x00000000       0x28 ./../../../../BitCloud/lib/libBc_All_At91sam3s4c_Rf231_Gcc.a(aps.o)
 .text.apsSetNoIndicationFlag
                0x00000000       0x28 ./../../../../BitCloud/lib/libBc_All_At91sam3s4c_Rf231_Gcc.a(aps.o)
 .text.APS_StopEndpointIndication
                0x00000000        0x6 ./../../../../BitCloud/lib/libBc_All_At91sam3s4c_Rf231_Gcc.a(aps.o)
 .text.APS_ResumeEndpointIndication
                0x00000000        0x6 ./../../../../BitCloud/lib/libBc_All_At91sam3s4c_Rf231_Gcc.a(aps.o)
 .text.APS_AddGroupReq
                0x00000000       0x18 ./../../../../BitCloud/lib/libBc_All_At91sam3s4c_Rf231_Gcc.a(aps.o)
 .text.APS_RemoveGroupReq
                0x00000000       0x18 ./../../../../BitCloud/lib/libBc_All_At91sam3s4c_Rf231_Gcc.a(aps.o)
 .text.APS_RemoveAllGroupsReq
                0x00000000       0x16 ./../../../../BitCloud/lib/libBc_All_At91sam3s4c_Rf231_Gcc.a(aps.o)
 .text.APS_IsStarted
                0x00000000       0x18 ./../../../../BitCloud/lib/libBc_All_At91sam3s4c_Rf231_Gcc.a(aps.o)
 .text          0x00000000        0x0 ./../../../../BitCloud/lib/libBc_All_At91sam3s4c_Rf231_Gcc.a(macenvPib.o)
 .data          0x00000000        0x0 ./../../../../BitCloud/lib/libBc_All_At91sam3s4c_Rf231_Gcc.a(macenvPib.o)
 .bss           0x00000000        0x0 ./../../../../BitCloud/lib/libBc_All_At91sam3s4c_Rf231_Gcc.a(macenvPib.o)
 .text          0x00000000        0x0 ./../../../../BitCloud/lib/libBc_All_At91sam3s4c_Rf231_Gcc.a(nwk.o)
 .data          0x00000000        0x0 ./../../../../BitCloud/lib/libBc_All_At91sam3s4c_Rf231_Gcc.a(nwk.o)
 .bss           0x00000000       0x30 ./../../../../BitCloud/lib/libBc_All_At91sam3s4c_Rf231_Gcc.a(nwk.o)
 .text.nwkAddressMacSetConf
                0x00000000       0x40 ./../../../../BitCloud/lib/libBc_All_At91sam3s4c_Rf231_Gcc.a(nwk.o)
 .text.NWK_SetShortAddr
                0x00000000       0x34 ./../../../../BitCloud/lib/libBc_All_At91sam3s4c_Rf231_Gcc.a(nwk.o)
 .text.NWK_AddGroup
                0x00000000       0x30 ./../../../../BitCloud/lib/libBc_All_At91sam3s4c_Rf231_Gcc.a(nwk.o)
 .text.NWK_RemoveGroup
                0x00000000       0x44 ./../../../../BitCloud/lib/libBc_All_At91sam3s4c_Rf231_Gcc.a(nwk.o)
 .text.NWK_RemoveAllGroups
                0x00000000       0x34 ./../../../../BitCloud/lib/libBc_All_At91sam3s4c_Rf231_Gcc.a(nwk.o)
 .text.NWK_GroupCapacity
                0x00000000       0x20 ./../../../../BitCloud/lib/libBc_All_At91sam3s4c_Rf231_Gcc.a(nwk.o)
 .text.NWK_NextGroup
                0x00000000       0x24 ./../../../../BitCloud/lib/libBc_All_At91sam3s4c_Rf231_Gcc.a(nwk.o)
 .text.NWK_SetExtPanId
                0x00000000       0x10 ./../../../../BitCloud/lib/libBc_All_At91sam3s4c_Rf231_Gcc.a(nwk.o)
 .text.NWK_GetUpdateId
                0x00000000        0xc ./../../../../BitCloud/lib/libBc_All_At91sam3s4c_Rf231_Gcc.a(nwk.o)
 .text.NWK_SetSymLink
                0x00000000        0xc ./../../../../BitCloud/lib/libBc_All_At91sam3s4c_Rf231_Gcc.a(nwk.o)
 .text.NWK_GetProtocolVersion
                0x00000000        0xc ./../../../../BitCloud/lib/libBc_All_At91sam3s4c_Rf231_Gcc.a(nwk.o)
 .text.NWK_FindAnyRouteAtFirstTime
                0x00000000        0xc ./../../../../BitCloud/lib/libBc_All_At91sam3s4c_Rf231_Gcc.a(nwk.o)
 .text.NWK_NextEDChild
                0x00000000       0x48 ./../../../../BitCloud/lib/libBc_All_At91sam3s4c_Rf231_Gcc.a(nwk.o)
 .text.NWK_SetRejoinPermit
                0x00000000        0xc ./../../../../BitCloud/lib/libBc_All_At91sam3s4c_Rf231_Gcc.a(nwk.o)
 .text.NWK_GetNextHop
                0x00000000       0x2c ./../../../../BitCloud/lib/libBc_All_At91sam3s4c_Rf231_Gcc.a(nwk.o)
 .text.NWK_SetFailRouteOrder
                0x00000000       0x18 ./../../../../BitCloud/lib/libBc_All_At91sam3s4c_Rf231_Gcc.a(nwk.o)
 .text          0x00000000        0x0 ./../../../../BitCloud/lib/libBc_All_At91sam3s4c_Rf231_Gcc.a(phyRfIrqDispatcher.o)
 .data          0x00000000        0x0 ./../../../../BitCloud/lib/libBc_All_At91sam3s4c_Rf231_Gcc.a(phyRfIrqDispatcher.o)
 .bss           0x00000000        0x0 ./../../../../BitCloud/lib/libBc_All_At91sam3s4c_Rf231_Gcc.a(phyRfIrqDispatcher.o)
 .text          0x00000000        0x0 ./../../../../BitCloud/lib/libBc_All_At91sam3s4c_Rf231_Gcc.a(phyRtimerIrqDispatcher.o)
 .data          0x00000000        0x0 ./../../../../BitCloud/lib/libBc_All_At91sam3s4c_Rf231_Gcc.a(phyRtimerIrqDispatcher.o)
 .bss           0x00000000        0x0 ./../../../../BitCloud/lib/libBc_All_At91sam3s4c_Rf231_Gcc.a(phyRtimerIrqDispatcher.o)
 .text          0x00000000        0x0 ./../../../../BitCloud/lib/libBc_All_At91sam3s4c_Rf231_Gcc.a(phyRxTxIndicator.o)
 .data          0x00000000        0x0 ./../../../../BitCloud/lib/libBc_All_At91sam3s4c_Rf231_Gcc.a(phyRxTxIndicator.o)
 .bss           0x00000000        0x0 ./../../../../BitCloud/lib/libBc_All_At91sam3s4c_Rf231_Gcc.a(phyRxTxIndicator.o)
 .text          0x00000000        0x0 ./../../../../BitCloud/lib/libBc_All_At91sam3s4c_Rf231_Gcc.a(queue.o)
 .data          0x00000000        0x0 ./../../../../BitCloud/lib/libBc_All_At91sam3s4c_Rf231_Gcc.a(queue.o)
 .bss           0x00000000        0x0 ./../../../../BitCloud/lib/libBc_All_At91sam3s4c_Rf231_Gcc.a(queue.o)
 .text          0x00000000        0x0 ./../../../../BitCloud/lib/libBc_All_At91sam3s4c_Rf231_Gcc.a(sysDuplicateTable.o)
 .data          0x00000000        0x0 ./../../../../BitCloud/lib/libBc_All_At91sam3s4c_Rf231_Gcc.a(sysDuplicateTable.o)
 .bss           0x00000000        0x0 ./../../../../BitCloud/lib/libBc_All_At91sam3s4c_Rf231_Gcc.a(sysDuplicateTable.o)
 .text          0x00000000        0x0 ./../../../../BitCloud/lib/libBc_All_At91sam3s4c_Rf231_Gcc.a(sysEvents.o)
 .data          0x00000000        0x0 ./../../../../BitCloud/lib/libBc_All_At91sam3s4c_Rf231_Gcc.a(sysEvents.o)
 .text.SYS_UnsubscribeFromEvent
                0x00000000       0x4c ./../../../../BitCloud/lib/libBc_All_At91sam3s4c_Rf231_Gcc.a(sysEvents.o)
 .text          0x00000000        0x0 ./../../../../BitCloud/lib/libBc_All_At91sam3s4c_Rf231_Gcc.a(sysTimer.o)
 .data          0x00000000        0x0 ./../../../../BitCloud/lib/libBc_All_At91sam3s4c_Rf231_Gcc.a(sysTimer.o)
 .bss           0x00000000        0x0 ./../../../../BitCloud/lib/libBc_All_At91sam3s4c_Rf231_Gcc.a(sysTimer.o)
 .text          0x00000000        0x0 ./../../../../BitCloud/lib/libBc_All_At91sam3s4c_Rf231_Gcc.a(taskManager.o)
 .data          0x00000000        0x0 ./../../../../BitCloud/lib/libBc_All_At91sam3s4c_Rf231_Gcc.a(taskManager.o)
 .text.SYS_ForceRunTask
                0x00000000        0x4 ./../../../../BitCloud/lib/libBc_All_At91sam3s4c_Rf231_Gcc.a(taskManager.o)
 .text          0x00000000        0x0 ./../../../../BitCloud/lib/libBc_All_At91sam3s4c_Rf231_Gcc.a(zdo.o)
 .bss           0x00000000        0x0 ./../../../../BitCloud/lib/libBc_All_At91sam3s4c_Rf231_Gcc.a(zdo.o)
 .text.setTxPowerConf
                0x00000000       0x2c ./../../../../BitCloud/lib/libBc_All_At91sam3s4c_Rf231_Gcc.a(zdo.o)
 .text.ZDO_GetNwkStatus
                0x00000000       0x18 ./../../../../BitCloud/lib/libBc_All_At91sam3s4c_Rf231_Gcc.a(zdo.o)
 .text.ZDO_NotifyGeneral
                0x00000000        0x4 ./../../../../BitCloud/lib/libBc_All_At91sam3s4c_Rf231_Gcc.a(zdo.o)
 .text.ZDO_GetParentAddr
                0x00000000       0x4a ./../../../../BitCloud/lib/libBc_All_At91sam3s4c_Rf231_Gcc.a(zdo.o)
 .text.ZDO_GetChildrenAddr
                0x00000000       0xd2 ./../../../../BitCloud/lib/libBc_All_At91sam3s4c_Rf231_Gcc.a(zdo.o)
 .text.ZDO_SetTxPowerReq
                0x00000000       0x44 ./../../../../BitCloud/lib/libBc_All_At91sam3s4c_Rf231_Gcc.a(zdo.o)
 .text.ZDO_GetNeibAmount
                0x00000000       0x52 ./../../../../BitCloud/lib/libBc_All_At91sam3s4c_Rf231_Gcc.a(zdo.o)
 .text.ZDO_GetNeibTable
                0x00000000       0xb6 ./../../../../BitCloud/lib/libBc_All_At91sam3s4c_Rf231_Gcc.a(zdo.o)
 .text.ZDO_WakeUpReq
                0x00000000       0x18 ./../../../../BitCloud/lib/libBc_All_At91sam3s4c_Rf231_Gcc.a(zdo.o)
 .text.zdoResetNetworkConf
                0x00000000       0x24 ./../../../../BitCloud/lib/libBc_All_At91sam3s4c_Rf231_Gcc.a(zdo.o)
 .text.ZDO_SoftwareResetReq
                0x00000000       0x10 ./../../../../BitCloud/lib/libBc_All_At91sam3s4c_Rf231_Gcc.a(zdo.o)
 .text.ZDO_ResetNetworkReq
                0x00000000       0x34 ./../../../../BitCloud/lib/libBc_All_At91sam3s4c_Rf231_Gcc.a(zdo.o)
 .text          0x00000000        0x0 ./../../../../BitCloud/lib/libBc_All_At91sam3s4c_Rf231_Gcc.a(bcSysSleep.o)
 .data          0x00000000        0x0 ./../../../../BitCloud/lib/libBc_All_At91sam3s4c_Rf231_Gcc.a(bcSysSleep.o)
 .bss           0x00000000        0x0 ./../../../../BitCloud/lib/libBc_All_At91sam3s4c_Rf231_Gcc.a(bcSysSleep.o)
 .text          0x00000000        0x0 ./../../../../BitCloud/lib/libBc_All_At91sam3s4c_Rf231_Gcc.a(macMem.o)
 .data          0x00000000        0x0 ./../../../../BitCloud/lib/libBc_All_At91sam3s4c_Rf231_Gcc.a(macMem.o)
 .bss           0x00000000        0x0 ./../../../../BitCloud/lib/libBc_All_At91sam3s4c_Rf231_Gcc.a(macMem.o)
 .text          0x00000000        0x0 ./../../../../BitCloud/lib/libBc_All_At91sam3s4c_Rf231_Gcc.a(machwdManager.o)
 .data          0x00000000        0x0 ./../../../../BitCloud/lib/libBc_All_At91sam3s4c_Rf231_Gcc.a(machwdManager.o)
 .text.RF_RandomSeqReq
                0x00000000        0x8 ./../../../../BitCloud/lib/libBc_All_At91sam3s4c_Rf231_Gcc.a(machwdManager.o)
 .text.RF_CalibrationReq
                0x00000000        0x8 ./../../../../BitCloud/lib/libBc_All_At91sam3s4c_Rf231_Gcc.a(machwdManager.o)
 .text.RF_RegWriteReq
                0x00000000        0x8 ./../../../../BitCloud/lib/libBc_All_At91sam3s4c_Rf231_Gcc.a(machwdManager.o)
 .text.RF_RegReadReq
                0x00000000        0x8 ./../../../../BitCloud/lib/libBc_All_At91sam3s4c_Rf231_Gcc.a(machwdManager.o)
 .text          0x00000000        0x0 ./../../../../BitCloud/lib/libBc_All_At91sam3s4c_Rf231_Gcc.a(machwdRegAccessHandler.o)
 .data          0x00000000        0x0 ./../../../../BitCloud/lib/libBc_All_At91sam3s4c_Rf231_Gcc.a(machwdRegAccessHandler.o)
 .bss           0x00000000        0x0 ./../../../../BitCloud/lib/libBc_All_At91sam3s4c_Rf231_Gcc.a(machwdRegAccessHandler.o)
 .text          0x00000000        0x0 ./../../../../BitCloud/lib/libBc_All_At91sam3s4c_Rf231_Gcc.a(machwdResetHandler.o)
 .data          0x00000000        0x0 ./../../../../BitCloud/lib/libBc_All_At91sam3s4c_Rf231_Gcc.a(machwdResetHandler.o)
 .bss           0x00000000        0x0 ./../../../../BitCloud/lib/libBc_All_At91sam3s4c_Rf231_Gcc.a(machwdResetHandler.o)
 .text          0x00000000        0x0 ./../../../../BitCloud/lib/libBc_All_At91sam3s4c_Rf231_Gcc.a(machwdRndHandler.o)
 .data          0x00000000        0x0 ./../../../../BitCloud/lib/libBc_All_At91sam3s4c_Rf231_Gcc.a(machwdRndHandler.o)
 .bss           0x00000000        0x0 ./../../../../BitCloud/lib/libBc_All_At91sam3s4c_Rf231_Gcc.a(machwdRndHandler.o)
 .text          0x00000000        0x0 ./../../../../BitCloud/lib/libBc_All_At91sam3s4c_Rf231_Gcc.a(machwdRxBuffer.o)
 .data          0x00000000        0x0 ./../../../../BitCloud/lib/libBc_All_At91sam3s4c_Rf231_Gcc.a(machwdRxBuffer.o)
 .bss           0x00000000        0x0 ./../../../../BitCloud/lib/libBc_All_At91sam3s4c_Rf231_Gcc.a(machwdRxBuffer.o)
 .text          0x00000000        0x0 ./../../../../BitCloud/lib/libBc_All_At91sam3s4c_Rf231_Gcc.a(machwdRxFrameHandler.o)
 .data          0x00000000        0x0 ./../../../../BitCloud/lib/libBc_All_At91sam3s4c_Rf231_Gcc.a(machwdRxFrameHandler.o)
 .bss           0x00000000        0x0 ./../../../../BitCloud/lib/libBc_All_At91sam3s4c_Rf231_Gcc.a(machwdRxFrameHandler.o)
 .text          0x00000000        0x0 ./../../../../BitCloud/lib/libBc_All_At91sam3s4c_Rf231_Gcc.a(machwdSetHandler.o)
 .data          0x00000000        0x0 ./../../../../BitCloud/lib/libBc_All_At91sam3s4c_Rf231_Gcc.a(machwdSetHandler.o)
 .text.machwdIsBeaconRxMode
                0x00000000        0xc ./../../../../BitCloud/lib/libBc_All_At91sam3s4c_Rf231_Gcc.a(machwdSetHandler.o)
 .text          0x00000000        0x0 ./../../../../BitCloud/lib/libBc_All_At91sam3s4c_Rf231_Gcc.a(machwdTrxCtrl.o)
 .data          0x00000000        0x0 ./../../../../BitCloud/lib/libBc_All_At91sam3s4c_Rf231_Gcc.a(machwdTrxCtrl.o)
 .bss           0x00000000        0x0 ./../../../../BitCloud/lib/libBc_All_At91sam3s4c_Rf231_Gcc.a(machwdTrxCtrl.o)
 .text          0x00000000        0x0 ./../../../../BitCloud/lib/libBc_All_At91sam3s4c_Rf231_Gcc.a(machwdTrxHandler.o)
 .data          0x00000000        0x0 ./../../../../BitCloud/lib/libBc_All_At91sam3s4c_Rf231_Gcc.a(machwdTrxHandler.o)
 .bss           0x00000000        0x0 ./../../../../BitCloud/lib/libBc_All_At91sam3s4c_Rf231_Gcc.a(machwdTrxHandler.o)
 .text          0x00000000        0x0 ./../../../../BitCloud/lib/libBc_All_At91sam3s4c_Rf231_Gcc.a(machwdTxFrameHandler.o)
 .data          0x00000000        0x0 ./../../../../BitCloud/lib/libBc_All_At91sam3s4c_Rf231_Gcc.a(machwdTxFrameHandler.o)
 .bss           0x00000000        0x0 ./../../../../BitCloud/lib/libBc_All_At91sam3s4c_Rf231_Gcc.a(machwdTxFrameHandler.o)
 .text          0x00000000        0x0 ./../../../../BitCloud/lib/libBc_All_At91sam3s4c_Rf231_Gcc.a(machwiManager.o)
 .data          0x00000000        0x0 ./../../../../BitCloud/lib/libBc_All_At91sam3s4c_Rf231_Gcc.a(machwiManager.o)
 .bss           0x00000000        0x0 ./../../../../BitCloud/lib/libBc_All_At91sam3s4c_Rf231_Gcc.a(machwiManager.o)
 .text.MAC_OrphanResp
                0x00000000        0x8 ./../../../../BitCloud/lib/libBc_All_At91sam3s4c_Rf231_Gcc.a(machwiManager.o)
 .text.MAC_PurgeReq
                0x00000000        0x8 ./../../../../BitCloud/lib/libBc_All_At91sam3s4c_Rf231_Gcc.a(machwiManager.o)
 .text          0x00000000        0x0 ./../../../../BitCloud/lib/libBc_All_At91sam3s4c_Rf231_Gcc.a(machwiOrphanHandler.o)
 .data          0x00000000        0x0 ./../../../../BitCloud/lib/libBc_All_At91sam3s4c_Rf231_Gcc.a(machwiOrphanHandler.o)
 .bss           0x00000000        0x0 ./../../../../BitCloud/lib/libBc_All_At91sam3s4c_Rf231_Gcc.a(machwiOrphanHandler.o)
 .text          0x00000000        0x0 ./../../../../BitCloud/lib/libBc_All_At91sam3s4c_Rf231_Gcc.a(machwiPanServer.o)
 .data          0x00000000        0x0 ./../../../../BitCloud/lib/libBc_All_At91sam3s4c_Rf231_Gcc.a(machwiPanServer.o)
 .bss           0x00000000        0x0 ./../../../../BitCloud/lib/libBc_All_At91sam3s4c_Rf231_Gcc.a(machwiPanServer.o)
 .text          0x00000000        0x0 ./../../../../BitCloud/lib/libBc_All_At91sam3s4c_Rf231_Gcc.a(machwiPollHandler.o)
 .data          0x00000000        0x0 ./../../../../BitCloud/lib/libBc_All_At91sam3s4c_Rf231_Gcc.a(machwiPollHandler.o)
 .bss           0x00000000        0x0 ./../../../../BitCloud/lib/libBc_All_At91sam3s4c_Rf231_Gcc.a(machwiPollHandler.o)
 .text          0x00000000        0x0 ./../../../../BitCloud/lib/libBc_All_At91sam3s4c_Rf231_Gcc.a(machwiPurgeHandler.o)
 .data          0x00000000        0x0 ./../../../../BitCloud/lib/libBc_All_At91sam3s4c_Rf231_Gcc.a(machwiPurgeHandler.o)
 .bss           0x00000000        0x0 ./../../../../BitCloud/lib/libBc_All_At91sam3s4c_Rf231_Gcc.a(machwiPurgeHandler.o)
 .text          0x00000000        0x0 ./../../../../BitCloud/lib/libBc_All_At91sam3s4c_Rf231_Gcc.a(machwiResetHandler.o)
 .data          0x00000000        0x0 ./../../../../BitCloud/lib/libBc_All_At91sam3s4c_Rf231_Gcc.a(machwiResetHandler.o)
 .bss           0x00000000        0x0 ./../../../../BitCloud/lib/libBc_All_At91sam3s4c_Rf231_Gcc.a(machwiResetHandler.o)
 .text          0x00000000        0x0 ./../../../../BitCloud/lib/libBc_All_At91sam3s4c_Rf231_Gcc.a(machwiRxEnableHandler.o)
 .data          0x00000000        0x0 ./../../../../BitCloud/lib/libBc_All_At91sam3s4c_Rf231_Gcc.a(machwiRxEnableHandler.o)
 .bss           0x00000000        0x0 ./../../../../BitCloud/lib/libBc_All_At91sam3s4c_Rf231_Gcc.a(machwiRxEnableHandler.o)
 .text          0x00000000        0x0 ./../../../../BitCloud/lib/libBc_All_At91sam3s4c_Rf231_Gcc.a(machwiScanHandler.o)
 .data          0x00000000        0x0 ./../../../../BitCloud/lib/libBc_All_At91sam3s4c_Rf231_Gcc.a(machwiScanHandler.o)
 .text          0x00000000        0x0 ./../../../../BitCloud/lib/libBc_All_At91sam3s4c_Rf231_Gcc.a(machwiSetGetHandler.o)
 .data          0x00000000        0x0 ./../../../../BitCloud/lib/libBc_All_At91sam3s4c_Rf231_Gcc.a(machwiSetGetHandler.o)
 .bss           0x00000000        0x0 ./../../../../BitCloud/lib/libBc_All_At91sam3s4c_Rf231_Gcc.a(machwiSetGetHandler.o)
 .text          0x00000000        0x0 ./../../../../BitCloud/lib/libBc_All_At91sam3s4c_Rf231_Gcc.a(machwiStartHandler.o)
 .data          0x00000000        0x0 ./../../../../BitCloud/lib/libBc_All_At91sam3s4c_Rf231_Gcc.a(machwiStartHandler.o)
 .bss           0x00000000        0x0 ./../../../../BitCloud/lib/libBc_All_At91sam3s4c_Rf231_Gcc.a(machwiStartHandler.o)
 .text          0x00000000        0x0 ./../../../../BitCloud/lib/libBc_All_At91sam3s4c_Rf231_Gcc.a(machwiSwitchRxCtrl.o)
 .data          0x00000000        0x0 ./../../../../BitCloud/lib/libBc_All_At91sam3s4c_Rf231_Gcc.a(machwiSwitchRxCtrl.o)
 .bss           0x00000000        0x0 ./../../../../BitCloud/lib/libBc_All_At91sam3s4c_Rf231_Gcc.a(machwiSwitchRxCtrl.o)
 .text          0x00000000        0x0 ./../../../../BitCloud/lib/libBc_All_At91sam3s4c_Rf231_Gcc.a(machwiTransactionHandler.o)
 .data          0x00000000        0x0 ./../../../../BitCloud/lib/libBc_All_At91sam3s4c_Rf231_Gcc.a(machwiTransactionHandler.o)
 .bss           0x00000000        0x0 ./../../../../BitCloud/lib/libBc_All_At91sam3s4c_Rf231_Gcc.a(machwiTransactionHandler.o)
 .text          0x00000000        0x0 ./../../../../BitCloud/lib/libBc_All_At91sam3s4c_Rf231_Gcc.a(machwiTransactionQueue.o)
 .data          0x00000000        0x0 ./../../../../BitCloud/lib/libBc_All_At91sam3s4c_Rf231_Gcc.a(machwiTransactionQueue.o)
 .bss           0x00000000        0x0 ./../../../../BitCloud/lib/libBc_All_At91sam3s4c_Rf231_Gcc.a(machwiTransactionQueue.o)
 .text          0x00000000        0x0 ./../../../../BitCloud/lib/libBc_All_At91sam3s4c_Rf231_Gcc.a(phyInit.o)
 .data          0x00000000        0x0 ./../../../../BitCloud/lib/libBc_All_At91sam3s4c_Rf231_Gcc.a(phyInit.o)
 .bss           0x00000000        0x0 ./../../../../BitCloud/lib/libBc_All_At91sam3s4c_Rf231_Gcc.a(phyInit.o)
 .text          0x00000000        0x0 ./../../../../BitCloud/lib/libBc_All_At91sam3s4c_Rf231_Gcc.a(phyRegAccess.o)
 .data          0x00000000        0x0 ./../../../../BitCloud/lib/libBc_All_At91sam3s4c_Rf231_Gcc.a(phyRegAccess.o)
 .bss           0x00000000        0x0 ./../../../../BitCloud/lib/libBc_All_At91sam3s4c_Rf231_Gcc.a(phyRegAccess.o)
 .text          0x00000000        0x0 ./../../../../BitCloud/lib/libBc_All_At91sam3s4c_Rf231_Gcc.a(phyReset.o)
 .data          0x00000000        0x0 ./../../../../BitCloud/lib/libBc_All_At91sam3s4c_Rf231_Gcc.a(phyReset.o)
 .bss           0x00000000        0x0 ./../../../../BitCloud/lib/libBc_All_At91sam3s4c_Rf231_Gcc.a(phyReset.o)
 .text          0x00000000        0x0 ./../../../../BitCloud/lib/libBc_All_At91sam3s4c_Rf231_Gcc.a(phyRfSpiProto.o)
 .data          0x00000000        0x0 ./../../../../BitCloud/lib/libBc_All_At91sam3s4c_Rf231_Gcc.a(phyRfSpiProto.o)
 .bss           0x00000000        0x0 ./../../../../BitCloud/lib/libBc_All_At91sam3s4c_Rf231_Gcc.a(phyRfSpiProto.o)
 .text.phyStartReadFrame
                0x00000000       0x10 ./../../../../BitCloud/lib/libBc_All_At91sam3s4c_Rf231_Gcc.a(phyRfSpiProto.o)
 .text          0x00000000        0x0 ./../../../../BitCloud/lib/libBc_All_At91sam3s4c_Rf231_Gcc.a(phyRnd.o)
 .data          0x00000000        0x0 ./../../../../BitCloud/lib/libBc_All_At91sam3s4c_Rf231_Gcc.a(phyRnd.o)
 .bss           0x00000000        0x0 ./../../../../BitCloud/lib/libBc_All_At91sam3s4c_Rf231_Gcc.a(phyRnd.o)
 .text          0x00000000        0x0 ./../../../../BitCloud/lib/libBc_All_At91sam3s4c_Rf231_Gcc.a(phyRxFrame.o)
 .data          0x00000000        0x0 ./../../../../BitCloud/lib/libBc_All_At91sam3s4c_Rf231_Gcc.a(phyRxFrame.o)
 .bss           0x00000000        0x0 ./../../../../BitCloud/lib/libBc_All_At91sam3s4c_Rf231_Gcc.a(phyRxFrame.o)
 .text          0x00000000        0x0 ./../../../../BitCloud/lib/libBc_All_At91sam3s4c_Rf231_Gcc.a(phySet.o)
 .data          0x00000000        0x0 ./../../../../BitCloud/lib/libBc_All_At91sam3s4c_Rf231_Gcc.a(phySet.o)
 .bss           0x00000000        0x0 ./../../../../BitCloud/lib/libBc_All_At91sam3s4c_Rf231_Gcc.a(phySet.o)
 .text          0x00000000        0x0 ./../../../../BitCloud/lib/libBc_All_At91sam3s4c_Rf231_Gcc.a(phySetTrxState.o)
 .data          0x00000000        0x0 ./../../../../BitCloud/lib/libBc_All_At91sam3s4c_Rf231_Gcc.a(phySetTrxState.o)
 .bss           0x00000000        0x0 ./../../../../BitCloud/lib/libBc_All_At91sam3s4c_Rf231_Gcc.a(phySetTrxState.o)
 .text          0x00000000        0x0 ./../../../../BitCloud/lib/libBc_All_At91sam3s4c_Rf231_Gcc.a(phyStateMachine.o)
 .data          0x00000000        0x0 ./../../../../BitCloud/lib/libBc_All_At91sam3s4c_Rf231_Gcc.a(phyStateMachine.o)
 .bss           0x00000000        0x0 ./../../../../BitCloud/lib/libBc_All_At91sam3s4c_Rf231_Gcc.a(phyStateMachine.o)
 .text          0x00000000        0x0 ./../../../../BitCloud/lib/libBc_All_At91sam3s4c_Rf231_Gcc.a(phyTxFrame.o)
 .data          0x00000000        0x0 ./../../../../BitCloud/lib/libBc_All_At91sam3s4c_Rf231_Gcc.a(phyTxFrame.o)
 .bss           0x00000000        0x0 ./../../../../BitCloud/lib/libBc_All_At91sam3s4c_Rf231_Gcc.a(phyTxFrame.o)
 .text          0x00000000        0x0 ./../../../../BitCloud/lib/libBc_All_At91sam3s4c_Rf231_Gcc.a(machwdCalibHandler.o)
 .data          0x00000000        0x0 ./../../../../BitCloud/lib/libBc_All_At91sam3s4c_Rf231_Gcc.a(machwdCalibHandler.o)
 .bss           0x00000000        0x0 ./../../../../BitCloud/lib/libBc_All_At91sam3s4c_Rf231_Gcc.a(machwdCalibHandler.o)
 .text          0x00000000        0x0 ./../../../../BitCloud/lib/libBc_All_At91sam3s4c_Rf231_Gcc.a(machwdEdHandler.o)
 .data          0x00000000        0x0 ./../../../../BitCloud/lib/libBc_All_At91sam3s4c_Rf231_Gcc.a(machwdEdHandler.o)
 .bss           0x00000000        0x0 ./../../../../BitCloud/lib/libBc_All_At91sam3s4c_Rf231_Gcc.a(machwdEdHandler.o)
 .text          0x00000000        0x0 ./../../../../BitCloud/lib/libBc_All_At91sam3s4c_Rf231_Gcc.a(machwdFrameRoutine.o)
 .data          0x00000000        0x0 ./../../../../BitCloud/lib/libBc_All_At91sam3s4c_Rf231_Gcc.a(machwdFrameRoutine.o)
 .bss           0x00000000        0x0 ./../../../../BitCloud/lib/libBc_All_At91sam3s4c_Rf231_Gcc.a(machwdFrameRoutine.o)
 .text          0x00000000        0x0 ./../../../../BitCloud/lib/libBc_All_At91sam3s4c_Rf231_Gcc.a(machwdHandlerCtrl.o)
 .data          0x00000000        0x0 ./../../../../BitCloud/lib/libBc_All_At91sam3s4c_Rf231_Gcc.a(machwdHandlerCtrl.o)
 .bss           0x00000000        0x0 ./../../../../BitCloud/lib/libBc_All_At91sam3s4c_Rf231_Gcc.a(machwdHandlerCtrl.o)
 .text          0x00000000        0x0 ./../../../../BitCloud/lib/libBc_All_At91sam3s4c_Rf231_Gcc.a(machwiAssociateHandler.o)
 .data          0x00000000        0x0 ./../../../../BitCloud/lib/libBc_All_At91sam3s4c_Rf231_Gcc.a(machwiAssociateHandler.o)
 .bss           0x00000000        0x0 ./../../../../BitCloud/lib/libBc_All_At91sam3s4c_Rf231_Gcc.a(machwiAssociateHandler.o)
 .text          0x00000000        0x0 ./../../../../BitCloud/lib/libBc_All_At91sam3s4c_Rf231_Gcc.a(machwiBeaconHandler.o)
 .data          0x00000000        0x0 ./../../../../BitCloud/lib/libBc_All_At91sam3s4c_Rf231_Gcc.a(machwiBeaconHandler.o)
 .bss           0x00000000        0x0 ./../../../../BitCloud/lib/libBc_All_At91sam3s4c_Rf231_Gcc.a(machwiBeaconHandler.o)
 .text          0x00000000        0x0 ./../../../../BitCloud/lib/libBc_All_At91sam3s4c_Rf231_Gcc.a(machwiDataHandler.o)
 .data          0x00000000        0x0 ./../../../../BitCloud/lib/libBc_All_At91sam3s4c_Rf231_Gcc.a(machwiDataHandler.o)
 .bss           0x00000000        0x0 ./../../../../BitCloud/lib/libBc_All_At91sam3s4c_Rf231_Gcc.a(machwiDataHandler.o)
 .text          0x00000000        0x0 ./../../../../BitCloud/lib/libBc_All_At91sam3s4c_Rf231_Gcc.a(phyCalib.o)
 .data          0x00000000        0x0 ./../../../../BitCloud/lib/libBc_All_At91sam3s4c_Rf231_Gcc.a(phyCalib.o)
 .bss           0x00000000        0x0 ./../../../../BitCloud/lib/libBc_All_At91sam3s4c_Rf231_Gcc.a(phyCalib.o)
 .text          0x00000000        0x0 ./../../../../BitCloud/lib/libBc_All_At91sam3s4c_Rf231_Gcc.a(phyEd.o)
 .data          0x00000000        0x0 ./../../../../BitCloud/lib/libBc_All_At91sam3s4c_Rf231_Gcc.a(phyEd.o)
 .bss           0x00000000        0x0 ./../../../../BitCloud/lib/libBc_All_At91sam3s4c_Rf231_Gcc.a(phyEd.o)
 .text          0x00000000        0x0 ./../../../../BitCloud/lib/libHAL_deRFusb23e06_At91sam3s4c_64Mhz_Gcc.a(halInit.o)
 .data          0x00000000        0x0 ./../../../../BitCloud/lib/libHAL_deRFusb23e06_At91sam3s4c_64Mhz_Gcc.a(halInit.o)
 .bss           0x00000000        0x0 ./../../../../BitCloud/lib/libHAL_deRFusb23e06_At91sam3s4c_64Mhz_Gcc.a(halInit.o)
 .text          0x00000000        0x0 ./../../../../BitCloud/lib/libHAL_deRFusb23e06_At91sam3s4c_64Mhz_Gcc.a(uid.o)
 .data          0x00000000        0x0 ./../../../../BitCloud/lib/libHAL_deRFusb23e06_At91sam3s4c_64Mhz_Gcc.a(uid.o)
 .bss           0x00000000        0x0 ./../../../../BitCloud/lib/libHAL_deRFusb23e06_At91sam3s4c_64Mhz_Gcc.a(uid.o)
 .text          0x00000000        0x0 ./../../../../BitCloud/lib/libHAL_deRFusb23e06_At91sam3s4c_64Mhz_Gcc.a(nv_basic.o)
 .data          0x00000000        0x0 ./../../../../BitCloud/lib/libHAL_deRFusb23e06_At91sam3s4c_64Mhz_Gcc.a(nv_basic.o)
 .data          0x00000000        0x0 c:/users/user/desktop/winsync/code_files/sabre/_toolchains/yagarto_arm/bin/../lib/gcc/arm-none-eabi/4.5.1/../../../../arm-none-eabi/lib/thumb/v7m\libc.a(lib_a-memcmp.o)
 .bss           0x00000000        0x0 c:/users/user/desktop/winsync/code_files/sabre/_toolchains/yagarto_arm/bin/../lib/gcc/arm-none-eabi/4.5.1/../../../../arm-none-eabi/lib/thumb/v7m\libc.a(lib_a-memcmp.o)
 .data          0x00000000        0x0 c:/users/user/desktop/winsync/code_files/sabre/_toolchains/yagarto_arm/bin/../lib/gcc/arm-none-eabi/4.5.1/../../../../arm-none-eabi/lib/thumb/v7m\libc.a(lib_a-memcpy.o)
 .bss           0x00000000        0x0 c:/users/user/desktop/winsync/code_files/sabre/_toolchains/yagarto_arm/bin/../lib/gcc/arm-none-eabi/4.5.1/../../../../arm-none-eabi/lib/thumb/v7m\libc.a(lib_a-memcpy.o)
 .data          0x00000000        0x0 c:/users/user/desktop/winsync/code_files/sabre/_toolchains/yagarto_arm/bin/../lib/gcc/arm-none-eabi/4.5.1/../../../../arm-none-eabi/lib/thumb/v7m\libc.a(lib_a-memmove.o)
 .bss           0x00000000        0x0 c:/users/user/desktop/winsync/code_files/sabre/_toolchains/yagarto_arm/bin/../lib/gcc/arm-none-eabi/4.5.1/../../../../arm-none-eabi/lib/thumb/v7m\libc.a(lib_a-memmove.o)
 .data          0x00000000        0x0 c:/users/user/desktop/winsync/code_files/sabre/_toolchains/yagarto_arm/bin/../lib/gcc/arm-none-eabi/4.5.1/../../../../arm-none-eabi/lib/thumb/v7m\libc.a(lib_a-memset.o)
 .bss           0x00000000        0x0 c:/users/user/desktop/winsync/code_files/sabre/_toolchains/yagarto_arm/bin/../lib/gcc/arm-none-eabi/4.5.1/../../../../arm-none-eabi/lib/thumb/v7m\libc.a(lib_a-memset.o)
 .data          0x00000000        0x0 c:/users/user/desktop/winsync/code_files/sabre/_toolchains/yagarto_arm/bin/../lib/gcc/arm-none-eabi/4.5.1/../../../../arm-none-eabi/lib/thumb/v7m\libc.a(lib_a-rand.o)
 .bss           0x00000000        0x0 c:/users/user/desktop/winsync/code_files/sabre/_toolchains/yagarto_arm/bin/../lib/gcc/arm-none-eabi/4.5.1/../../../../arm-none-eabi/lib/thumb/v7m\libc.a(lib_a-rand.o)
 .text          0x00000000        0x0 c:/users/user/desktop/winsync/code_files/sabre/_toolchains/yagarto_arm/bin/../lib/gcc/arm-none-eabi/4.5.1/../../../../arm-none-eabi/lib/thumb/v7m\libc.a(lib_a-impure.o)
 .bss           0x00000000        0x0 c:/users/user/desktop/winsync/code_files/sabre/_toolchains/yagarto_arm/bin/../lib/gcc/arm-none-eabi/4.5.1/../../../../arm-none-eabi/lib/thumb/v7m\libc.a(lib_a-impure.o)
 .rodata        0x00000000        0x4 c:/users/user/desktop/winsync/code_files/sabre/_toolchains/yagarto_arm/bin/../lib/gcc/arm-none-eabi/4.5.1/../../../../arm-none-eabi/lib/thumb/v7m\libc.a(lib_a-impure.o)

Memory Configuration

Name             Origin             Length             Attributes
BOOT             0x00000000         0x00400000         xr
FLASH            0x00400000         0x0003f000         xr
ROM              0x00800000         0x00400000         xr
RAM              0x20000000         0x0000c000         rw
*default*        0x00000000         0xffffffff

Linker script and memory map

                0x00001000                MAIN_STACK_SIZE = 0x1000
                0x00000000                PROCESS_STACK_SIZE = 0x0

.text           0x00400000    0x11f8c
                0x00400000                __text = .
 *(.vectors)
 .vectors       0x00400000       0x40 ./../../../../BitCloud/lib/libHAL_deRFusb23e06_At91sam3s4c_64Mhz_Gcc.a(halVectorTable.o)
                0x00400000                __vector_table
                0x00400040                PROVIDE (__pds_ff_start, .)
 *(.pds_ff)
                0x00400040                PROVIDE (__pds_ff_end, .)
                0x00400040                PROVIDE (__pds_fd_start, .)
 *(.pds_fd)
                0x00400040                PROVIDE (__pds_fd_end, .)
 *(.text)
 .text          0x00400040       0x74 ./../../../../BitCloud/lib/libHAL_deRFusb23e06_At91sam3s4c_64Mhz_Gcc.a(halExceptionGcc.o)
                0x00400040                halNmiHandler
                0x00400042                halHardFaultHandler
                0x00400044                halMemManageHandler
                0x00400046                halBusFaultHandler
                0x00400048                halUsageFaultHandler
                0x0040004a                halSvcHandler
                0x0040004c                halDebugMonHandler
                0x0040004e                halPendsvHandler
                0x00400050                halSysTickHandler
 .text          0x004000b4       0x58 c:/users/user/desktop/winsync/code_files/sabre/_toolchains/yagarto_arm/bin/../lib/gcc/arm-none-eabi/4.5.1/../../../../arm-none-eabi/lib/thumb/v7m\libc.a(lib_a-memcmp.o)
                0x004000b4                memcmp
 .text          0x0040010c       0x8c c:/users/user/desktop/winsync/code_files/sabre/_toolchains/yagarto_arm/bin/../lib/gcc/arm-none-eabi/4.5.1/../../../../arm-none-eabi/lib/thumb/v7m\libc.a(lib_a-memcpy.o)
                0x0040010c                memcpy
 .text          0x00400198       0xb4 c:/users/user/desktop/winsync/code_files/sabre/_toolchains/yagarto_arm/bin/../lib/gcc/arm-none-eabi/4.5.1/../../../../arm-none-eabi/lib/thumb/v7m\libc.a(lib_a-memmove.o)
                0x00400198                memmove
 .text          0x0040024c       0x9c c:/users/user/desktop/winsync/code_files/sabre/_toolchains/yagarto_arm/bin/../lib/gcc/arm-none-eabi/4.5.1/../../../../arm-none-eabi/lib/thumb/v7m\libc.a(lib_a-memset.o)
                0x0040024c                memset
 .text          0x004002e8       0x64 c:/users/user/desktop/winsync/code_files/sabre/_toolchains/yagarto_arm/bin/../lib/gcc/arm-none-eabi/4.5.1/../../../../arm-none-eabi/lib/thumb/v7m\libc.a(lib_a-rand.o)
                0x004002e8                srand
                0x00400300                rand
 *(.text.*)
 .text.batteryDataReady
                0x0040034c       0x24 All_deRFusb23e06_At91sam3s4c_Rf231_Gcc/Obj/WSNSensorManager.o
 .text.temperatureDataReady
                0x00400370       0x40 All_deRFusb23e06_At91sam3s4c_Rf231_Gcc/Obj/WSNSensorManager.o
 .text.lightDataReady
                0x004003b0       0x40 All_deRFusb23e06_At91sam3s4c_Rf231_Gcc/Obj/WSNSensorManager.o
 .text.appStartSensorManager
                0x004003f0       0x10 All_deRFusb23e06_At91sam3s4c_Rf231_Gcc/Obj/WSNSensorManager.o
                0x004003f0                appStartSensorManager
 .text.appStopSensorManager
                0x00400400       0x10 All_deRFusb23e06_At91sam3s4c_Rf231_Gcc/Obj/WSNSensorManager.o
                0x00400400                appStopSensorManager
 .text.appGetSensorData
                0x00400410       0x18 All_deRFusb23e06_At91sam3s4c_Rf231_Gcc/Obj/WSNSensorManager.o
                0x00400410                appGetSensorData
 .text.appEndDeviceWakeUpInd
                0x00400428       0x18 All_deRFusb23e06_At91sam3s4c_Rf231_Gcc/Obj/WSNEndDevice.o
 .text.appEndDeviceTaskReset
                0x00400440       0x14 All_deRFusb23e06_At91sam3s4c_Rf231_Gcc/Obj/WSNEndDevice.o
 .text.appEndDeviceSleepConf
                0x00400454       0x1c All_deRFusb23e06_At91sam3s4c_Rf231_Gcc/Obj/WSNEndDevice.o
 .text.deviceTimerFired
                0x00400470       0x1c All_deRFusb23e06_At91sam3s4c_Rf231_Gcc/Obj/WSNEndDevice.o
 .text.appEndDeviceTaskHandler
                0x0040048c       0xb4 All_deRFusb23e06_At91sam3s4c_Rf231_Gcc/Obj/WSNEndDevice.o
 .text.appSensorsGot
                0x00400540       0x18 All_deRFusb23e06_At91sam3s4c_Rf231_Gcc/Obj/WSNEndDevice.o
 .text.appEndDeviceInitialization
                0x00400558       0x1c All_deRFusb23e06_At91sam3s4c_Rf231_Gcc/Obj/WSNEndDevice.o
 .text.appEndDeviceIdentifyCmdHandler
                0x00400574       0x1c All_deRFusb23e06_At91sam3s4c_Rf231_Gcc/Obj/WSNEndDevice.o
                0x00400574                appEndDeviceIdentifyCmdHandler
 .text.appEndDeviceNwkInfoCmdHandler
                0x00400590       0x4c All_deRFusb23e06_At91sam3s4c_Rf231_Gcc/Obj/WSNEndDevice.o
                0x00400590                appEndDeviceNwkInfoCmdHandler
 .text.appEndDeviceGetInterface
                0x004005dc       0x30 All_deRFusb23e06_At91sam3s4c_Rf231_Gcc/Obj/WSNEndDevice.o
                0x004005dc                appEndDeviceGetInterface
 .text.visualizeAppStarting
                0x0040060c        0x8 All_deRFusb23e06_At91sam3s4c_Rf231_Gcc/Obj/WSNVisualizer.o
                0x0040060c                visualizeAppStarting
 .text.visualizeNwkStarting
                0x00400614       0x16 All_deRFusb23e06_At91sam3s4c_Rf231_Gcc/Obj/WSNVisualizer.o
                0x00400614                visualizeNwkStarting
 .text.visualizeNwkStarted
                0x0040062a       0x16 All_deRFusb23e06_At91sam3s4c_Rf231_Gcc/Obj/WSNVisualizer.o
                0x0040062a                visualizeNwkStarted
 .text.visualizeNwkLeaving
                0x00400640        0xa All_deRFusb23e06_At91sam3s4c_Rf231_Gcc/Obj/WSNVisualizer.o
                0x00400640                visualizeNwkLeaving
 .text.visualizeNwkLeft
                0x0040064a        0xa All_deRFusb23e06_At91sam3s4c_Rf231_Gcc/Obj/WSNVisualizer.o
                0x0040064a                visualizeNwkLeft
 .text.visualizeAirTxStarted
                0x00400654        0xa All_deRFusb23e06_At91sam3s4c_Rf231_Gcc/Obj/WSNVisualizer.o
                0x00400654                visualizeAirTxStarted
 .text.visualizeAirTxFInished
                0x0040065e        0xa All_deRFusb23e06_At91sam3s4c_Rf231_Gcc/Obj/WSNVisualizer.o
                0x0040065e                visualizeAirTxFInished
 .text.visualizeAirRxFinished
                0x00400668        0xa All_deRFusb23e06_At91sam3s4c_Rf231_Gcc/Obj/WSNVisualizer.o
                0x00400668                visualizeAirRxFinished
 .text.visualizeWakeUp
                0x00400672        0xe All_deRFusb23e06_At91sam3s4c_Rf231_Gcc/Obj/WSNVisualizer.o
                0x00400672                visualizeWakeUp
 .text.visualizeSleep
                0x00400680        0x8 All_deRFusb23e06_At91sam3s4c_Rf231_Gcc/Obj/WSNVisualizer.o
                0x00400680                visualizeSleep
 .text.visualizeIdentity
                0x00400688        0xa All_deRFusb23e06_At91sam3s4c_Rf231_Gcc/Obj/WSNVisualizer.o
                0x00400688                visualizeIdentity
 .text.appRemoveQueueElement
                0x00400692       0x28 All_deRFusb23e06_At91sam3s4c_Rf231_Gcc/Obj/WSNMessageSender.o
 *fill*         0x004006ba        0x2 00
 .text.msgSenderApsDataConf
                0x004006bc       0x4c All_deRFusb23e06_At91sam3s4c_Rf231_Gcc/Obj/WSNMessageSender.o
 .text.appInitMsgSender
                0x00400708       0x30 All_deRFusb23e06_At91sam3s4c_Rf231_Gcc/Obj/WSNMessageSender.o
                0x00400708                appInitMsgSender
 .text.appMsgSender
                0x00400738       0x98 All_deRFusb23e06_At91sam3s4c_Rf231_Gcc/Obj/WSNMessageSender.o
                0x00400738                appMsgSender
 .text.appIsTxQueueFree
                0x004007d0       0x20 All_deRFusb23e06_At91sam3s4c_Rf231_Gcc/Obj/WSNMessageSender.o
                0x004007d0                appIsTxQueueFree
 .text.appCreateTxFrame
                0x004007f0       0x5c All_deRFusb23e06_At91sam3s4c_Rf231_Gcc/Obj/WSNMessageSender.o
                0x004007f0                appCreateTxFrame
 .text.appInitCmdHandler
                0x0040084c       0x28 All_deRFusb23e06_At91sam3s4c_Rf231_Gcc/Obj/WSNCommandHandler.o
                0x0040084c                appInitCmdHandler
 .text.appCmdHandler
                0x00400874       0x44 All_deRFusb23e06_At91sam3s4c_Rf231_Gcc/Obj/WSNCommandHandler.o
                0x00400874                appCmdHandler
 .text.appIsCmdQueueFree
                0x004008b8       0x18 All_deRFusb23e06_At91sam3s4c_Rf231_Gcc/Obj/WSNCommandHandler.o
                0x004008b8                appIsCmdQueueFree
 .text.appCreateCommand
                0x004008d0       0x38 All_deRFusb23e06_At91sam3s4c_Rf231_Gcc/Obj/WSNCommandHandler.o
                0x004008d0                appCreateCommand
 .text.manageBlinkingDuringRejoin
                0x00400908       0x2c All_deRFusb23e06_At91sam3s4c_Rf231_Gcc/Obj/WSNDemoApp.o
 .text.identifyTimerFired
                0x00400934       0x2c All_deRFusb23e06_At91sam3s4c_Rf231_Gcc/Obj/WSNDemoApp.o
 .text.appPostGlobalTask
                0x00400960       0x24 All_deRFusb23e06_At91sam3s4c_Rf231_Gcc/Obj/WSNDemoApp.o
 .text.appZdpLeaveResp
                0x00400984       0x1c All_deRFusb23e06_At91sam3s4c_Rf231_Gcc/Obj/WSNDemoApp.o
 .text.appZdoStartNetworkConf
                0x004009a0       0x4c All_deRFusb23e06_At91sam3s4c_Rf231_Gcc/Obj/WSNDemoApp.o
 .text.startingNetworkTimerFired
                0x004009ec        0x8 All_deRFusb23e06_At91sam3s4c_Rf231_Gcc/Obj/WSNDemoApp.o
 .text.appApsDataIndHandler
                0x004009f4       0x16 All_deRFusb23e06_At91sam3s4c_Rf231_Gcc/Obj/WSNDemoApp.o
 *fill*         0x00400a0a        0x2 00
 .text.APL_TaskHandler
                0x00400a0c      0x194 All_deRFusb23e06_At91sam3s4c_Rf231_Gcc/Obj/WSNDemoApp.o
                0x00400a0c                APL_TaskHandler
 .text.ZDO_MgmtNwkUpdateNotf
                0x00400ba0       0xa0 All_deRFusb23e06_At91sam3s4c_Rf231_Gcc/Obj/WSNDemoApp.o
                0x00400ba0                ZDO_MgmtNwkUpdateNotf
 .text.ZDO_WakeUpInd
                0x00400c40       0x10 All_deRFusb23e06_At91sam3s4c_Rf231_Gcc/Obj/WSNDemoApp.o
                0x00400c40                ZDO_WakeUpInd
 .text.appReadLqiRssi
                0x00400c50       0x24 All_deRFusb23e06_At91sam3s4c_Rf231_Gcc/Obj/WSNDemoApp.o
                0x00400c50                appReadLqiRssi
 .text.appPostSubTaskTask
                0x00400c74       0x3c All_deRFusb23e06_At91sam3s4c_Rf231_Gcc/Obj/WSNDemoApp.o
                0x00400c74                appPostSubTaskTask
 .text.appPostCmdHandlerTask
                0x00400cb0       0x3c All_deRFusb23e06_At91sam3s4c_Rf231_Gcc/Obj/WSNDemoApp.o
                0x00400cb0                appPostCmdHandlerTask
 .text.appPostMsgSenderTask
                0x00400cec       0x3c All_deRFusb23e06_At91sam3s4c_Rf231_Gcc/Obj/WSNDemoApp.o
                0x00400cec                appPostMsgSenderTask
 .text.appLeaveNetwork
                0x00400d28       0x1c All_deRFusb23e06_At91sam3s4c_Rf231_Gcc/Obj/WSNDemoApp.o
                0x00400d28                appLeaveNetwork
 .text.appIsSleepPermitted
                0x00400d44       0x20 All_deRFusb23e06_At91sam3s4c_Rf231_Gcc/Obj/WSNDemoApp.o
                0x00400d44                appIsSleepPermitted
 .text.appStartIdentifyVisualization
                0x00400d64       0x40 All_deRFusb23e06_At91sam3s4c_Rf231_Gcc/Obj/WSNDemoApp.o
                0x00400d64                appStartIdentifyVisualization
 .text.appGetCmdDescriptor
                0x00400da4       0x40 All_deRFusb23e06_At91sam3s4c_Rf231_Gcc/Obj/WSNDemoApp.o
                0x00400da4                appGetCmdDescriptor
 .text.ZDO_BindIndication
                0x00400de4        0x2 All_deRFusb23e06_At91sam3s4c_Rf231_Gcc/Obj/WSNDemoApp.o
                0x00400de4                ZDO_BindIndication
 .text.ZDO_UnbindIndication
                0x00400de6        0x2 All_deRFusb23e06_At91sam3s4c_Rf231_Gcc/Obj/WSNDemoApp.o
                0x00400de6                ZDO_UnbindIndication
 .text.main     0x00400de8        0xc All_deRFusb23e06_At91sam3s4c_Rf231_Gcc/Obj/WSNDemoApp.o
                0x00400de8                main
 .text.BSP_OpenLeds
                0x00400df4       0x24 All_deRFusb23e06_At91sam3s4c_Rf231_Gcc/Obj/leds.o
                0x00400df4                BSP_OpenLeds
 .text.BSP_CloseLeds
                0x00400e18       0x30 All_deRFusb23e06_At91sam3s4c_Rf231_Gcc/Obj/leds.o
                0x00400e18                BSP_CloseLeds
 .text.BSP_OnLed
                0x00400e48       0x28 All_deRFusb23e06_At91sam3s4c_Rf231_Gcc/Obj/leds.o
                0x00400e48                BSP_OnLed
 .text.BSP_OffLed
                0x00400e70       0x28 All_deRFusb23e06_At91sam3s4c_Rf231_Gcc/Obj/leds.o
                0x00400e70                BSP_OffLed
 .text.BSP_ToggleLed
                0x00400e98       0x58 All_deRFusb23e06_At91sam3s4c_Rf231_Gcc/Obj/leds.o
                0x00400e98                BSP_ToggleLed
 .text.BSP_TaskHandler
                0x00400ef0       0x70 All_deRFusb23e06_At91sam3s4c_Rf231_Gcc/Obj/bspTaskManager.o
                0x00400ef0                BSP_TaskHandler
 .text.BSP_OpenTemperatureSensor
                0x00400f60        0x4 All_deRFusb23e06_At91sam3s4c_Rf231_Gcc/Obj/fakeBSP.o
                0x00400f60                BSP_OpenTemperatureSensor
 .text.BSP_CloseTemperatureSensor
                0x00400f64        0x4 All_deRFusb23e06_At91sam3s4c_Rf231_Gcc/Obj/fakeBSP.o
                0x00400f64                BSP_CloseTemperatureSensor
 .text.BSP_ReadTemperatureData
                0x00400f68       0x3c All_deRFusb23e06_At91sam3s4c_Rf231_Gcc/Obj/fakeBSP.o
                0x00400f68                BSP_ReadTemperatureData
 .text.bspTemperatureSensorHandler
                0x00400fa4       0x14 All_deRFusb23e06_At91sam3s4c_Rf231_Gcc/Obj/fakeBSP.o
                0x00400fa4                bspTemperatureSensorHandler
 .text.BSP_OpenLightSensor
                0x00400fb8        0x4 All_deRFusb23e06_At91sam3s4c_Rf231_Gcc/Obj/fakeBSP.o
                0x00400fb8                BSP_OpenLightSensor
 .text.BSP_CloseLightSensor
                0x00400fbc        0x4 All_deRFusb23e06_At91sam3s4c_Rf231_Gcc/Obj/fakeBSP.o
                0x00400fbc                BSP_CloseLightSensor
 .text.BSP_ReadLightData
                0x00400fc0       0x3c All_deRFusb23e06_At91sam3s4c_Rf231_Gcc/Obj/fakeBSP.o
                0x00400fc0                BSP_ReadLightData
 .text.bspLightSensorHandler
                0x00400ffc       0x14 All_deRFusb23e06_At91sam3s4c_Rf231_Gcc/Obj/fakeBSP.o
                0x00400ffc                bspLightSensorHandler
 .text.BSP_OpenBatterySensor
                0x00401010        0x4 All_deRFusb23e06_At91sam3s4c_Rf231_Gcc/Obj/fakeBSP.o
                0x00401010                BSP_OpenBatterySensor
 .text.BSP_CloseBatterySensor
                0x00401014        0x4 All_deRFusb23e06_At91sam3s4c_Rf231_Gcc/Obj/fakeBSP.o
                0x00401014                BSP_CloseBatterySensor
 .text.BSP_ReadBatteryData
                0x00401018       0x3c All_deRFusb23e06_At91sam3s4c_Rf231_Gcc/Obj/fakeBSP.o
                0x00401018                BSP_ReadBatteryData
 .text.bspEmptyBatteryHandler
                0x00401054       0x10 All_deRFusb23e06_At91sam3s4c_Rf231_Gcc/Obj/fakeBSP.o
                0x00401054                bspEmptyBatteryHandler
 *fill*         0x00401064        0x4 00
 .text.csSetToDefault
                0x00401068       0x88 All_deRFusb23e06_At91sam3s4c_Rf231_Gcc/Obj/csMem.o
                0x00401068                csSetToDefault
 .text.csGetItem
                0x004010f0       0x24 All_deRFusb23e06_At91sam3s4c_Rf231_Gcc/Obj/configServer.o
 .text.CS_Init  0x00401114        0x8 All_deRFusb23e06_At91sam3s4c_Rf231_Gcc/Obj/configServer.o
                0x00401114                CS_Init
 .text.CS_ReadParameter
                0x0040111c       0x1e All_deRFusb23e06_At91sam3s4c_Rf231_Gcc/Obj/configServer.o
                0x0040111c                CS_ReadParameter
 .text.CS_WriteParameter
                0x0040113a       0x2a All_deRFusb23e06_At91sam3s4c_Rf231_Gcc/Obj/configServer.o
                0x0040113a                CS_WriteParameter
 .text.CS_GetMemory
                0x00401164       0x1a All_deRFusb23e06_At91sam3s4c_Rf231_Gcc/Obj/configServer.o
                0x00401164                CS_GetMemory
 .text.halStartAtomic
                0x0040117e        0xe ./../../../../BitCloud/lib/libHAL_deRFusb23e06_At91sam3s4c_64Mhz_Gcc.a(atomic.o)
                0x0040117e                halStartAtomic
 .text.halEndAtomic
                0x0040118c        0xa ./../../../../BitCloud/lib/libHAL_deRFusb23e06_At91sam3s4c_64Mhz_Gcc.a(atomic.o)
                0x0040118c                halEndAtomic
 .text.__get_PRIMASK
                0x00401196        0x6 ./../../../../BitCloud/lib/libHAL_deRFusb23e06_At91sam3s4c_64Mhz_Gcc.a(core_cm3.o)
                0x00401196                __get_PRIMASK
 .text.__set_PRIMASK
                0x0040119c        0x6 ./../../../../BitCloud/lib/libHAL_deRFusb23e06_At91sam3s4c_64Mhz_Gcc.a(core_cm3.o)
                0x0040119c                __set_PRIMASK
 .text.halIrqHandlerNotUsed
                0x004011a2        0x2 ./../../../../BitCloud/lib/libHAL_deRFusb23e06_At91sam3s4c_64Mhz_Gcc.a(halVectorTable.o)
 .text.halAdjustSleepInterval
                0x004011a4       0x3c ./../../../../BitCloud/lib/libHAL_deRFusb23e06_At91sam3s4c_64Mhz_Gcc.a(halAppClock.o)
                0x004011a4                halAdjustSleepInterval
 .text.halAppSystemTimeSynchronize
                0x004011e0       0x34 ./../../../../BitCloud/lib/libHAL_deRFusb23e06_At91sam3s4c_64Mhz_Gcc.a(halAppClock.o)
                0x004011e0                halAppSystemTimeSynchronize
 .text.timerHandler
                0x00401214       0x70 ./../../../../BitCloud/lib/libHAL_deRFusb23e06_At91sam3s4c_64Mhz_Gcc.a(halAppClock.o)
                0x00401214                timerHandler
 .text.halStartAppClock
                0x00401284       0x50 ./../../../../BitCloud/lib/libHAL_deRFusb23e06_At91sam3s4c_64Mhz_Gcc.a(halAppClock.o)
                0x00401284                halStartAppClock
 .text.halStopAppClock
                0x004012d4        0xc ./../../../../BitCloud/lib/libHAL_deRFusb23e06_At91sam3s4c_64Mhz_Gcc.a(halAppClock.o)
                0x004012d4                halStopAppClock
 .text.halGetTimeOfAppTimer
                0x004012e0       0x10 ./../../../../BitCloud/lib/libHAL_deRFusb23e06_At91sam3s4c_64Mhz_Gcc.a(halAppClock.o)
                0x004012e0                halGetTimeOfAppTimer
 .text.halDelayUs
                0x004012f0       0x30 ./../../../../BitCloud/lib/libHAL_deRFusb23e06_At91sam3s4c_64Mhz_Gcc.a(halAppClock.o)
                0x004012f0                halDelayUs
 .text.commonUsartHandler
                0x00401320       0x80 ./../../../../BitCloud/lib/libHAL_deRFusb23e06_At91sam3s4c_64Mhz_Gcc.a(halUsart.o)
                0x00401320                commonUsartHandler
 .text.usart0Handler
                0x004013a0       0x10 ./../../../../BitCloud/lib/libHAL_deRFusb23e06_At91sam3s4c_64Mhz_Gcc.a(halUsart.o)
                0x004013a0                usart0Handler
 .text.usart1Handler
                0x004013b0       0x10 ./../../../../BitCloud/lib/libHAL_deRFusb23e06_At91sam3s4c_64Mhz_Gcc.a(halUsart.o)
                0x004013b0                usart1Handler
 .text.halPostUartTask
                0x004013c0       0x44 ./../../../../BitCloud/lib/libHAL_deRFusb23e06_At91sam3s4c_64Mhz_Gcc.a(halUart.o)
 .text.halUartTaskUart1Rxc
                0x00401404       0x10 ./../../../../BitCloud/lib/libHAL_deRFusb23e06_At91sam3s4c_64Mhz_Gcc.a(halUart.o)
 .text.halUartTaskUart0Rxc
                0x00401414       0x10 ./../../../../BitCloud/lib/libHAL_deRFusb23e06_At91sam3s4c_64Mhz_Gcc.a(halUart.o)
 .text.halUartTaskUart1Txc
                0x00401424       0x10 ./../../../../BitCloud/lib/libHAL_deRFusb23e06_At91sam3s4c_64Mhz_Gcc.a(halUart.o)
 .text.halUartTaskUart0Txc
                0x00401434       0x10 ./../../../../BitCloud/lib/libHAL_deRFusb23e06_At91sam3s4c_64Mhz_Gcc.a(halUart.o)
 .text.halUartTaskUart1Dre
                0x00401444       0x10 ./../../../../BitCloud/lib/libHAL_deRFusb23e06_At91sam3s4c_64Mhz_Gcc.a(halUart.o)
 .text.halUartTaskUart0Dre
                0x00401454       0x10 ./../../../../BitCloud/lib/libHAL_deRFusb23e06_At91sam3s4c_64Mhz_Gcc.a(halUart.o)
 .text.halSigUartHandler
                0x00401464       0x3c ./../../../../BitCloud/lib/libHAL_deRFusb23e06_At91sam3s4c_64Mhz_Gcc.a(halUart.o)
                0x00401464                halSigUartHandler
 .text.uart0Handler
                0x004014a0       0x68 ./../../../../BitCloud/lib/libHAL_deRFusb23e06_At91sam3s4c_64Mhz_Gcc.a(halUart.o)
                0x004014a0                uart0Handler
 .text.halClearCSR
                0x00401508       0x48 ./../../../../BitCloud/lib/libHAL_deRFusb23e06_At91sam3s4c_64Mhz_Gcc.a(halUsb.o)
 .text.halSetCSR
                0x00401550       0x48 ./../../../../BitCloud/lib/libHAL_deRFusb23e06_At91sam3s4c_64Mhz_Gcc.a(halUsb.o)
 .text.halWritePayload
                0x00401598       0x50 ./../../../../BitCloud/lib/libHAL_deRFusb23e06_At91sam3s4c_64Mhz_Gcc.a(halUsb.o)
 .text.halClearRxFlag
                0x004015e8       0x98 ./../../../../BitCloud/lib/libHAL_deRFusb23e06_At91sam3s4c_64Mhz_Gcc.a(halUsb.o)
 .text.usbHandler
                0x00401680      0x100 ./../../../../BitCloud/lib/libHAL_deRFusb23e06_At91sam3s4c_64Mhz_Gcc.a(halUsb.o)
                0x00401680                usbHandler
 .text.halEndOfTransfer
                0x00401780       0x3c ./../../../../BitCloud/lib/libHAL_deRFusb23e06_At91sam3s4c_64Mhz_Gcc.a(halUsb.o)
                0x00401780                halEndOfTransfer
 .text.halResetEndpoints
                0x004017bc       0x30 ./../../../../BitCloud/lib/libHAL_deRFusb23e06_At91sam3s4c_64Mhz_Gcc.a(halUsb.o)
                0x004017bc                halResetEndpoints
 .text.halDisableEndpoints
                0x004017ec       0x24 ./../../../../BitCloud/lib/libHAL_deRFusb23e06_At91sam3s4c_64Mhz_Gcc.a(halUsb.o)
                0x004017ec                halDisableEndpoints
 .text.halEndOfBusResetHandler
                0x00401810       0x34 ./../../../../BitCloud/lib/libHAL_deRFusb23e06_At91sam3s4c_64Mhz_Gcc.a(halUsb.o)
                0x00401810                halEndOfBusResetHandler
 .text.halEndpointHandler
                0x00401844      0x250 ./../../../../BitCloud/lib/libHAL_deRFusb23e06_At91sam3s4c_64Mhz_Gcc.a(halUsb.o)
                0x00401844                halEndpointHandler
 .text.halConfigureEndpoint
                0x00401a94       0x34 ./../../../../BitCloud/lib/libHAL_deRFusb23e06_At91sam3s4c_64Mhz_Gcc.a(halUsb.o)
                0x00401a94                halConfigureEndpoint
 .text.halProcessExtIrq
                0x00401ac8       0x36 ./../../../../BitCloud/lib/libHAL_deRFusb23e06_At91sam3s4c_64Mhz_Gcc.a(halIrq.o)
 *fill*         0x00401afe        0x2 00
 .text.halRegisterExtIrq
                0x00401b00      0x168 ./../../../../BitCloud/lib/libHAL_deRFusb23e06_At91sam3s4c_64Mhz_Gcc.a(halIrq.o)
                0x00401b00                halRegisterExtIrq
 .text.halEnableExtIrq
                0x00401c68       0x20 ./../../../../BitCloud/lib/libHAL_deRFusb23e06_At91sam3s4c_64Mhz_Gcc.a(halIrq.o)
                0x00401c68                halEnableExtIrq
 .text.halDisableExtIrq
                0x00401c88       0x38 ./../../../../BitCloud/lib/libHAL_deRFusb23e06_At91sam3s4c_64Mhz_Gcc.a(halIrq.o)
                0x00401c88                halDisableExtIrq
 .text.halClearExtIrq
                0x00401cc0       0x74 ./../../../../BitCloud/lib/libHAL_deRFusb23e06_At91sam3s4c_64Mhz_Gcc.a(halIrq.o)
                0x00401cc0                halClearExtIrq
 .text.pioaHandler
                0x00401d34       0x10 ./../../../../BitCloud/lib/libHAL_deRFusb23e06_At91sam3s4c_64Mhz_Gcc.a(halIrq.o)
                0x00401d34                pioaHandler
 .text.piobHandler
                0x00401d44       0x10 ./../../../../BitCloud/lib/libHAL_deRFusb23e06_At91sam3s4c_64Mhz_Gcc.a(halIrq.o)
                0x00401d44                piobHandler
 .text.piocHandler
                0x00401d54       0x10 ./../../../../BitCloud/lib/libHAL_deRFusb23e06_At91sam3s4c_64Mhz_Gcc.a(halIrq.o)
                0x00401d54                piocHandler
 .text.hsmciHandler
                0x00401d64       0xec ./../../../../BitCloud/lib/libHAL_deRFusb23e06_At91sam3s4c_64Mhz_Gcc.a(halHsmci.o)
                0x00401d64                hsmciHandler
 .text.halHsmciHandler
                0x00401e50       0x14 ./../../../../BitCloud/lib/libHAL_deRFusb23e06_At91sam3s4c_64Mhz_Gcc.a(halHsmci.o)
                0x00401e50                halHsmciHandler
 .text.halStartSleepTimerClock
                0x00401e64       0x44 ./../../../../BitCloud/lib/libHAL_deRFusb23e06_At91sam3s4c_64Mhz_Gcc.a(halSleepTimerClock.o)
                0x00401e64                halStartSleepTimerClock
 .text.halSetSleepTimerInterval
                0x00401ea8       0x24 ./../../../../BitCloud/lib/libHAL_deRFusb23e06_At91sam3s4c_64Mhz_Gcc.a(halSleepTimerClock.o)
                0x00401ea8                halSetSleepTimerInterval
 .text.halGetTimeOfSleepTimer
                0x00401ecc       0x54 ./../../../../BitCloud/lib/libHAL_deRFusb23e06_At91sam3s4c_64Mhz_Gcc.a(halSleepTimerClock.o)
                0x00401ecc                halGetTimeOfSleepTimer
 .text.halSleepTimerFrequency
                0x00401f20        0x4 ./../../../../BitCloud/lib/libHAL_deRFusb23e06_At91sam3s4c_64Mhz_Gcc.a(halSleepTimerClock.o)
                0x00401f20                halSleepTimerFrequency
 .text.rttHandler
                0x00401f24       0x80 ./../../../../BitCloud/lib/libHAL_deRFusb23e06_At91sam3s4c_64Mhz_Gcc.a(halSleepTimerClock.o)
                0x00401f24                rttHandler
 .text.halPowerOn
                0x00401fa4       0x54 ./../../../../BitCloud/lib/libHAL_deRFusb23e06_At91sam3s4c_64Mhz_Gcc.a(halSleep.o)
                0x00401fa4                halPowerOn
 .text.halPowerOff
                0x00401ff8       0x74 ./../../../../BitCloud/lib/libHAL_deRFusb23e06_At91sam3s4c_64Mhz_Gcc.a(halSleep.o)
                0x00401ff8                halPowerOff
 .text.HAL_Sleep
                0x0040206c       0x40 ./../../../../BitCloud/lib/libHAL_deRFusb23e06_At91sam3s4c_64Mhz_Gcc.a(halSleep.o)
                0x0040206c                HAL_Sleep
 .text.halWakeupHandler
                0x004020ac       0x60 ./../../../../BitCloud/lib/libHAL_deRFusb23e06_At91sam3s4c_64Mhz_Gcc.a(halSleep.o)
                0x004020ac                halWakeupHandler
 .text.gccReset
                0x0040210c       0x50 ./../../../../BitCloud/lib/libHAL_deRFusb23e06_At91sam3s4c_64Mhz_Gcc.a(halStartupGcc.o)
                0x0040210c                gccReset
 .text.HAL_Delay
                0x0040215c        0x8 ./../../../../BitCloud/lib/libHAL_deRFusb23e06_At91sam3s4c_64Mhz_Gcc.a(halRfCtrl.o)
                0x0040215c                HAL_Delay
 .text.HAL_ClearRfIrqFlag
                0x00402164        0xa ./../../../../BitCloud/lib/libHAL_deRFusb23e06_At91sam3s4c_64Mhz_Gcc.a(halRfCtrl.o)
                0x00402164                HAL_ClearRfIrqFlag
 .text.HAL_EnableRfIrq
                0x0040216e        0xa ./../../../../BitCloud/lib/libHAL_deRFusb23e06_At91sam3s4c_64Mhz_Gcc.a(halRfCtrl.o)
                0x0040216e                HAL_EnableRfIrq
 .text.HAL_DisableRfIrq
                0x00402178        0xc ./../../../../BitCloud/lib/libHAL_deRFusb23e06_At91sam3s4c_64Mhz_Gcc.a(halRfCtrl.o)
                0x00402178                HAL_DisableRfIrq
 .text.HAL_SetRfSlpTr
                0x00402184       0x10 ./../../../../BitCloud/lib/libHAL_deRFusb23e06_At91sam3s4c_64Mhz_Gcc.a(halRfCtrl.o)
                0x00402184                HAL_SetRfSlpTr
 .text.HAL_ClearRfSlpTr
                0x00402194       0x10 ./../../../../BitCloud/lib/libHAL_deRFusb23e06_At91sam3s4c_64Mhz_Gcc.a(halRfCtrl.o)
                0x00402194                HAL_ClearRfSlpTr
 .text.HAL_SetRfRst
                0x004021a4       0x10 ./../../../../BitCloud/lib/libHAL_deRFusb23e06_At91sam3s4c_64Mhz_Gcc.a(halRfCtrl.o)
                0x004021a4                HAL_SetRfRst
 .text.HAL_ClearRfRst
                0x004021b4       0x10 ./../../../../BitCloud/lib/libHAL_deRFusb23e06_At91sam3s4c_64Mhz_Gcc.a(halRfCtrl.o)
                0x004021b4                HAL_ClearRfRst
 .text.HAL_InitRfPins
                0x004021c4       0x18 ./../../../../BitCloud/lib/libHAL_deRFusb23e06_At91sam3s4c_64Mhz_Gcc.a(halRfCtrl.o)
                0x004021c4                HAL_InitRfPins
 .text.HAL_InitRfIrq
                0x004021dc       0x28 ./../../../../BitCloud/lib/libHAL_deRFusb23e06_At91sam3s4c_64Mhz_Gcc.a(halRfCtrl.o)
                0x004021dc                HAL_InitRfIrq
 .text.HAL_GetRfFreq
                0x00402204        0x4 ./../../../../BitCloud/lib/libHAL_deRFusb23e06_At91sam3s4c_64Mhz_Gcc.a(halRfCtrl.o)
                0x00402204                HAL_GetRfFreq
 .text.halWaitRadio
                0x00402208       0x20 ./../../../../BitCloud/lib/libHAL_deRFusb23e06_At91sam3s4c_64Mhz_Gcc.a(halRfCtrl.o)
                0x00402208                halWaitRadio
 .text.HAL_EnableRxTxSwitcher
                0x00402228        0x8 ./../../../../BitCloud/lib/libHAL_deRFusb23e06_At91sam3s4c_64Mhz_Gcc.a(halRfCtrl.o)
                0x00402228                HAL_EnableRxTxSwitcher
 .text.HAL_InitAntennaDiversity
                0x00402230        0x2 ./../../../../BitCloud/lib/libHAL_deRFusb23e06_At91sam3s4c_64Mhz_Gcc.a(halRfCtrl.o)
                0x00402230                HAL_InitAntennaDiversity
 .text.HAL_EnableRxAntennaDiversity
                0x00402232        0x2 ./../../../../BitCloud/lib/libHAL_deRFusb23e06_At91sam3s4c_64Mhz_Gcc.a(halRfCtrl.o)
                0x00402232                HAL_EnableRxAntennaDiversity
 .text.HAL_EnableTxAntennaDiversity
                0x00402234        0x2 ./../../../../BitCloud/lib/libHAL_deRFusb23e06_At91sam3s4c_64Mhz_Gcc.a(halRfCtrl.o)
                0x00402234                HAL_EnableTxAntennaDiversity
 *fill*         0x00402236        0x2 00
 .text.HAL_InitRfSpi
                0x00402238       0x44 ./../../../../BitCloud/lib/libHAL_deRFusb23e06_At91sam3s4c_64Mhz_Gcc.a(halRfSpi.o)
                0x00402238                HAL_InitRfSpi
 .text.HAL_WriteByteRfSpi
                0x0040227c       0x18 ./../../../../BitCloud/lib/libHAL_deRFusb23e06_At91sam3s4c_64Mhz_Gcc.a(halRfSpi.o)
                0x0040227c                HAL_WriteByteRfSpi
 .text.HAL_DeselectRfSpi
                0x00402294       0x10 ./../../../../BitCloud/lib/libHAL_deRFusb23e06_At91sam3s4c_64Mhz_Gcc.a(halRfSpi.o)
                0x00402294                HAL_DeselectRfSpi
 .text.HAL_SelectRfSpi
                0x004022a4       0x10 ./../../../../BitCloud/lib/libHAL_deRFusb23e06_At91sam3s4c_64Mhz_Gcc.a(halRfSpi.o)
                0x004022a4                HAL_SelectRfSpi
 .text.HAL_InitMacIsr
                0x004022b4       0x14 ./../../../../BitCloud/lib/libHAL_deRFusb23e06_At91sam3s4c_64Mhz_Gcc.a(halMacIsr.o)
                0x004022b4                HAL_InitMacIsr
 .text.HAL_StartRtimer
                0x004022c8       0x54 ./../../../../BitCloud/lib/libHAL_deRFusb23e06_At91sam3s4c_64Mhz_Gcc.a(halMacIsr.o)
                0x004022c8                HAL_StartRtimer
 .text.HAL_StopRtimer
                0x0040231c       0x18 ./../../../../BitCloud/lib/libHAL_deRFusb23e06_At91sam3s4c_64Mhz_Gcc.a(halMacIsr.o)
                0x0040231c                HAL_StopRtimer
 .text.halMacTimerHandler
                0x00402334       0x50 ./../../../../BitCloud/lib/libHAL_deRFusb23e06_At91sam3s4c_64Mhz_Gcc.a(halMacIsr.o)
                0x00402334                halMacTimerHandler
 .text.halAppTimerHandler
                0x00402384       0x40 ./../../../../BitCloud/lib/libHAL_deRFusb23e06_At91sam3s4c_64Mhz_Gcc.a(appTimer.o)
                0x00402384                halAppTimerHandler
 .text.HAL_StartAppTimer
                0x004023c4       0x3c ./../../../../BitCloud/lib/libHAL_deRFusb23e06_At91sam3s4c_64Mhz_Gcc.a(appTimer.o)
                0x004023c4                HAL_StartAppTimer
 .text.HAL_StopAppTimer
                0x00402400       0x34 ./../../../../BitCloud/lib/libHAL_deRFusb23e06_At91sam3s4c_64Mhz_Gcc.a(appTimer.o)
                0x00402400                HAL_StopAppTimer
 .text.HAL_GetSystemTime
                0x00402434       0x18 ./../../../../BitCloud/lib/libHAL_deRFusb23e06_At91sam3s4c_64Mhz_Gcc.a(appTimer.o)
                0x00402434                HAL_GetSystemTime
 .text.HAL_TaskHandler
                0x0040244c      0x1e0 ./../../../../BitCloud/lib/libHAL_deRFusb23e06_At91sam3s4c_64Mhz_Gcc.a(halTaskManager.o)
                0x0040244c                HAL_TaskHandler
 .text.HAL_StartSystemSleep
                0x0040262c       0x5c ./../../../../BitCloud/lib/libHAL_deRFusb23e06_At91sam3s4c_64Mhz_Gcc.a(sleep.o)
                0x0040262c                HAL_StartSystemSleep
 .text.halAddTimer
                0x00402688       0x76 ./../../../../BitCloud/lib/libHAL_deRFusb23e06_At91sam3s4c_64Mhz_Gcc.a(timer.o)
                0x00402688                halAddTimer
 .text.halRemoveTimer
                0x004026fe       0x1c ./../../../../BitCloud/lib/libHAL_deRFusb23e06_At91sam3s4c_64Mhz_Gcc.a(timer.o)
                0x004026fe                halRemoveTimer
 .text.halFindPrevTimer
                0x0040271a       0x12 ./../../../../BitCloud/lib/libHAL_deRFusb23e06_At91sam3s4c_64Mhz_Gcc.a(timer.o)
                0x0040271a                halFindPrevTimer
 .text.halSigUsartReceptionComplete
                0x0040272c       0x3c ./../../../../BitCloud/lib/libHAL_deRFusb23e06_At91sam3s4c_64Mhz_Gcc.a(usart.o)
 .text.halUsartTaskUsart1Rxc
                0x00402768       0x10 ./../../../../BitCloud/lib/libHAL_deRFusb23e06_At91sam3s4c_64Mhz_Gcc.a(usart.o)
 .text.halUsartTaskUsart0Rxc
                0x00402778       0x10 ./../../../../BitCloud/lib/libHAL_deRFusb23e06_At91sam3s4c_64Mhz_Gcc.a(usart.o)
 .text.halUsartHwController
                0x00402788       0xc4 ./../../../../BitCloud/lib/libHAL_deRFusb23e06_At91sam3s4c_64Mhz_Gcc.a(usart.o)
 .text.hwControlPinsPollCallback
                0x0040284c       0x10 ./../../../../BitCloud/lib/libHAL_deRFusb23e06_At91sam3s4c_64Mhz_Gcc.a(usart.o)
                0x0040284c                hwControlPinsPollCallback
 .text.halUsartTaskUsart1Dre
                0x0040285c       0x10 ./../../../../BitCloud/lib/libHAL_deRFusb23e06_At91sam3s4c_64Mhz_Gcc.a(usart.o)
 .text.halUsartTaskUsart0Dre
                0x0040286c       0x10 ./../../../../BitCloud/lib/libHAL_deRFusb23e06_At91sam3s4c_64Mhz_Gcc.a(usart.o)
 .text.halSigUsartHandler
                0x0040287c       0x68 ./../../../../BitCloud/lib/libHAL_deRFusb23e06_At91sam3s4c_64Mhz_Gcc.a(usart.o)
                0x0040287c                halSigUsartHandler
 .text.halPostUsartTask
                0x004028e4       0x44 ./../../../../BitCloud/lib/libHAL_deRFusb23e06_At91sam3s4c_64Mhz_Gcc.a(usart.o)
                0x004028e4                halPostUsartTask
 .text.halUsartRxBufferFiller
                0x00402928       0xa4 ./../../../../BitCloud/lib/libHAL_deRFusb23e06_At91sam3s4c_64Mhz_Gcc.a(usart.o)
                0x00402928                halUsartRxBufferFiller
 .text.halSigUsartTransmissionComplete
                0x004029cc       0x54 ./../../../../BitCloud/lib/libHAL_deRFusb23e06_At91sam3s4c_64Mhz_Gcc.a(usart.o)
                0x004029cc                halSigUsartTransmissionComplete
 .text.halUsartTaskUsart1Txc
                0x00402a20       0x10 ./../../../../BitCloud/lib/libHAL_deRFusb23e06_At91sam3s4c_64Mhz_Gcc.a(usart.o)
 .text.halUsartTaskUsart0Txc
                0x00402a30       0x10 ./../../../../BitCloud/lib/libHAL_deRFusb23e06_At91sam3s4c_64Mhz_Gcc.a(usart.o)
 .text.halUartStoreRx
                0x00402a40       0x54 ./../../../../BitCloud/lib/libHAL_deRFusb23e06_At91sam3s4c_64Mhz_Gcc.a(uart.o)
                0x00402a40                halUartStoreRx
 .text.halUartTx
                0x00402a94       0x58 ./../../../../BitCloud/lib/libHAL_deRFusb23e06_At91sam3s4c_64Mhz_Gcc.a(uart.o)
                0x00402a94                halUartTx
 .text.halSigUartTransmissionComplete
                0x00402aec       0x30 ./../../../../BitCloud/lib/libHAL_deRFusb23e06_At91sam3s4c_64Mhz_Gcc.a(uart.o)
                0x00402aec                halSigUartTransmissionComplete
 .text.halSigUartReceptionComplete
                0x00402b1c       0x22 ./../../../../BitCloud/lib/libHAL_deRFusb23e06_At91sam3s4c_64Mhz_Gcc.a(uart.o)
                0x00402b1c                halSigUartReceptionComplete
 *fill*         0x00402b3e        0x2 00
 .text.HAL_ConfigureEndpoint
                0x00402b40       0x58 ./../../../../BitCloud/lib/libHAL_deRFusb23e06_At91sam3s4c_64Mhz_Gcc.a(usb.o)
                0x00402b40                HAL_ConfigureEndpoint
 .text.halEndPointHandler
                0x00402b98       0x12 ./../../../../BitCloud/lib/libHAL_deRFusb23e06_At91sam3s4c_64Mhz_Gcc.a(usb.o)
                0x00402b98                halEndPointHandler
 *fill*         0x00402baa        0x2 00
 .text.halSuspendHandler
                0x00402bac       0x10 ./../../../../BitCloud/lib/libHAL_deRFusb23e06_At91sam3s4c_64Mhz_Gcc.a(usb.o)
                0x00402bac                halSuspendHandler
 .text.halResumeHandler
                0x00402bbc       0x10 ./../../../../BitCloud/lib/libHAL_deRFusb23e06_At91sam3s4c_64Mhz_Gcc.a(usb.o)
                0x00402bbc                halResumeHandler
 .text.halBusResetHandler
                0x00402bcc       0x14 ./../../../../BitCloud/lib/libHAL_deRFusb23e06_At91sam3s4c_64Mhz_Gcc.a(usb.o)
                0x00402bcc                halBusResetHandler
 .text.halSigEepromReadyHandler
                0x00402be0       0x14 ./../../../../BitCloud/lib/libHAL_deRFusb23e06_At91sam3s4c_64Mhz_Gcc.a(eeprom.o)
                0x00402be0                halSigEepromReadyHandler
 .text.HAL_StartSleepTimer
                0x00402bf4       0x68 ./../../../../BitCloud/lib/libHAL_deRFusb23e06_At91sam3s4c_64Mhz_Gcc.a(sleepTimer.o)
                0x00402bf4                HAL_StartSleepTimer
 .text.halAsyncTimerHandler
                0x00402c5c       0x3c ./../../../../BitCloud/lib/libHAL_deRFusb23e06_At91sam3s4c_64Mhz_Gcc.a(sleepTimer.o)
                0x00402c5c                halAsyncTimerHandler
 .text.halSwitchToRcClock
                0x00402c98       0xc0 ./../../../../BitCloud/lib/libHAL_deRFusb23e06_At91sam3s4c_64Mhz_Gcc.a(halLowLevelInit.o)
                0x00402c98                halSwitchToRcClock
 .text.halSwitchToActiveClock
                0x00402d58       0xc8 ./../../../../BitCloud/lib/libHAL_deRFusb23e06_At91sam3s4c_64Mhz_Gcc.a(halLowLevelInit.o)
                0x00402d58                halSwitchToActiveClock
 .text.halRestoreStartupClock
                0x00402e20        0xc ./../../../../BitCloud/lib/libHAL_deRFusb23e06_At91sam3s4c_64Mhz_Gcc.a(halLowLevelInit.o)
                0x00402e20                halRestoreStartupClock
 .text.halLowLevelInit
                0x00402e2c       0x2c ./../../../../BitCloud/lib/libHAL_deRFusb23e06_At91sam3s4c_64Mhz_Gcc.a(halLowLevelInit.o)
                0x00402e2c                halLowLevelInit
 .text.halDbguPrintAscii
                0x00402e58       0x20 ./../../../../BitCloud/lib/libHAL_deRFusb23e06_At91sam3s4c_64Mhz_Gcc.a(halExcHandler.o)
 .text.halDbguPrintHex8
                0x00402e78       0x40 ./../../../../BitCloud/lib/libHAL_deRFusb23e06_At91sam3s4c_64Mhz_Gcc.a(halExcHandler.o)
 .text.halCommonExcHandler
                0x00402eb8      0x20c ./../../../../BitCloud/lib/libHAL_deRFusb23e06_At91sam3s4c_64Mhz_Gcc.a(halExcHandler.o)
                0x00402eb8                halCommonExcHandler
 .text.apsNextBind
                0x004030c4       0x6c ./../../../../BitCloud/lib/libBc_All_At91sam3s4c_Rf231_Gcc.a(aps.o)
 .text.apsPrepareFragmentedTransmission
                0x00403130       0x6c ./../../../../BitCloud/lib/libBc_All_At91sam3s4c_Rf231_Gcc.a(aps.o)
 .text.apsIsFragmentationDataReq
                0x0040319c       0x1c ./../../../../BitCloud/lib/libBc_All_At91sam3s4c_Rf231_Gcc.a(aps.o)
 .text.apsGetBuffer
                0x004031b8       0xb8 ./../../../../BitCloud/lib/libBc_All_At91sam3s4c_Rf231_Gcc.a(aps.o)
 .text.apsFreeBuffer
                0x00403270       0x64 ./../../../../BitCloud/lib/libBc_All_At91sam3s4c_Rf231_Gcc.a(aps.o)
 .text.apsSendNwkDataReq
                0x004032d4       0x10 ./../../../../BitCloud/lib/libBc_All_At91sam3s4c_Rf231_Gcc.a(aps.o)
 .text.apsProcessShortAddrModeDataReq
                0x004032e4      0x1ac ./../../../../BitCloud/lib/libBc_All_At91sam3s4c_Rf231_Gcc.a(aps.o)
 .text.apsSendNextBlock
                0x00403490       0x10 ./../../../../BitCloud/lib/libBc_All_At91sam3s4c_Rf231_Gcc.a(aps.o)
 .text.apsSendAckForFragmentedReceive
                0x004034a0       0xb0 ./../../../../BitCloud/lib/libBc_All_At91sam3s4c_Rf231_Gcc.a(aps.o)
 .text.apsProcessGroupAddrModeDataReq
                0x00403550      0x150 ./../../../../BitCloud/lib/libBc_All_At91sam3s4c_Rf231_Gcc.a(aps.o)
 .text.apsSendToNextBoundDevice
                0x004036a0       0x72 ./../../../../BitCloud/lib/libBc_All_At91sam3s4c_Rf231_Gcc.a(aps.o)
 .text.apsProcessIndirectDataReq
                0x00403712       0x1c ./../../../../BitCloud/lib/libBc_All_At91sam3s4c_Rf231_Gcc.a(aps.o)
 *fill*         0x0040372e        0x2 00
 .text.apsCalculateApsAckTimeout
                0x00403730       0x1c ./../../../../BitCloud/lib/libBc_All_At91sam3s4c_Rf231_Gcc.a(aps.o)
 .text.SYS_GetRandomNumber
                0x0040374c       0x18 ./../../../../BitCloud/lib/libBc_All_At91sam3s4c_Rf231_Gcc.a(aps.o)
 .text.apsResetMemoryManager
                0x00403764       0xc8 ./../../../../BitCloud/lib/libBc_All_At91sam3s4c_Rf231_Gcc.a(aps.o)
 .text.apsPostTask
                0x0040382c       0x34 ./../../../../BitCloud/lib/libBc_All_At91sam3s4c_Rf231_Gcc.a(aps.o)
 .text.apsDataManagerNwkDataConf
                0x00403860       0x20 ./../../../../BitCloud/lib/libBc_All_At91sam3s4c_Rf231_Gcc.a(aps.o)
 .text.apsGroupNwkDataConf
                0x00403880       0x38 ./../../../../BitCloud/lib/libBc_All_At91sam3s4c_Rf231_Gcc.a(aps.o)
 .text.apsProcessEvent
                0x004038b8       0x20 ./../../../../BitCloud/lib/libBc_All_At91sam3s4c_Rf231_Gcc.a(aps.o)
 .text.apsAckOnTimerFired
                0x004038d8       0xb4 ./../../../../BitCloud/lib/libBc_All_At91sam3s4c_Rf231_Gcc.a(aps.o)
 .text.apsFindBindingEntry
                0x0040398c       0x9c ./../../../../BitCloud/lib/libBc_All_At91sam3s4c_Rf231_Gcc.a(aps.o)
 .text.apsMakeApsDataConf
                0x00403a28       0x40 ./../../../../BitCloud/lib/libBc_All_At91sam3s4c_Rf231_Gcc.a(aps.o)
 .text.apsAckForFragmentedReceiveConfirmHandler
                0x00403a68       0x58 ./../../../../BitCloud/lib/libBc_All_At91sam3s4c_Rf231_Gcc.a(aps.o)
 .text.apsHandleTransmittedData.constprop.12
                0x00403ac0       0x50 ./../../../../BitCloud/lib/libBc_All_At91sam3s4c_Rf231_Gcc.a(aps.o)
 .text.APS_BindReq
                0x00403b10       0x98 ./../../../../BitCloud/lib/libBc_All_At91sam3s4c_Rf231_Gcc.a(aps.o)
                0x00403b10                APS_BindReq
 .text.APS_UnbindReq
                0x00403ba8       0x4a ./../../../../BitCloud/lib/libBc_All_At91sam3s4c_Rf231_Gcc.a(aps.o)
                0x00403ba8                APS_UnbindReq
 *fill*         0x00403bf2        0x2 00
 .text.APS_DataReq
                0x00403bf4       0x18 ./../../../../BitCloud/lib/libBc_All_At91sam3s4c_Rf231_Gcc.a(aps.o)
                0x00403bf4                APS_DataReq
 .text.NWK_DataInd
                0x00403c0c       0x18 ./../../../../BitCloud/lib/libBc_All_At91sam3s4c_Rf231_Gcc.a(aps.o)
                0x00403c0c                NWK_DataInd
 .text.APS_CalculateTimes
                0x00403c24       0xe4 ./../../../../BitCloud/lib/libBc_All_At91sam3s4c_Rf231_Gcc.a(aps.o)
                0x00403c24                APS_CalculateTimes
 .text.apsResetDataManager
                0x00403d08       0xac ./../../../../BitCloud/lib/libBc_All_At91sam3s4c_Rf231_Gcc.a(aps.o)
 .text.apsNwkResetConf
                0x00403db4      0x140 ./../../../../BitCloud/lib/libBc_All_At91sam3s4c_Rf231_Gcc.a(aps.o)
 .text.apsStateMachineTaskHandler
                0x00403ef4       0xcc ./../../../../BitCloud/lib/libBc_All_At91sam3s4c_Rf231_Gcc.a(aps.o)
 .text.APS_IsProfileIdMatched
                0x00403fc0       0x1a ./../../../../BitCloud/lib/libBc_All_At91sam3s4c_Rf231_Gcc.a(aps.o)
                0x00403fc0                APS_IsProfileIdMatched
 *fill*         0x00403fda        0x2 00
 .text.APS_NextEndpoint
                0x00403fdc       0x10 ./../../../../BitCloud/lib/libBc_All_At91sam3s4c_Rf231_Gcc.a(aps.o)
                0x00403fdc                APS_NextEndpoint
 .text.apsFindEndpoint
                0x00403fec       0x1a ./../../../../BitCloud/lib/libBc_All_At91sam3s4c_Rf231_Gcc.a(aps.o)
 *fill*         0x00404006        0x2 00
 .text.APS_RegisterEndpointReq
                0x00404008       0x3c ./../../../../BitCloud/lib/libBc_All_At91sam3s4c_Rf231_Gcc.a(aps.o)
                0x00404008                APS_RegisterEndpointReq
 .text.apsGroupIndication
                0x00404044       0x54 ./../../../../BitCloud/lib/libBc_All_At91sam3s4c_Rf231_Gcc.a(aps.o)
 .text.apsUnicastDataInd
                0x00404098      0x1e8 ./../../../../BitCloud/lib/libBc_All_At91sam3s4c_Rf231_Gcc.a(aps.o)
 .text.apsApduUnicastHandler.constprop.10
                0x00404280      0x46c ./../../../../BitCloud/lib/libBc_All_At91sam3s4c_Rf231_Gcc.a(aps.o)
 .text.apsDataTaskHandler
                0x004046ec      0x8e4 ./../../../../BitCloud/lib/libBc_All_At91sam3s4c_Rf231_Gcc.a(aps.o)
 .text.APS_Init
                0x00404fd0       0x28 ./../../../../BitCloud/lib/libBc_All_At91sam3s4c_Rf231_Gcc.a(aps.o)
                0x00404fd0                APS_Init
 .text.APS_ResetReq
                0x00404ff8        0x8 ./../../../../BitCloud/lib/libBc_All_At91sam3s4c_Rf231_Gcc.a(aps.o)
                0x00404ff8                APS_ResetReq
 .text.APS_StartReq
                0x00405000        0x8 ./../../../../BitCloud/lib/libBc_All_At91sam3s4c_Rf231_Gcc.a(aps.o)
                0x00405000                APS_StartReq
 .text.APS_StopReq
                0x00405008        0x8 ./../../../../BitCloud/lib/libBc_All_At91sam3s4c_Rf231_Gcc.a(aps.o)
                0x00405008                APS_StopReq
 .text.APS_IsActiveTransaction
                0x00405010       0x54 ./../../../../BitCloud/lib/libBc_All_At91sam3s4c_Rf231_Gcc.a(aps.o)
                0x00405010                APS_IsActiveTransaction
 .text.APS_TaskHandler
                0x00405064       0x78 ./../../../../BitCloud/lib/libBc_All_At91sam3s4c_Rf231_Gcc.a(aps.o)
                0x00405064                APS_TaskHandler
 .text.SYS_GetRandomNumber
                0x004050dc       0x18 ./../../../../BitCloud/lib/libBc_All_At91sam3s4c_Rf231_Gcc.a(macenvPib.o)
 .text.getSymbolsPerOctet
                0x004050f4       0x40 ./../../../../BitCloud/lib/libBc_All_At91sam3s4c_Rf231_Gcc.a(macenvPib.o)
 .text.calculateMaxFrameDuration
                0x00405134       0x14 ./../../../../BitCloud/lib/libBc_All_At91sam3s4c_Rf231_Gcc.a(macenvPib.o)
 .text.storeTransmitPower
                0x00405148       0x58 ./../../../../BitCloud/lib/libBc_All_At91sam3s4c_Rf231_Gcc.a(macenvPib.o)
 .text.macenvGetPhySymbolDuration
                0x004051a0       0x54 ./../../../../BitCloud/lib/libBc_All_At91sam3s4c_Rf231_Gcc.a(macenvPib.o)
                0x004051a0                macenvGetPhySymbolDuration
 .text.updateMaxFrameTxTime
                0x004051f4       0x24 ./../../../../BitCloud/lib/libBc_All_At91sam3s4c_Rf231_Gcc.a(macenvPib.o)
 .text.macenvResetPib
                0x00405218       0xb4 ./../../../../BitCloud/lib/libBc_All_At91sam3s4c_Rf231_Gcc.a(macenvPib.o)
                0x00405218                macenvResetPib
 .text.macenvConvertTransPersistTimeFromUnitsToMs
                0x004052cc       0x1a ./../../../../BitCloud/lib/libBc_All_At91sam3s4c_Rf231_Gcc.a(macenvPib.o)
                0x004052cc                macenvConvertTransPersistTimeFromUnitsToMs
 *fill*         0x004052e6        0x2 00
 .text.macenvSetPibAttr
                0x004052e8      0x1f4 ./../../../../BitCloud/lib/libBc_All_At91sam3s4c_Rf231_Gcc.a(macenvPib.o)
                0x004052e8                macenvSetPibAttr
 .text.macenvCalculateMaxFrameTotalWaitTimeInMs
                0x004054dc       0x64 ./../../../../BitCloud/lib/libBc_All_At91sam3s4c_Rf231_Gcc.a(macenvPib.o)
                0x004054dc                macenvCalculateMaxFrameTotalWaitTimeInMs
 .text.macenvCalculateResponceWaitTimeInMs
                0x00405540       0x24 ./../../../../BitCloud/lib/libBc_All_At91sam3s4c_Rf231_Gcc.a(macenvPib.o)
                0x00405540                macenvCalculateResponceWaitTimeInMs
 .text.macenvGetPibAttr
                0x00405564      0x1c0 ./../../../../BitCloud/lib/libBc_All_At91sam3s4c_Rf231_Gcc.a(macenvPib.o)
                0x00405564                macenvGetPibAttr
 .text.MAC_GetExtAddr
                0x00405724        0x8 ./../../../../BitCloud/lib/libBc_All_At91sam3s4c_Rf231_Gcc.a(macenvPib.o)
                0x00405724                MAC_GetExtAddr
 .text.MAC_SetExtAddr
                0x0040572c       0x10 ./../../../../BitCloud/lib/libBc_All_At91sam3s4c_Rf231_Gcc.a(macenvPib.o)
                0x0040572c                MAC_SetExtAddr
 .text.MAC_IsOwnExtAddr
                0x0040573c       0x20 ./../../../../BitCloud/lib/libBc_All_At91sam3s4c_Rf231_Gcc.a(macenvPib.o)
                0x0040573c                MAC_IsOwnExtAddr
 .text.MAC_GetOctetsTransmissionTimeInMs
                0x0040575c       0x1c ./../../../../BitCloud/lib/libBc_All_At91sam3s4c_Rf231_Gcc.a(macenvPib.o)
                0x0040575c                MAC_GetOctetsTransmissionTimeInMs
 .text.nwkAddressConflictIsIdle
                0x00405778       0x18 ./../../../../BitCloud/lib/libBc_All_At91sam3s4c_Rf231_Gcc.a(nwk.o)
 .text.nwkFindAddressMapEntryByExtAddr
                0x00405790       0x34 ./../../../../BitCloud/lib/libBc_All_At91sam3s4c_Rf231_Gcc.a(nwk.o)
 .text.nwkAddToAddressMap
                0x004057c4       0x54 ./../../../../BitCloud/lib/libBc_All_At91sam3s4c_Rf231_Gcc.a(nwk.o)
 .text.nwkFindAddressMapEntryByShortAddr
                0x00405818       0x28 ./../../../../BitCloud/lib/libBc_All_At91sam3s4c_Rf231_Gcc.a(nwk.o)
 .text.nwkDataReqIsIdle
                0x00405840       0x18 ./../../../../BitCloud/lib/libBc_All_At91sam3s4c_Rf231_Gcc.a(nwk.o)
 .text.nwkDiscoveryIsIdle
                0x00405858       0x18 ./../../../../BitCloud/lib/libBc_All_At91sam3s4c_Rf231_Gcc.a(nwk.o)
 .text.nwkEDScanIsIdle
                0x00405870       0x18 ./../../../../BitCloud/lib/libBc_All_At91sam3s4c_Rf231_Gcc.a(nwk.o)
 .text.nwkFormationIsIdle
                0x00405888       0x18 ./../../../../BitCloud/lib/libBc_All_At91sam3s4c_Rf231_Gcc.a(nwk.o)
 .text.nwkParseHeader
                0x004058a0       0x6a ./../../../../BitCloud/lib/libBc_All_At91sam3s4c_Rf231_Gcc.a(nwk.o)
 *fill*         0x0040590a        0x2 00
 .text.nwkSetDepth
                0x0040590c       0x10 ./../../../../BitCloud/lib/libBc_All_At91sam3s4c_Rf231_Gcc.a(nwk.o)
 .text.findFreeJoinIndObjFor
                0x0040591c       0x54 ./../../../../BitCloud/lib/libBc_All_At91sam3s4c_Rf231_Gcc.a(nwk.o)
 .text.nwkJoinIndIsIdle
                0x00405970       0x28 ./../../../../BitCloud/lib/libBc_All_At91sam3s4c_Rf231_Gcc.a(nwk.o)
 .text.nwkJoinReqIsIdle
                0x00405998       0x18 ./../../../../BitCloud/lib/libBc_All_At91sam3s4c_Rf231_Gcc.a(nwk.o)
 .text.nwkLeaveReqIsIdle
                0x004059b0       0x18 ./../../../../BitCloud/lib/libBc_All_At91sam3s4c_Rf231_Gcc.a(nwk.o)
 .text.nwkLinkStatusIsIdle
                0x004059c8       0x14 ./../../../../BitCloud/lib/libBc_All_At91sam3s4c_Rf231_Gcc.a(nwk.o)
 .text.nwkLoopbackIsIdle
                0x004059dc       0x18 ./../../../../BitCloud/lib/libBc_All_At91sam3s4c_Rf231_Gcc.a(nwk.o)
 .text.nwkGetOutgoingCost
                0x004059f4       0x24 ./../../../../BitCloud/lib/libBc_All_At91sam3s4c_Rf231_Gcc.a(nwk.o)
 .text.nwkClearNeighborTable
                0x00405a18       0x64 ./../../../../BitCloud/lib/libBc_All_At91sam3s4c_Rf231_Gcc.a(nwk.o)
 .text.nwkUpdateCapacityBits
                0x00405a7c       0x80 ./../../../../BitCloud/lib/libBc_All_At91sam3s4c_Rf231_Gcc.a(nwk.o)
 .text.nwkUpdateCapacityBitsInBeacon
                0x00405afc       0x50 ./../../../../BitCloud/lib/libBc_All_At91sam3s4c_Rf231_Gcc.a(nwk.o)
 .text.nwkUpdateBeaconPayload
                0x00405b4c       0x70 ./../../../../BitCloud/lib/libBc_All_At91sam3s4c_Rf231_Gcc.a(nwk.o)
 .text.nwkFreeNeighbor
                0x00405bbc       0x3c ./../../../../BitCloud/lib/libBc_All_At91sam3s4c_Rf231_Gcc.a(nwk.o)
 .text.nwkCostFromLqi
                0x00405bf8       0x2c ./../../../../BitCloud/lib/libBc_All_At91sam3s4c_Rf231_Gcc.a(nwk.o)
 .text.nwkInitLqiAndCostOfNeighbor
                0x00405c24       0x30 ./../../../../BitCloud/lib/libBc_All_At91sam3s4c_Rf231_Gcc.a(nwk.o)
 .text.nwkUpdateLqiAndCostOfNeighbor
                0x00405c54       0x40 ./../../../../BitCloud/lib/libBc_All_At91sam3s4c_Rf231_Gcc.a(nwk.o)
 .text.nwkFindPassiveAck
                0x00405c94       0x3c ./../../../../BitCloud/lib/libBc_All_At91sam3s4c_Rf231_Gcc.a(nwk.o)
 .text.nwkNewPassiveAck
                0x00405cd0       0xbc ./../../../../BitCloud/lib/libBc_All_At91sam3s4c_Rf231_Gcc.a(nwk.o)
 .text.nwkFreePassiveAck
                0x00405d8c       0x34 ./../../../../BitCloud/lib/libBc_All_At91sam3s4c_Rf231_Gcc.a(nwk.o)
 .text.nwkPermitJoiningIsIdle
                0x00405dc0       0x20 ./../../../../BitCloud/lib/libBc_All_At91sam3s4c_Rf231_Gcc.a(nwk.o)
 .text.nwkResetIsIdle
                0x00405de0       0x14 ./../../../../BitCloud/lib/libBc_All_At91sam3s4c_Rf231_Gcc.a(nwk.o)
 .text.nwkRouteDiscoveryIsIdle
                0x00405df4       0x14 ./../../../../BitCloud/lib/libBc_All_At91sam3s4c_Rf231_Gcc.a(nwk.o)
 .text.nwkFindRouteDiscoveryEntry
                0x00405e08       0x2c ./../../../../BitCloud/lib/libBc_All_At91sam3s4c_Rf231_Gcc.a(nwk.o)
 .text.nwkFreeRouteDiscoveryEntry
                0x00405e34       0x24 ./../../../../BitCloud/lib/libBc_All_At91sam3s4c_Rf231_Gcc.a(nwk.o)
 .text.nwkConfirmRouteRequestTx
                0x00405e58       0x34 ./../../../../BitCloud/lib/libBc_All_At91sam3s4c_Rf231_Gcc.a(nwk.o)
 .text.nwkRouteDiscoveryTableIsIdle
                0x00405e8c       0x14 ./../../../../BitCloud/lib/libBc_All_At91sam3s4c_Rf231_Gcc.a(nwk.o)
 .text.nwkDeleteNextHop
                0x00405ea0       0x34 ./../../../../BitCloud/lib/libBc_All_At91sam3s4c_Rf231_Gcc.a(nwk.o)
 .text.nwkFindRoutingEntry
                0x00405ed4       0x38 ./../../../../BitCloud/lib/libBc_All_At91sam3s4c_Rf231_Gcc.a(nwk.o)
 .text.nwkFreeRoutingEntry
                0x00405f0c       0x12 ./../../../../BitCloud/lib/libBc_All_At91sam3s4c_Rf231_Gcc.a(nwk.o)
 *fill*         0x00405f1e        0x2 00
 .text.nwkUpdateNextHop
                0x00405f20       0x88 ./../../../../BitCloud/lib/libBc_All_At91sam3s4c_Rf231_Gcc.a(nwk.o)
 .text.nwkStartRouterIsIdle
                0x00405fa8       0x18 ./../../../../BitCloud/lib/libBc_All_At91sam3s4c_Rf231_Gcc.a(nwk.o)
 .text.nwkSendRouteErrorConf
                0x00405fc0       0x10 ./../../../../BitCloud/lib/libBc_All_At91sam3s4c_Rf231_Gcc.a(nwk.o)
 .text.nwkSyncIsIdle
                0x00405fd0       0x18 ./../../../../BitCloud/lib/libBc_All_At91sam3s4c_Rf231_Gcc.a(nwk.o)
 .text.nwkTxDelayIsIdle
                0x00405fe8       0x14 ./../../../../BitCloud/lib/libBc_All_At91sam3s4c_Rf231_Gcc.a(nwk.o)
 .text.nwkReloadNibFromConfigServer
                0x00405ffc       0x68 ./../../../../BitCloud/lib/libBc_All_At91sam3s4c_Rf231_Gcc.a(nwk.o)
 .text.nwkSetLifeTimeOfNeighbor
                0x00406064       0x70 ./../../../../BitCloud/lib/libBc_All_At91sam3s4c_Rf231_Gcc.a(nwk.o)
 .text.nwkLinkStatusInd
                0x004060d4      0x208 ./../../../../BitCloud/lib/libBc_All_At91sam3s4c_Rf231_Gcc.a(nwk.o)
 .text.nwkAllocPacket
                0x004062dc       0x88 ./../../../../BitCloud/lib/libBc_All_At91sam3s4c_Rf231_Gcc.a(nwk.o)
 .text.nwkAllocInputPacket
                0x00406364       0x1c ./../../../../BitCloud/lib/libBc_All_At91sam3s4c_Rf231_Gcc.a(nwk.o)
 .text.SYS_GetRandomNumber
                0x00406380       0x18 ./../../../../BitCloud/lib/libBc_All_At91sam3s4c_Rf231_Gcc.a(nwk.o)
 .text.nwkFindDeviceToJoin
                0x00406398       0xf4 ./../../../../BitCloud/lib/libBc_All_At91sam3s4c_Rf231_Gcc.a(nwk.o)
 .text.nwkStartLinkStatusTimer
                0x0040648c       0x14 ./../../../../BitCloud/lib/libBc_All_At91sam3s4c_Rf231_Gcc.a(nwk.o)
 .text.nwkConfirmLinkStatusTx
                0x004064a0       0x14 ./../../../../BitCloud/lib/libBc_All_At91sam3s4c_Rf231_Gcc.a(nwk.o)
 .text.nwkStartAgeTimerOfNeighborTable
                0x004064b4       0x24 ./../../../../BitCloud/lib/libBc_All_At91sam3s4c_Rf231_Gcc.a(nwk.o)
 .text.freeJoinIndObj
                0x004064d8        0x8 ./../../../../BitCloud/lib/libBc_All_At91sam3s4c_Rf231_Gcc.a(nwk.o)
 .text.nwkJoinIndTaskHandler
                0x004064e0       0xc8 ./../../../../BitCloud/lib/libBc_All_At91sam3s4c_Rf231_Gcc.a(nwk.o)
 .text.nwkPrepareCommonFrame
                0x004065a8       0x4c ./../../../../BitCloud/lib/libBc_All_At91sam3s4c_Rf231_Gcc.a(nwk.o)
 .text.nwkAllocRouteDiscoveryEntry
                0x004065f4       0x78 ./../../../../BitCloud/lib/libBc_All_At91sam3s4c_Rf231_Gcc.a(nwk.o)
 .text.nwkPrepareLeaveChildTx
                0x0040666c       0xd4 ./../../../../BitCloud/lib/libBc_All_At91sam3s4c_Rf231_Gcc.a(nwk.o)
 .text.nwkPrepareLeaveItselfTx
                0x00406740       0xa4 ./../../../../BitCloud/lib/libBc_All_At91sam3s4c_Rf231_Gcc.a(nwk.o)
 .text.nwkPrepareJoinRespTx
                0x004067e4       0xf4 ./../../../../BitCloud/lib/libBc_All_At91sam3s4c_Rf231_Gcc.a(nwk.o)
 .text.nwkPrepareJoinReqTx
                0x004068d8       0x98 ./../../../../BitCloud/lib/libBc_All_At91sam3s4c_Rf231_Gcc.a(nwk.o)
 .text.nwkPrepareLinkStatusTx
                0x00406970      0x158 ./../../../../BitCloud/lib/libBc_All_At91sam3s4c_Rf231_Gcc.a(nwk.o)
 .text.nwkPermitJoinTimerFired
                0x00406ac8       0x2c ./../../../../BitCloud/lib/libBc_All_At91sam3s4c_Rf231_Gcc.a(nwk.o)
 .text.nwkResetRouteDiscoveryTable
                0x00406af4       0x64 ./../../../../BitCloud/lib/libBc_All_At91sam3s4c_Rf231_Gcc.a(nwk.o)
 .text.nwkPostTask
                0x00406b58       0x34 ./../../../../BitCloud/lib/libBc_All_At91sam3s4c_Rf231_Gcc.a(nwk.o)
 .text.nwkEDScanMacEDScanConf
                0x00406b8c       0x2c ./../../../../BitCloud/lib/libBc_All_At91sam3s4c_Rf231_Gcc.a(nwk.o)
 .text.nwkFormationMacRxEnableConf
                0x00406bb8       0x1c ./../../../../BitCloud/lib/libBc_All_At91sam3s4c_Rf231_Gcc.a(nwk.o)
 .text.nwkDiscoveryMacActiveScanConf
                0x00406bd4       0x30 ./../../../../BitCloud/lib/libBc_All_At91sam3s4c_Rf231_Gcc.a(nwk.o)
 .text.nwkPermitJoiningMacSetConf
                0x00406c04       0x30 ./../../../../BitCloud/lib/libBc_All_At91sam3s4c_Rf231_Gcc.a(nwk.o)
 .text.nwkStartRouterMacStartConf
                0x00406c34       0x1c ./../../../../BitCloud/lib/libBc_All_At91sam3s4c_Rf231_Gcc.a(nwk.o)
 .text.NWK_JoinConf
                0x00406c50       0x38 ./../../../../BitCloud/lib/libBc_All_At91sam3s4c_Rf231_Gcc.a(nwk.o)
 .text.nwkStatusConf
                0x00406c88       0x14 ./../../../../BitCloud/lib/libBc_All_At91sam3s4c_Rf231_Gcc.a(nwk.o)
 .text.nwkRouteDiscoveryTaskHandler
                0x00406c9c       0xb4 ./../../../../BitCloud/lib/libBc_All_At91sam3s4c_Rf231_Gcc.a(nwk.o)
 .text.nwkFormationMacActiveScanConf
                0x00406d50      0x1bc ./../../../../BitCloud/lib/libBc_All_At91sam3s4c_Rf231_Gcc.a(nwk.o)
 .text.nwkFormationMacStartConf
                0x00406f0c       0x44 ./../../../../BitCloud/lib/libBc_All_At91sam3s4c_Rf231_Gcc.a(nwk.o)
 .text.nwkFormationTaskHandler
                0x00406f50      0x130 ./../../../../BitCloud/lib/libBc_All_At91sam3s4c_Rf231_Gcc.a(nwk.o)
 .text.nwkFormationMacEDScanConf
                0x00407080       0xa4 ./../../../../BitCloud/lib/libBc_All_At91sam3s4c_Rf231_Gcc.a(nwk.o)
 .text.nwkFormationMacSetConf
                0x00407124       0xf8 ./../../../../BitCloud/lib/libBc_All_At91sam3s4c_Rf231_Gcc.a(nwk.o)
 .text.nwkLoopbackTaskHandler
                0x0040721c       0xb8 ./../../../../BitCloud/lib/libBc_All_At91sam3s4c_Rf231_Gcc.a(nwk.o)
 .text.nwkBroadcastForMe
                0x004072d4       0x54 ./../../../../BitCloud/lib/libBc_All_At91sam3s4c_Rf231_Gcc.a(nwk.o)
 .text.nwkIsJoiningForbidden
                0x00407328       0x68 ./../../../../BitCloud/lib/libBc_All_At91sam3s4c_Rf231_Gcc.a(nwk.o)
 .text.nwkIsPassiveAckDone.isra.4
                0x00407390       0x38 ./../../../../BitCloud/lib/libBc_All_At91sam3s4c_Rf231_Gcc.a(nwk.o)
 .text.nwkTxDelayReq
                0x004073c8      0x1c4 ./../../../../BitCloud/lib/libBc_All_At91sam3s4c_Rf231_Gcc.a(nwk.o)
 .text.nwkEDScanTaskHandler
                0x0040758c       0xa4 ./../../../../BitCloud/lib/libBc_All_At91sam3s4c_Rf231_Gcc.a(nwk.o)
 .text.nwkDiscoveryTaskHandler
                0x00407630       0xac ./../../../../BitCloud/lib/libBc_All_At91sam3s4c_Rf231_Gcc.a(nwk.o)
 .text.nwkDataConf
                0x004076dc       0x40 ./../../../../BitCloud/lib/libBc_All_At91sam3s4c_Rf231_Gcc.a(nwk.o)
 .text.nwkConfirmDataTx
                0x0040771c       0x1e ./../../../../BitCloud/lib/libBc_All_At91sam3s4c_Rf231_Gcc.a(nwk.o)
 *fill*         0x0040773a        0x2 00
 .text.nwkRouteDiscoveryTableTimerFired
                0x0040773c       0x4c ./../../../../BitCloud/lib/libBc_All_At91sam3s4c_Rf231_Gcc.a(nwk.o)
 .text.nwkPermitJoiningTaskHandler
                0x00407788       0xb0 ./../../../../BitCloud/lib/libBc_All_At91sam3s4c_Rf231_Gcc.a(nwk.o)
 .text.nwkResetNeighborTable
                0x00407838       0x7c ./../../../../BitCloud/lib/libBc_All_At91sam3s4c_Rf231_Gcc.a(nwk.o)
 .text.nwkStartRouterTaskHandler
                0x004078b4       0xc8 ./../../../../BitCloud/lib/libBc_All_At91sam3s4c_Rf231_Gcc.a(nwk.o)
 .text.nwkConfirmLeaveItselfTx
                0x0040797c       0x40 ./../../../../BitCloud/lib/libBc_All_At91sam3s4c_Rf231_Gcc.a(nwk.o)
 .text.nwkResetTaskHandler
                0x004079bc       0x50 ./../../../../BitCloud/lib/libBc_All_At91sam3s4c_Rf231_Gcc.a(nwk.o)
 .text.nwkSyncTaskHandler
                0x00407a0c       0x9c ./../../../../BitCloud/lib/libBc_All_At91sam3s4c_Rf231_Gcc.a(nwk.o)
 .text.nwkSyncMacPollConf
                0x00407aa8       0x5c ./../../../../BitCloud/lib/libBc_All_At91sam3s4c_Rf231_Gcc.a(nwk.o)
 .text.nwkAssociate
                0x00407b04       0x84 ./../../../../BitCloud/lib/libBc_All_At91sam3s4c_Rf231_Gcc.a(nwk.o)
 .text.MAC_AssociateConf
                0x00407b88       0xc0 ./../../../../BitCloud/lib/libBc_All_At91sam3s4c_Rf231_Gcc.a(nwk.o)
 .text.nwkGetSuitableParent
                0x00407c48       0x68 ./../../../../BitCloud/lib/libBc_All_At91sam3s4c_Rf231_Gcc.a(nwk.o)
 .text.nwkJoinReqMacSetConf
                0x00407cb0      0x170 ./../../../../BitCloud/lib/libBc_All_At91sam3s4c_Rf231_Gcc.a(nwk.o)
 .text.macLatencyFired
                0x00407e20        0x4 ./../../../../BitCloud/lib/libBc_All_At91sam3s4c_Rf231_Gcc.a(nwk.o)
 .text.nwkConfirmJoinReqTx
                0x00407e24       0x4c ./../../../../BitCloud/lib/libBc_All_At91sam3s4c_Rf231_Gcc.a(nwk.o)
 .text.responseWaitTimerFired
                0x00407e70       0x50 ./../../../../BitCloud/lib/libBc_All_At91sam3s4c_Rf231_Gcc.a(nwk.o)
 .text.nwkJoinReqMacPollConf
                0x00407ec0       0x50 ./../../../../BitCloud/lib/libBc_All_At91sam3s4c_Rf231_Gcc.a(nwk.o)
 .text.nwkRejoinResponseFrameInd
                0x00407f10      0x164 ./../../../../BitCloud/lib/libBc_All_At91sam3s4c_Rf231_Gcc.a(nwk.o)
 .text.nwkAllocOutputPacket.constprop.55
                0x00408074       0x30 ./../../../../BitCloud/lib/libBc_All_At91sam3s4c_Rf231_Gcc.a(nwk.o)
 .text.nwkTryToProcessCommandReq
                0x004080a4       0x34 ./../../../../BitCloud/lib/libBc_All_At91sam3s4c_Rf231_Gcc.a(nwk.o)
 .text.nwkCommandReq
                0x004080d8       0x18 ./../../../../BitCloud/lib/libBc_All_At91sam3s4c_Rf231_Gcc.a(nwk.o)
 .text.nwkConfirmNetworkStatusTx
                0x004080f0       0x4c ./../../../../BitCloud/lib/libBc_All_At91sam3s4c_Rf231_Gcc.a(nwk.o)
 .text.nwkLinkStatusTimerFired
                0x0040813c       0x1c ./../../../../BitCloud/lib/libBc_All_At91sam3s4c_Rf231_Gcc.a(nwk.o)
 .text.nwkRejoinCmdPrepareAndSend
                0x00408158       0x34 ./../../../../BitCloud/lib/libBc_All_At91sam3s4c_Rf231_Gcc.a(nwk.o)
 .text.nwkJoinReqMacRxEnableConf
                0x0040818c       0x74 ./../../../../BitCloud/lib/libBc_All_At91sam3s4c_Rf231_Gcc.a(nwk.o)
 .text.nwkJoinReqMacGetConf
                0x00408200       0x30 ./../../../../BitCloud/lib/libBc_All_At91sam3s4c_Rf231_Gcc.a(nwk.o)
 .text.nwkSendAddressConflictNwkStatus.constprop.53
                0x00408230       0x74 ./../../../../BitCloud/lib/libBc_All_At91sam3s4c_Rf231_Gcc.a(nwk.o)
 .text.nwkAddressConflictMacSetConf
                0x004082a4       0x44 ./../../../../BitCloud/lib/libBc_All_At91sam3s4c_Rf231_Gcc.a(nwk.o)
 .text.nwkRemoveAllChildren.constprop.54
                0x004082e8       0x9c ./../../../../BitCloud/lib/libBc_All_At91sam3s4c_Rf231_Gcc.a(nwk.o)
 .text.nwkFreePacket
                0x00408384       0x54 ./../../../../BitCloud/lib/libBc_All_At91sam3s4c_Rf231_Gcc.a(nwk.o)
 .text.nwkSendRouteErrorStatus.constprop.56
                0x004083d8       0x68 ./../../../../BitCloud/lib/libBc_All_At91sam3s4c_Rf231_Gcc.a(nwk.o)
 .text.nwkTxConf
                0x00408440      0x168 ./../../../../BitCloud/lib/libBc_All_At91sam3s4c_Rf231_Gcc.a(nwk.o)
 .text.nwkProcessDelayStatus
                0x004085a8       0xb4 ./../../../../BitCloud/lib/libBc_All_At91sam3s4c_Rf231_Gcc.a(nwk.o)
 .text.MAC_DataConf
                0x0040865c       0x20 ./../../../../BitCloud/lib/libBc_All_At91sam3s4c_Rf231_Gcc.a(nwk.o)
 .text.nwkLeaveReqMacResetConf
                0x0040867c       0xd0 ./../../../../BitCloud/lib/libBc_All_At91sam3s4c_Rf231_Gcc.a(nwk.o)
 .text.nwkTransmitOutputPacket.isra.25
                0x0040874c       0x3c ./../../../../BitCloud/lib/libBc_All_At91sam3s4c_Rf231_Gcc.a(nwk.o)
 .text.nwkSendDiscoveryCommand
                0x00408788       0x5c ./../../../../BitCloud/lib/libBc_All_At91sam3s4c_Rf231_Gcc.a(nwk.o)
 .text.nwkRouteDiscoveryTableTaskHandler
                0x004087e4       0x80 ./../../../../BitCloud/lib/libBc_All_At91sam3s4c_Rf231_Gcc.a(nwk.o)
 .text.nwkTxDelayTimerFired
                0x00408864       0x58 ./../../../../BitCloud/lib/libBc_All_At91sam3s4c_Rf231_Gcc.a(nwk.o)
 .text.nwkMeshRouteDiscoveryConf
                0x004088bc       0x54 ./../../../../BitCloud/lib/libBc_All_At91sam3s4c_Rf231_Gcc.a(nwk.o)
 .text.NWK_GetShortAddr
                0x00408910        0xc ./../../../../BitCloud/lib/libBc_All_At91sam3s4c_Rf231_Gcc.a(nwk.o)
                0x00408910                NWK_GetShortAddr
 .text.NWK_IsStaticAddressingMode
                0x0040891c        0xc ./../../../../BitCloud/lib/libBc_All_At91sam3s4c_Rf231_Gcc.a(nwk.o)
                0x0040891c                NWK_IsStaticAddressingMode
 .text.NWK_RemoveFromAddressMap
                0x00408928       0x12 ./../../../../BitCloud/lib/libBc_All_At91sam3s4c_Rf231_Gcc.a(nwk.o)
                0x00408928                NWK_RemoveFromAddressMap
 *fill*         0x0040893a        0x2 00
 .text.NWK_NetworkDiscoveryReq
                0x0040893c       0x30 ./../../../../BitCloud/lib/libBc_All_At91sam3s4c_Rf231_Gcc.a(nwk.o)
                0x0040893c                NWK_NetworkDiscoveryReq
 .text.MAC_BeaconNotifyInd
                0x0040896c      0x400 ./../../../../BitCloud/lib/libBc_All_At91sam3s4c_Rf231_Gcc.a(nwk.o)
                0x0040896c                MAC_BeaconNotifyInd
 .text.NWK_EDScanReq
                0x00408d6c       0x30 ./../../../../BitCloud/lib/libBc_All_At91sam3s4c_Rf231_Gcc.a(nwk.o)
                0x00408d6c                NWK_EDScanReq
 .text.NWK_NetworkFormationReq
                0x00408d9c       0x30 ./../../../../BitCloud/lib/libBc_All_At91sam3s4c_Rf231_Gcc.a(nwk.o)
                0x00408d9c                NWK_NetworkFormationReq
 .text.NWK_IsGroupMember
                0x00408dcc       0x34 ./../../../../BitCloud/lib/libBc_All_At91sam3s4c_Rf231_Gcc.a(nwk.o)
                0x00408dcc                NWK_IsGroupMember
 .text.nwkRetransmitInputPacket
                0x00408e00       0xe8 ./../../../../BitCloud/lib/libBc_All_At91sam3s4c_Rf231_Gcc.a(nwk.o)
 .text.NWK_DataResp
                0x00408ee8       0x14 ./../../../../BitCloud/lib/libBc_All_At91sam3s4c_Rf231_Gcc.a(nwk.o)
                0x00408ee8                NWK_DataResp
 .text.unlikely.nwkRxIndication
                0x00408efc      0x1f4 ./../../../../BitCloud/lib/libBc_All_At91sam3s4c_Rf231_Gcc.a(nwk.o)
 .text.unlikely.nwkRxRetransmit
                0x004090f0       0xb4 ./../../../../BitCloud/lib/libBc_All_At91sam3s4c_Rf231_Gcc.a(nwk.o)
 .text.NWK_ResetGroups
                0x004091a4       0x40 ./../../../../BitCloud/lib/libBc_All_At91sam3s4c_Rf231_Gcc.a(nwk.o)
                0x004091a4                NWK_ResetGroups
 .text.nwkResetMacResetConf
                0x004091e4      0x340 ./../../../../BitCloud/lib/libBc_All_At91sam3s4c_Rf231_Gcc.a(nwk.o)
 .text.NWK_GetParentShortAddr
                0x00409524        0xc ./../../../../BitCloud/lib/libBc_All_At91sam3s4c_Rf231_Gcc.a(nwk.o)
                0x00409524                NWK_GetParentShortAddr
 .text.NWK_GetPanId
                0x00409530        0xc ./../../../../BitCloud/lib/libBc_All_At91sam3s4c_Rf231_Gcc.a(nwk.o)
                0x00409530                NWK_GetPanId
 .text.NWK_GetExtPanId
                0x0040953c       0x10 ./../../../../BitCloud/lib/libBc_All_At91sam3s4c_Rf231_Gcc.a(nwk.o)
                0x0040953c                NWK_GetExtPanId
 .text.NWK_GetDeviceType
                0x0040954c        0xc ./../../../../BitCloud/lib/libBc_All_At91sam3s4c_Rf231_Gcc.a(nwk.o)
                0x0040954c                NWK_GetDeviceType
 .text.NWK_GetLogicalChannel
                0x00409558        0xc ./../../../../BitCloud/lib/libBc_All_At91sam3s4c_Rf231_Gcc.a(nwk.o)
                0x00409558                NWK_GetLogicalChannel
 .text.NWK_SetLogicalChannel
                0x00409564        0xc ./../../../../BitCloud/lib/libBc_All_At91sam3s4c_Rf231_Gcc.a(nwk.o)
                0x00409564                NWK_SetLogicalChannel
 .text.NWK_GetBroadcastDeliveryTime
                0x00409570        0xc ./../../../../BitCloud/lib/libBc_All_At91sam3s4c_Rf231_Gcc.a(nwk.o)
                0x00409570                NWK_GetBroadcastDeliveryTime
 .text.NWK_GetManagerAddr
                0x0040957c        0xc ./../../../../BitCloud/lib/libBc_All_At91sam3s4c_Rf231_Gcc.a(nwk.o)
                0x0040957c                NWK_GetManagerAddr
 .text.NWK_SetManagerAddr
                0x00409588        0xc ./../../../../BitCloud/lib/libBc_All_At91sam3s4c_Rf231_Gcc.a(nwk.o)
                0x00409588                NWK_SetManagerAddr
 .text.NWK_SetUpdateId
                0x00409594        0xc ./../../../../BitCloud/lib/libBc_All_At91sam3s4c_Rf231_Gcc.a(nwk.o)
                0x00409594                NWK_SetUpdateId
 .text.NWK_GetTransmitCouner
                0x004095a0        0xc ./../../../../BitCloud/lib/libBc_All_At91sam3s4c_Rf231_Gcc.a(nwk.o)
                0x004095a0                NWK_GetTransmitCouner
 .text.NWK_GetTransmitFailureCounter
                0x004095ac        0xc ./../../../../BitCloud/lib/libBc_All_At91sam3s4c_Rf231_Gcc.a(nwk.o)
                0x004095ac                NWK_GetTransmitFailureCounter
 .text.NWK_ResetTransmitCounters
                0x004095b8       0x10 ./../../../../BitCloud/lib/libBc_All_At91sam3s4c_Rf231_Gcc.a(nwk.o)
                0x004095b8                NWK_ResetTransmitCounters
 .text.NWK_JoinReq
                0x004095c8       0x28 ./../../../../BitCloud/lib/libBc_All_At91sam3s4c_Rf231_Gcc.a(nwk.o)
                0x004095c8                NWK_JoinReq
 .text.NWK_RemoveNeighbor
                0x004095f0       0x4c ./../../../../BitCloud/lib/libBc_All_At91sam3s4c_Rf231_Gcc.a(nwk.o)
                0x004095f0                NWK_RemoveNeighbor
 .text.neighborTimerFired
                0x0040963c       0x50 ./../../../../BitCloud/lib/libBc_All_At91sam3s4c_Rf231_Gcc.a(nwk.o)
 .text.NWK_LeaveReq
                0x0040968c       0x30 ./../../../../BitCloud/lib/libBc_All_At91sam3s4c_Rf231_Gcc.a(nwk.o)
                0x0040968c                NWK_LeaveReq
 .text.NWK_LoopbackTxReq
                0x004096bc       0x30 ./../../../../BitCloud/lib/libBc_All_At91sam3s4c_Rf231_Gcc.a(nwk.o)
                0x004096bc                NWK_LoopbackTxReq
 .text.nwkDataConfTaskHandler
                0x004096ec       0x48 ./../../../../BitCloud/lib/libBc_All_At91sam3s4c_Rf231_Gcc.a(nwk.o)
 .text.NWK_DataReq
                0x00409734      0x1d0 ./../../../../BitCloud/lib/libBc_All_At91sam3s4c_Rf231_Gcc.a(nwk.o)
                0x00409734                NWK_DataReq
 .text.NWK_FindNeighborByShortAddr
                0x00409904       0x28 ./../../../../BitCloud/lib/libBc_All_At91sam3s4c_Rf231_Gcc.a(nwk.o)
                0x00409904                NWK_FindNeighborByShortAddr
 .text.nwkAllocNonConflAddr
                0x0040992c       0xa0 ./../../../../BitCloud/lib/libBc_All_At91sam3s4c_Rf231_Gcc.a(nwk.o)
 .text.NWK_NetworkDiscoveryConf
                0x004099cc       0x90 ./../../../../BitCloud/lib/libBc_All_At91sam3s4c_Rf231_Gcc.a(nwk.o)
 .text.nwkJoinReqTaskHandler
                0x00409a5c      0x148 ./../../../../BitCloud/lib/libBc_All_At91sam3s4c_Rf231_Gcc.a(nwk.o)
 .text.nwkAllocateShortAddr.isra.45
                0x00409ba4       0x34 ./../../../../BitCloud/lib/libBc_All_At91sam3s4c_Rf231_Gcc.a(nwk.o)
 .text.nwkResolveAddressConflict
                0x00409bd8      0x174 ./../../../../BitCloud/lib/libBc_All_At91sam3s4c_Rf231_Gcc.a(nwk.o)
 .text.nwkAddressConflictTaskHandler
                0x00409d4c       0x8c ./../../../../BitCloud/lib/libBc_All_At91sam3s4c_Rf231_Gcc.a(nwk.o)
 .text.nwkStatusFrameInd
                0x00409dd8       0x48 ./../../../../BitCloud/lib/libBc_All_At91sam3s4c_Rf231_Gcc.a(nwk.o)
 .text.nwkAddChild
                0x00409e20      0x244 ./../../../../BitCloud/lib/libBc_All_At91sam3s4c_Rf231_Gcc.a(nwk.o)
 .text.nwkRejoinRequestFrameInd
                0x0040a064      0x110 ./../../../../BitCloud/lib/libBc_All_At91sam3s4c_Rf231_Gcc.a(nwk.o)
 .text.MAC_AssociateInd
                0x0040a174       0x98 ./../../../../BitCloud/lib/libBc_All_At91sam3s4c_Rf231_Gcc.a(nwk.o)
                0x0040a174                MAC_AssociateInd
 .text.nwkGetNextHop
                0x0040a20c      0x1c4 ./../../../../BitCloud/lib/libBc_All_At91sam3s4c_Rf231_Gcc.a(nwk.o)
 .text.nwkProcessRouteRequest
                0x0040a3d0      0x198 ./../../../../BitCloud/lib/libBc_All_At91sam3s4c_Rf231_Gcc.a(nwk.o)
 .text.NWK_GetExtByShortAddress
                0x0040a568       0x3c ./../../../../BitCloud/lib/libBc_All_At91sam3s4c_Rf231_Gcc.a(nwk.o)
                0x0040a568                NWK_GetExtByShortAddress
 .text.nwkPrepareRouteRequestTx
                0x0040a5a4      0x118 ./../../../../BitCloud/lib/libBc_All_At91sam3s4c_Rf231_Gcc.a(nwk.o)
 .text.nwkPrepareNetworkStatusTx
                0x0040a6bc      0x130 ./../../../../BitCloud/lib/libBc_All_At91sam3s4c_Rf231_Gcc.a(nwk.o)
 .text.nwkPrepareRouteReplyTx
                0x0040a7ec      0x244 ./../../../../BitCloud/lib/libBc_All_At91sam3s4c_Rf231_Gcc.a(nwk.o)
 .text.NWK_FindNeighborByExtAddr
                0x0040aa30       0x34 ./../../../../BitCloud/lib/libBc_All_At91sam3s4c_Rf231_Gcc.a(nwk.o)
                0x0040aa30                NWK_FindNeighborByExtAddr
 .text.nwkLeaveTaskHandler
                0x0040aa64       0xf8 ./../../../../BitCloud/lib/libBc_All_At91sam3s4c_Rf231_Gcc.a(nwk.o)
 .text.nwkConfirmLeaveChildTx
                0x0040ab5c       0x60 ./../../../../BitCloud/lib/libBc_All_At91sam3s4c_Rf231_Gcc.a(nwk.o)
 .text.nwkConfirmJoinRespTx
                0x0040abbc       0x46 ./../../../../BitCloud/lib/libBc_All_At91sam3s4c_Rf231_Gcc.a(nwk.o)
 .text.nwkConfirmAddrConflictJoinRespTx
                0x0040ac02       0x22 ./../../../../BitCloud/lib/libBc_All_At91sam3s4c_Rf231_Gcc.a(nwk.o)
 .text.nwkLeaveFrameInd
                0x0040ac24       0xd8 ./../../../../BitCloud/lib/libBc_All_At91sam3s4c_Rf231_Gcc.a(nwk.o)
 .text.nwkJoinIndMacCommStatusInd
                0x0040acfc       0x3e ./../../../../BitCloud/lib/libBc_All_At91sam3s4c_Rf231_Gcc.a(nwk.o)
 *fill*         0x0040ad3a        0x2 00
 .text.NWK_GetShortByExtAddress
                0x0040ad3c       0x38 ./../../../../BitCloud/lib/libBc_All_At91sam3s4c_Rf231_Gcc.a(nwk.o)
                0x0040ad3c                NWK_GetShortByExtAddress
 .text.NWK_LinkShortAndExtAddress
                0x0040ad74       0x6e ./../../../../BitCloud/lib/libBc_All_At91sam3s4c_Rf231_Gcc.a(nwk.o)
                0x0040ad74                NWK_LinkShortAndExtAddress
 *fill*         0x0040ade2        0x2 00
 .text.nwkRouteReplyFrameInd
                0x0040ade4      0x1b8 ./../../../../BitCloud/lib/libBc_All_At91sam3s4c_Rf231_Gcc.a(nwk.o)
 .text.nwkRouteRequestFrameInd
                0x0040af9c       0xdc ./../../../../BitCloud/lib/libBc_All_At91sam3s4c_Rf231_Gcc.a(nwk.o)
 .text.NWK_GetNeighborTable
                0x0040b078        0x8 ./../../../../BitCloud/lib/libBc_All_At91sam3s4c_Rf231_Gcc.a(nwk.o)
                0x0040b078                NWK_GetNeighborTable
 .text.NWK_GetNeighborsLqi
                0x0040b080       0x1c ./../../../../BitCloud/lib/libBc_All_At91sam3s4c_Rf231_Gcc.a(nwk.o)
                0x0040b080                NWK_GetNeighborsLqi
 .text.NWK_GetNeighborsRssi
                0x0040b09c       0x1c ./../../../../BitCloud/lib/libBc_All_At91sam3s4c_Rf231_Gcc.a(nwk.o)
                0x0040b09c                NWK_GetNeighborsRssi
 .text.NWK_IsKnownChild
                0x0040b0b8       0x1e ./../../../../BitCloud/lib/libBc_All_At91sam3s4c_Rf231_Gcc.a(nwk.o)
                0x0040b0b8                NWK_IsKnownChild
 .text.MAC_OrphanInd
                0x0040b0d6        0x2 ./../../../../BitCloud/lib/libBc_All_At91sam3s4c_Rf231_Gcc.a(nwk.o)
                0x0040b0d6                MAC_OrphanInd
 .text.NWK_PermitJoiningReq
                0x0040b0d8       0x3c ./../../../../BitCloud/lib/libBc_All_At91sam3s4c_Rf231_Gcc.a(nwk.o)
                0x0040b0d8                NWK_PermitJoiningReq
 .text.NWK_ResetReq
                0x0040b114       0x28 ./../../../../BitCloud/lib/libBc_All_At91sam3s4c_Rf231_Gcc.a(nwk.o)
                0x0040b114                NWK_ResetReq
 .text.NWK_Init
                0x0040b13c       0x2c ./../../../../BitCloud/lib/libBc_All_At91sam3s4c_Rf231_Gcc.a(nwk.o)
                0x0040b13c                NWK_Init
 .text.NWK_GatherPowerFailureInfo
                0x0040b168       0x10 ./../../../../BitCloud/lib/libBc_All_At91sam3s4c_Rf231_Gcc.a(nwk.o)
                0x0040b168                NWK_GatherPowerFailureInfo
 .text.NWK_RouteDiscoveryReq
                0x0040b178       0x34 ./../../../../BitCloud/lib/libBc_All_At91sam3s4c_Rf231_Gcc.a(nwk.o)
                0x0040b178                NWK_RouteDiscoveryReq
 .text.nwkTxTaskHandler
                0x0040b1ac      0x160 ./../../../../BitCloud/lib/libBc_All_At91sam3s4c_Rf231_Gcc.a(nwk.o)
 .text.MAC_DataInd
                0x0040b30c      0x454 ./../../../../BitCloud/lib/libBc_All_At91sam3s4c_Rf231_Gcc.a(nwk.o)
                0x0040b30c                MAC_DataInd
 .text.NWK_StartRouterReq
                0x0040b760       0x2c ./../../../../BitCloud/lib/libBc_All_At91sam3s4c_Rf231_Gcc.a(nwk.o)
                0x0040b760                NWK_StartRouterReq
 .text.NWK_IsActiveTransaction
                0x0040b78c       0x38 ./../../../../BitCloud/lib/libBc_All_At91sam3s4c_Rf231_Gcc.a(nwk.o)
                0x0040b78c                NWK_IsActiveTransaction
 .text.NWK_LaunchActivities
                0x0040b7c4       0x20 ./../../../../BitCloud/lib/libBc_All_At91sam3s4c_Rf231_Gcc.a(nwk.o)
                0x0040b7c4                NWK_LaunchActivities
 .text.NWK_StopActivities
                0x0040b7e4       0x34 ./../../../../BitCloud/lib/libBc_All_At91sam3s4c_Rf231_Gcc.a(nwk.o)
                0x0040b7e4                NWK_StopActivities
 .text.NWK_DeviceIsAbleToOperateInNetwork
                0x0040b818       0x18 ./../../../../BitCloud/lib/libBc_All_At91sam3s4c_Rf231_Gcc.a(nwk.o)
                0x0040b818                NWK_DeviceIsAbleToOperateInNetwork
 .text.NWK_SyncReq
                0x0040b830       0x2c ./../../../../BitCloud/lib/libBc_All_At91sam3s4c_Rf231_Gcc.a(nwk.o)
                0x0040b830                NWK_SyncReq
 .text.MAC_PollInd
                0x0040b85c       0x38 ./../../../../BitCloud/lib/libBc_All_At91sam3s4c_Rf231_Gcc.a(nwk.o)
                0x0040b85c                MAC_PollInd
 .text.MAC_SyncLossInd
                0x0040b894        0x2 ./../../../../BitCloud/lib/libBc_All_At91sam3s4c_Rf231_Gcc.a(nwk.o)
                0x0040b894                MAC_SyncLossInd
 *fill*         0x0040b896        0x2 00
 .text.NWK_TaskHandler
                0x0040b898       0x70 ./../../../../BitCloud/lib/libBc_All_At91sam3s4c_Rf231_Gcc.a(nwk.o)
                0x0040b898                NWK_TaskHandler
 .text.NWK_GetUnicastDeliveryTime
                0x0040b908       0x34 ./../../../../BitCloud/lib/libBc_All_At91sam3s4c_Rf231_Gcc.a(nwk.o)
                0x0040b908                NWK_GetUnicastDeliveryTime
 .text.phyDispatcheRfInterrupt
                0x0040b93c      0x278 ./../../../../BitCloud/lib/libBc_All_At91sam3s4c_Rf231_Gcc.a(phyRfIrqDispatcher.o)
                0x0040b93c                phyDispatcheRfInterrupt
 .text.phySetRTimerSource
                0x0040bbb4       0x10 ./../../../../BitCloud/lib/libBc_All_At91sam3s4c_Rf231_Gcc.a(phyRtimerIrqDispatcher.o)
                0x0040bbb4                phySetRTimerSource
 .text.phyDispatcheRTimerEvent
                0x0040bbc4       0xf0 ./../../../../BitCloud/lib/libBc_All_At91sam3s4c_Rf231_Gcc.a(phyRtimerIrqDispatcher.o)
                0x0040bbc4                phyDispatcheRTimerEvent
 .text.phyRxTxSwitcher
                0x0040bcb4       0x40 ./../../../../BitCloud/lib/libBc_All_At91sam3s4c_Rf231_Gcc.a(phyRxTxIndicator.o)
                0x0040bcb4                phyRxTxSwitcher
 .text.phyRxTxSwitcherOn
                0x0040bcf4        0x6 ./../../../../BitCloud/lib/libBc_All_At91sam3s4c_Rf231_Gcc.a(phyRxTxIndicator.o)
                0x0040bcf4                phyRxTxSwitcherOn
 .text.phyRxTxSwitcherOff
                0x0040bcfa        0x6 ./../../../../BitCloud/lib/libBc_All_At91sam3s4c_Rf231_Gcc.a(phyRxTxIndicator.o)
                0x0040bcfa                phyRxTxSwitcherOff
 .text.deleteHeadQueueElem
                0x0040bd00        0xc ./../../../../BitCloud/lib/libBc_All_At91sam3s4c_Rf231_Gcc.a(queue.o)
                0x0040bd00                deleteHeadQueueElem
 .text.deleteQueueElem
                0x0040bd0c       0x2c ./../../../../BitCloud/lib/libBc_All_At91sam3s4c_Rf231_Gcc.a(queue.o)
                0x0040bd0c                deleteQueueElem
 .text.isQueueElem
                0x0040bd38       0x12 ./../../../../BitCloud/lib/libBc_All_At91sam3s4c_Rf231_Gcc.a(queue.o)
                0x0040bd38                isQueueElem
 .text.putQueueElem
                0x0040bd4a       0x22 ./../../../../BitCloud/lib/libBc_All_At91sam3s4c_Rf231_Gcc.a(queue.o)
                0x0040bd4a                putQueueElem
 .text.SYS_DuplicateTableReset
                0x0040bd6c       0x42 ./../../../../BitCloud/lib/libBc_All_At91sam3s4c_Rf231_Gcc.a(sysDuplicateTable.o)
                0x0040bd6c                SYS_DuplicateTableReset
 .text.duplicateTableUpdate
                0x0040bdae       0x4c ./../../../../BitCloud/lib/libBc_All_At91sam3s4c_Rf231_Gcc.a(sysDuplicateTable.o)
                0x0040bdae                duplicateTableUpdate
 .text.SYS_DuplicateTableCheck
                0x0040bdfa       0xa8 ./../../../../BitCloud/lib/libBc_All_At91sam3s4c_Rf231_Gcc.a(sysDuplicateTable.o)
                0x0040bdfa                SYS_DuplicateTableCheck
 .text.SYS_DuplicateTableClear
                0x0040bea2       0x40 ./../../../../BitCloud/lib/libBc_All_At91sam3s4c_Rf231_Gcc.a(sysDuplicateTable.o)
                0x0040bea2                SYS_DuplicateTableClear
 *fill*         0x0040bee2        0x2 00
 .text.SYS_PostEvent
                0x0040bee4       0x40 ./../../../../BitCloud/lib/libBc_All_At91sam3s4c_Rf231_Gcc.a(sysEvents.o)
                0x0040bee4                SYS_PostEvent
 .text.SYS_IsEventDeliverable
                0x0040bf24       0x20 ./../../../../BitCloud/lib/libBc_All_At91sam3s4c_Rf231_Gcc.a(sysEvents.o)
                0x0040bf24                SYS_IsEventDeliverable
 .text.SYS_IsEventSubscriber
                0x0040bf44       0x1c ./../../../../BitCloud/lib/libBc_All_At91sam3s4c_Rf231_Gcc.a(sysEvents.o)
                0x0040bf44                SYS_IsEventSubscriber
 .text.SYS_SubscribeToEvent
                0x0040bf60       0x54 ./../../../../BitCloud/lib/libBc_All_At91sam3s4c_Rf231_Gcc.a(sysEvents.o)
                0x0040bf60                SYS_SubscribeToEvent
 .text.SYS_StartTimer
                0x0040bfb4       0x10 ./../../../../BitCloud/lib/libBc_All_At91sam3s4c_Rf231_Gcc.a(sysTimer.o)
                0x0040bfb4                SYS_StartTimer
 .text.SYS_StopTimer
                0x0040bfc4       0x12 ./../../../../BitCloud/lib/libBc_All_At91sam3s4c_Rf231_Gcc.a(sysTimer.o)
                0x0040bfc4                SYS_StopTimer
 .text.SYS_InitTimer
                0x0040bfd6       0x1a ./../../../../BitCloud/lib/libBc_All_At91sam3s4c_Rf231_Gcc.a(sysTimer.o)
                0x0040bfd6                SYS_InitTimer
 .text.SYS_RunTask
                0x0040bff0       0x54 ./../../../../BitCloud/lib/libBc_All_At91sam3s4c_Rf231_Gcc.a(taskManager.o)
                0x0040bff0                SYS_RunTask
 .text.SYS_SysInit
                0x0040c044       0x28 ./../../../../BitCloud/lib/libBc_All_At91sam3s4c_Rf231_Gcc.a(taskManager.o)
                0x0040c044                SYS_SysInit
 .text.APS_StopConf
                0x0040c06c       0x18 ./../../../../BitCloud/lib/libBc_All_At91sam3s4c_Rf231_Gcc.a(zdo.o)
 .text.zdoNodeManagerNwkLeaveConf
                0x0040c084       0x10 ./../../../../BitCloud/lib/libBc_All_At91sam3s4c_Rf231_Gcc.a(zdo.o)
 .text.zdoStackResetConf
                0x0040c094       0x1c ./../../../../BitCloud/lib/libBc_All_At91sam3s4c_Rf231_Gcc.a(zdo.o)
 .text.zdoSecurityManagerHandler
                0x0040c0b0        0x2 ./../../../../BitCloud/lib/libBc_All_At91sam3s4c_Rf231_Gcc.a(zdo.o)
                0x0040c0b0                zdoSecurityManagerHandler
 *fill*         0x0040c0b2        0x2 00
 .text.joinNetwork
                0x0040c0b4       0x40 ./../../../../BitCloud/lib/libBc_All_At91sam3s4c_Rf231_Gcc.a(zdo.o)
 .text.zdoRejoinNetwork
                0x0040c0f4       0x28 ./../../../../BitCloud/lib/libBc_All_At91sam3s4c_Rf231_Gcc.a(zdo.o)
 .text.zdoIntraPanPortApsStopConf
                0x0040c11c       0x20 ./../../../../BitCloud/lib/libBc_All_At91sam3s4c_Rf231_Gcc.a(zdo.o)
 .text.joinTimerFired
                0x0040c13c        0x4 ./../../../../BitCloud/lib/libBc_All_At91sam3s4c_Rf231_Gcc.a(zdo.o)
 .text.zdoPostTask
                0x0040c140       0x34 ./../../../../BitCloud/lib/libBc_All_At91sam3s4c_Rf231_Gcc.a(zdo.o)
 .text.startConfirm
                0x0040c174       0x30 ./../../../../BitCloud/lib/libBc_All_At91sam3s4c_Rf231_Gcc.a(zdo.o)
 .text.sleepConfirm
                0x0040c1a4       0x24 ./../../../../BitCloud/lib/libBc_All_At91sam3s4c_Rf231_Gcc.a(zdo.o)
 .text.wakeUpConfirm
                0x0040c1c8       0x24 ./../../../../BitCloud/lib/libBc_All_At91sam3s4c_Rf231_Gcc.a(zdo.o)
 .text.zdoSetZdpIndState
                0x0040c1ec       0x14 ./../../../../BitCloud/lib/libBc_All_At91sam3s4c_Rf231_Gcc.a(zdo.o)
 .text.ttlUpdateTimerFired
                0x0040c200       0x48 ./../../../../BitCloud/lib/libBc_All_At91sam3s4c_Rf231_Gcc.a(zdo.o)
 .text.zdoZdpResetReq
                0x0040c248       0x74 ./../../../../BitCloud/lib/libBc_All_At91sam3s4c_Rf231_Gcc.a(zdo.o)
 .text.zdoNetworkFormationReq
                0x0040c2bc       0x2c ./../../../../BitCloud/lib/libBc_All_At91sam3s4c_Rf231_Gcc.a(zdo.o)
 .text.permitJoin
                0x0040c2e8       0x24 ./../../../../BitCloud/lib/libBc_All_At91sam3s4c_Rf231_Gcc.a(zdo.o)
 .text.zdoPseudoRandomSeed
                0x0040c30c       0x22 ./../../../../BitCloud/lib/libBc_All_At91sam3s4c_Rf231_Gcc.a(zdo.o)
 *fill*         0x0040c32e        0x2 00
 .text.RF_RandomConfUpdater
                0x0040c330       0x1c ./../../../../BitCloud/lib/libBc_All_At91sam3s4c_Rf231_Gcc.a(zdo.o)
 .text.zdoStackReset
                0x0040c34c       0x28 ./../../../../BitCloud/lib/libBc_All_At91sam3s4c_Rf231_Gcc.a(zdo.o)
 .text.startSystemSleep
                0x0040c374       0x38 ./../../../../BitCloud/lib/libBc_All_At91sam3s4c_Rf231_Gcc.a(zdo.o)
 .text.transceiverSwitchedOff
                0x0040c3ac       0x1a ./../../../../BitCloud/lib/libBc_All_At91sam3s4c_Rf231_Gcc.a(zdo.o)
 *fill*         0x0040c3c6        0x2 00
 .text.zdoZdpManagerHandler
                0x0040c3c8      0x140 ./../../../../BitCloud/lib/libBc_All_At91sam3s4c_Rf231_Gcc.a(zdo.o)
 .text.zdoNwkEventListener
                0x0040c508       0x5c ./../../../../BitCloud/lib/libBc_All_At91sam3s4c_Rf231_Gcc.a(zdo.o)
 .text.zdoOtherEventListener
                0x0040c564       0x2e ./../../../../BitCloud/lib/libBc_All_At91sam3s4c_Rf231_Gcc.a(zdo.o)
 *fill*         0x0040c592        0x2 00
 .text.channelChangeTimerFired
                0x0040c594       0x28 ./../../../../BitCloud/lib/libBc_All_At91sam3s4c_Rf231_Gcc.a(zdo.o)
 .text.zdoChildEventListener
                0x0040c5bc       0x90 ./../../../../BitCloud/lib/libBc_All_At91sam3s4c_Rf231_Gcc.a(zdo.o)
 .text.zdoCheckStartNetworkRequestsQueue
                0x0040c64c       0x28 ./../../../../BitCloud/lib/libBc_All_At91sam3s4c_Rf231_Gcc.a(zdo.o)
 .text.reenterNetwork
                0x0040c674       0x34 ./../../../../BitCloud/lib/libBc_All_At91sam3s4c_Rf231_Gcc.a(zdo.o)
 .text.zdoSetZdpDataReqState
                0x0040c6a8       0x28 ./../../../../BitCloud/lib/libBc_All_At91sam3s4c_Rf231_Gcc.a(zdo.o)
 .text.confirmResponse
                0x0040c6d0        0x6 ./../../../../BitCloud/lib/libBc_All_At91sam3s4c_Rf231_Gcc.a(zdo.o)
 .text.zdoDefaultBindApsDataConf
                0x0040c6d6        0x6 ./../../../../BitCloud/lib/libBc_All_At91sam3s4c_Rf231_Gcc.a(zdo.o)
 .text.confirmMgmtLqiResponse
                0x0040c6dc        0x6 ./../../../../BitCloud/lib/libBc_All_At91sam3s4c_Rf231_Gcc.a(zdo.o)
 *fill*         0x0040c6e2        0x2 00
 .text.permitJoiningConf
                0x0040c6e4       0x20 ./../../../../BitCloud/lib/libBc_All_At91sam3s4c_Rf231_Gcc.a(zdo.o)
 .text.confirmMgmtPermitJoiningResponse
                0x0040c704        0x6 ./../../../../BitCloud/lib/libBc_All_At91sam3s4c_Rf231_Gcc.a(zdo.o)
 *fill*         0x0040c70a        0x2 00
 .text.zdoZdpApsConfCallback
                0x0040c70c       0x60 ./../../../../BitCloud/lib/libBc_All_At91sam3s4c_Rf231_Gcc.a(zdo.o)
 .text.zdoStartNetworkConfirm
                0x0040c76c       0x24 ./../../../../BitCloud/lib/libBc_All_At91sam3s4c_Rf231_Gcc.a(zdo.o)
 .text.startSyncTimer.part.4
                0x0040c790       0x38 ./../../../../BitCloud/lib/libBc_All_At91sam3s4c_Rf231_Gcc.a(zdo.o)
 .text.zdoUpdateRandSeedTimerFired
                0x0040c7c8       0x38 ./../../../../BitCloud/lib/libBc_All_At91sam3s4c_Rf231_Gcc.a(zdo.o)
 .text.sendSyncReq
                0x0040c800       0x34 ./../../../../BitCloud/lib/libBc_All_At91sam3s4c_Rf231_Gcc.a(zdo.o)
 .text.transceiverSwitchedOn
                0x0040c834       0x40 ./../../../../BitCloud/lib/libBc_All_At91sam3s4c_Rf231_Gcc.a(zdo.o)
 .text.wakeupCallback
                0x0040c874       0x48 ./../../../../BitCloud/lib/libBc_All_At91sam3s4c_Rf231_Gcc.a(zdo.o)
 .text.zdoPowerManagerHandler
                0x0040c8bc       0xec ./../../../../BitCloud/lib/libBc_All_At91sam3s4c_Rf231_Gcc.a(zdo.o)
 .text.confirmMgmtNwkUpdateNotify
                0x0040c9a8       0x3c ./../../../../BitCloud/lib/libBc_All_At91sam3s4c_Rf231_Gcc.a(zdo.o)
 .text.MAC_SetConf
                0x0040c9e4       0x78 ./../../../../BitCloud/lib/libBc_All_At91sam3s4c_Rf231_Gcc.a(zdo.o)
 .text.zdoInitNotifications
                0x0040ca5c       0x6c ./../../../../BitCloud/lib/libBc_All_At91sam3s4c_Rf231_Gcc.a(zdo.o)
                0x0040ca5c                zdoInitNotifications
 .text.zdoInitHandler
                0x0040cac8       0xc4 ./../../../../BitCloud/lib/libBc_All_At91sam3s4c_Rf231_Gcc.a(zdo.o)
 .text.NWK_JoinInd
                0x0040cb8c       0x32 ./../../../../BitCloud/lib/libBc_All_At91sam3s4c_Rf231_Gcc.a(zdo.o)
                0x0040cb8c                NWK_JoinInd
 .text.ZDO_GetLqiRssi
                0x0040cbbe       0x24 ./../../../../BitCloud/lib/libBc_All_At91sam3s4c_Rf231_Gcc.a(zdo.o)
                0x0040cbbe                ZDO_GetLqiRssi
 *fill*         0x0040cbe2        0x2 00
 .text.ZDO_SleepReq
                0x0040cbe4       0x34 ./../../../../BitCloud/lib/libBc_All_At91sam3s4c_Rf231_Gcc.a(zdo.o)
                0x0040cbe4                ZDO_SleepReq
 .text.ZDO_StartSyncReq
                0x0040cc18       0x38 ./../../../../BitCloud/lib/libBc_All_At91sam3s4c_Rf231_Gcc.a(zdo.o)
                0x0040cc18                ZDO_StartSyncReq
 .text.deviceAnnceConf
                0x0040cc50       0x24 ./../../../../BitCloud/lib/libBc_All_At91sam3s4c_Rf231_Gcc.a(zdo.o)
 .text.ZDO_StopSyncReq
                0x0040cc74       0x24 ./../../../../BitCloud/lib/libBc_All_At91sam3s4c_Rf231_Gcc.a(zdo.o)
                0x0040cc74                ZDO_StopSyncReq
 .text.zdoLeaveNetworkReq.part.13
                0x0040cc98       0x4c ./../../../../BitCloud/lib/libBc_All_At91sam3s4c_Rf231_Gcc.a(zdo.o)
 .text.zdoParentChangeConf
                0x0040cce4       0x48 ./../../../../BitCloud/lib/libBc_All_At91sam3s4c_Rf231_Gcc.a(zdo.o)
 .text.confirmMgmtLeaveResponse
                0x0040cd2c       0x8c ./../../../../BitCloud/lib/libBc_All_At91sam3s4c_Rf231_Gcc.a(zdo.o)
 .text.leaveNetworkInd
                0x0040cdb8       0x3c ./../../../../BitCloud/lib/libBc_All_At91sam3s4c_Rf231_Gcc.a(zdo.o)
 .text.zdoLeaveNetworkNwkLeaveConf
                0x0040cdf4       0x14 ./../../../../BitCloud/lib/libBc_All_At91sam3s4c_Rf231_Gcc.a(zdo.o)
 .text.NWK_LeaveInd
                0x0040ce08       0x58 ./../../../../BitCloud/lib/libBc_All_At91sam3s4c_Rf231_Gcc.a(zdo.o)
                0x0040ce08                NWK_LeaveInd
 .text.zdoReset
                0x0040ce60       0x40 ./../../../../BitCloud/lib/libBc_All_At91sam3s4c_Rf231_Gcc.a(zdo.o)
 .text.zdoLeaveConfirm
                0x0040cea0       0xa0 ./../../../../BitCloud/lib/libBc_All_At91sam3s4c_Rf231_Gcc.a(zdo.o)
 .text.ZDO_StartNetworkReq
                0x0040cf40       0x18 ./../../../../BitCloud/lib/libBc_All_At91sam3s4c_Rf231_Gcc.a(zdo.o)
                0x0040cf40                ZDO_StartNetworkReq
 .text.ZDO_TaskHandler
                0x0040cf58       0x54 ./../../../../BitCloud/lib/libBc_All_At91sam3s4c_Rf231_Gcc.a(zdo.o)
                0x0040cf58                ZDO_TaskHandler
 .text.APS_ZdoDataInd
                0x0040cfac       0xd4 ./../../../../BitCloud/lib/libBc_All_At91sam3s4c_Rf231_Gcc.a(zdo.o)
                0x0040cfac                APS_ZdoDataInd
 .text.ZDO_ZdpReq
                0x0040d080       0x38 ./../../../../BitCloud/lib/libBc_All_At91sam3s4c_Rf231_Gcc.a(zdo.o)
                0x0040d080                ZDO_ZdpReq
 .text.zdoSendDeviceAnnce
                0x0040d0b8       0xa0 ./../../../../BitCloud/lib/libBc_All_At91sam3s4c_Rf231_Gcc.a(zdo.o)
 .text.APS_StartConf
                0x0040d158       0x4c ./../../../../BitCloud/lib/libBc_All_At91sam3s4c_Rf231_Gcc.a(zdo.o)
 .text.startAps
                0x0040d1a4       0x30 ./../../../../BitCloud/lib/libBc_All_At91sam3s4c_Rf231_Gcc.a(zdo.o)
 .text.NWK_StartRouterConf
                0x0040d1d4        0xc ./../../../../BitCloud/lib/libBc_All_At91sam3s4c_Rf231_Gcc.a(zdo.o)
 .text.NWK_PermitJoinConf
                0x0040d1e0       0x5c ./../../../../BitCloud/lib/libBc_All_At91sam3s4c_Rf231_Gcc.a(zdo.o)
 .text.zdoAuthenticationConf
                0x0040d23c       0x28 ./../../../../BitCloud/lib/libBc_All_At91sam3s4c_Rf231_Gcc.a(zdo.o)
                0x0040d23c                zdoAuthenticationConf
 .text.zdoAuthenticationStart
                0x0040d264        0x6 ./../../../../BitCloud/lib/libBc_All_At91sam3s4c_Rf231_Gcc.a(zdo.o)
                0x0040d264                zdoAuthenticationStart
 *fill*         0x0040d26a        0x2 00
 .text.zdoSendDeviceAnnceConf
                0x0040d26c       0x3c ./../../../../BitCloud/lib/libBc_All_At91sam3s4c_Rf231_Gcc.a(zdo.o)
 .text.sendNwkUpdateNotify
                0x0040d2a8       0x3c ./../../../../BitCloud/lib/libBc_All_At91sam3s4c_Rf231_Gcc.a(zdo.o)
 .text.zdoZdpFrameProcessorHandler
                0x0040d2e4     0x10e0 ./../../../../BitCloud/lib/libBc_All_At91sam3s4c_Rf231_Gcc.a(zdo.o)
 .text.edScanConf
                0x0040e3c4       0x10 ./../../../../BitCloud/lib/libBc_All_At91sam3s4c_Rf231_Gcc.a(zdo.o)
 .text.zdoReloadZibFromConfigServer
                0x0040e3d4      0x118 ./../../../../BitCloud/lib/libBc_All_At91sam3s4c_Rf231_Gcc.a(zdo.o)
                0x0040e3d4                zdoReloadZibFromConfigServer
 .text.zdoStartNetworkTaskHandler
                0x0040e4ec       0xc4 ./../../../../BitCloud/lib/libBc_All_At91sam3s4c_Rf231_Gcc.a(zdo.o)
 .text.setNetworkParametersToZib
                0x0040e5b0       0x2c ./../../../../BitCloud/lib/libBc_All_At91sam3s4c_Rf231_Gcc.a(zdo.o)
                0x0040e5b0                setNetworkParametersToZib
 .text.NWK_JoinConf
                0x0040e5dc       0x50 ./../../../../BitCloud/lib/libBc_All_At91sam3s4c_Rf231_Gcc.a(zdo.o)
 .text.NWK_NetworkFormationConf
                0x0040e62c       0x1a ./../../../../BitCloud/lib/libBc_All_At91sam3s4c_Rf231_Gcc.a(zdo.o)
 *fill*         0x0040e646        0x2 00
 .text.zdoStartNetworkStackResetConf
                0x0040e648       0x7c ./../../../../BitCloud/lib/libBc_All_At91sam3s4c_Rf231_Gcc.a(zdo.o)
 .text.zdoPerformIntraPanPortability
                0x0040e6c4       0x40 ./../../../../BitCloud/lib/libBc_All_At91sam3s4c_Rf231_Gcc.a(zdo.o)
                0x0040e6c4                zdoPerformIntraPanPortability
 .text.NWK_SyncConf
                0x0040e704       0x64 ./../../../../BitCloud/lib/libBc_All_At91sam3s4c_Rf231_Gcc.a(zdo.o)
 .text.NWK_NwkStatusInd
                0x0040e768       0xa8 ./../../../../BitCloud/lib/libBc_All_At91sam3s4c_Rf231_Gcc.a(zdo.o)
                0x0040e768                NWK_NwkStatusInd
 .text.SYS_Sleep
                0x0040e810        0x4 ./../../../../BitCloud/lib/libBc_All_At91sam3s4c_Rf231_Gcc.a(bcSysSleep.o)
                0x0040e810                SYS_Sleep
 .text.postNewMacRequest
                0x0040e814       0x40 ./../../../../BitCloud/lib/libBc_All_At91sam3s4c_Rf231_Gcc.a(machwdManager.o)
 .text.putReqInQueue
                0x0040e854       0x20 ./../../../../BitCloud/lib/libBc_All_At91sam3s4c_Rf231_Gcc.a(machwdManager.o)
 .text.MACHWD_DataReq
                0x0040e874        0x8 ./../../../../BitCloud/lib/libBc_All_At91sam3s4c_Rf231_Gcc.a(machwdManager.o)
                0x0040e874                MACHWD_DataReq
 .text.MACHWD_SetTrxStateReq
                0x0040e87c        0x8 ./../../../../BitCloud/lib/libBc_All_At91sam3s4c_Rf231_Gcc.a(machwdManager.o)
                0x0040e87c                MACHWD_SetTrxStateReq
 .text.MACHWD_SetReq
                0x0040e884        0x8 ./../../../../BitCloud/lib/libBc_All_At91sam3s4c_Rf231_Gcc.a(machwdManager.o)
                0x0040e884                MACHWD_SetReq
 .text.MACHWD_EdReq
                0x0040e88c        0x8 ./../../../../BitCloud/lib/libBc_All_At91sam3s4c_Rf231_Gcc.a(machwdManager.o)
                0x0040e88c                MACHWD_EdReq
 .text.RF_RandomReq
                0x0040e894       0x10 ./../../../../BitCloud/lib/libBc_All_At91sam3s4c_Rf231_Gcc.a(machwdManager.o)
                0x0040e894                RF_RandomReq
 .text.MACHWD_Reset
                0x0040e8a4       0x3c ./../../../../BitCloud/lib/libBc_All_At91sam3s4c_Rf231_Gcc.a(machwdManager.o)
                0x0040e8a4                MACHWD_Reset
 .text.MAC_PHY_HWD_TaskHandler
                0x0040e8e0       0xf8 ./../../../../BitCloud/lib/libBc_All_At91sam3s4c_Rf231_Gcc.a(machwdManager.o)
                0x0040e8e0                MAC_PHY_HWD_TaskHandler
 .text.machwdSendConf2UpperLayer
                0x0040e9d8       0x60 ./../../../../BitCloud/lib/libBc_All_At91sam3s4c_Rf231_Gcc.a(machwdManager.o)
                0x0040e9d8                machwdSendConf2UpperLayer
 .text.machwdSendDataInd2UpperLayer
                0x0040ea38        0x4 ./../../../../BitCloud/lib/libBc_All_At91sam3s4c_Rf231_Gcc.a(machwdManager.o)
                0x0040ea38                machwdSendDataInd2UpperLayer
 .text.machwdRegAccessReqHandler
                0x0040ea3c       0x30 ./../../../../BitCloud/lib/libBc_All_At91sam3s4c_Rf231_Gcc.a(machwdRegAccessHandler.o)
                0x0040ea3c                machwdRegAccessReqHandler
 .text.machwdReset
                0x0040ea6c       0x8c ./../../../../BitCloud/lib/libBc_All_At91sam3s4c_Rf231_Gcc.a(machwdResetHandler.o)
                0x0040ea6c                machwdReset
 .text.machwdRndReqHandler
                0x0040eaf8       0x12 ./../../../../BitCloud/lib/libBc_All_At91sam3s4c_Rf231_Gcc.a(machwdRndHandler.o)
                0x0040eaf8                machwdRndReqHandler
 *fill*         0x0040eb0a        0x2 00
 .text.machwdResetRxBuffer
                0x0040eb0c       0x40 ./../../../../BitCloud/lib/libBc_All_At91sam3s4c_Rf231_Gcc.a(machwdRxBuffer.o)
                0x0040eb0c                machwdResetRxBuffer
 .text.machwdNextBuffer
                0x0040eb4c       0x10 ./../../../../BitCloud/lib/libBc_All_At91sam3s4c_Rf231_Gcc.a(machwdRxBuffer.o)
                0x0040eb4c                machwdNextBuffer
 .text.machwdReleaseBuffer
                0x0040eb5c       0x4c ./../../../../BitCloud/lib/libBc_All_At91sam3s4c_Rf231_Gcc.a(machwdRxBuffer.o)
                0x0040eb5c                machwdReleaseBuffer
 .text.machwdNextBufferPresent
                0x0040eba8       0x20 ./../../../../BitCloud/lib/libBc_All_At91sam3s4c_Rf231_Gcc.a(machwdRxBuffer.o)
                0x0040eba8                machwdNextBufferPresent
 .text.machwdRxFrameTaskHandler
                0x0040ebc8       0x38 ./../../../../BitCloud/lib/libBc_All_At91sam3s4c_Rf231_Gcc.a(machwdRxFrameHandler.o)
                0x0040ebc8                machwdRxFrameTaskHandler
 .text.machwdRxFrameIndTaskHandler
                0x0040ec00       0x90 ./../../../../BitCloud/lib/libBc_All_At91sam3s4c_Rf231_Gcc.a(machwdRxFrameHandler.o)
                0x0040ec00                machwdRxFrameIndTaskHandler
 .text.machwdSetReqHandler
                0x0040ec90       0x80 ./../../../../BitCloud/lib/libBc_All_At91sam3s4c_Rf231_Gcc.a(machwdSetHandler.o)
                0x0040ec90                machwdSetReqHandler
 .text.machwdResetSetHandler
                0x0040ed10       0x10 ./../../../../BitCloud/lib/libBc_All_At91sam3s4c_Rf231_Gcc.a(machwdSetHandler.o)
                0x0040ed10                machwdResetSetHandler
 .text.machwdGetPhyTrxCmd
                0x0040ed20       0x10 ./../../../../BitCloud/lib/libBc_All_At91sam3s4c_Rf231_Gcc.a(machwdTrxCtrl.o)
                0x0040ed20                machwdGetPhyTrxCmd
 .text.machwdConvertTrxCmdToTrxState
                0x0040ed30       0x14 ./../../../../BitCloud/lib/libBc_All_At91sam3s4c_Rf231_Gcc.a(machwdTrxCtrl.o)
                0x0040ed30                machwdConvertTrxCmdToTrxState
 .text.machwdConvertTrxStateToTrxCmd
                0x0040ed44       0x18 ./../../../../BitCloud/lib/libBc_All_At91sam3s4c_Rf231_Gcc.a(machwdTrxCtrl.o)
                0x0040ed44                machwdConvertTrxStateToTrxCmd
 .text.machwdTrxReqHandler
                0x0040ed5c       0x30 ./../../../../BitCloud/lib/libBc_All_At91sam3s4c_Rf231_Gcc.a(machwdTrxHandler.o)
                0x0040ed5c                machwdTrxReqHandler
 .text.executePhyDataReq
                0x0040ed8c       0x22 ./../../../../BitCloud/lib/libBc_All_At91sam3s4c_Rf231_Gcc.a(machwdTxFrameHandler.o)
 *fill*         0x0040edae        0x2 00
 .text.machwdTxFrameReqHandler
                0x0040edb0       0x2c ./../../../../BitCloud/lib/libBc_All_At91sam3s4c_Rf231_Gcc.a(machwdTxFrameHandler.o)
                0x0040edb0                machwdTxFrameReqHandler
 .text.machwdTxFrameTaskHandler
                0x0040eddc       0x28 ./../../../../BitCloud/lib/libBc_All_At91sam3s4c_Rf231_Gcc.a(machwdTxFrameHandler.o)
                0x0040eddc                machwdTxFrameTaskHandler
 .text.machwdResetTxFrameHandler
                0x0040ee04        0x2 ./../../../../BitCloud/lib/libBc_All_At91sam3s4c_Rf231_Gcc.a(machwdTxFrameHandler.o)
                0x0040ee04                machwdResetTxFrameHandler
 *fill*         0x0040ee06        0x2 00
 .text.postponeAction.part.0
                0x0040ee08       0x20 ./../../../../BitCloud/lib/libBc_All_At91sam3s4c_Rf231_Gcc.a(machwiManager.o)
 .text.putReqInQueue
                0x0040ee28       0x38 ./../../../../BitCloud/lib/libBc_All_At91sam3s4c_Rf231_Gcc.a(machwiManager.o)
 .text.machwiSendConfToUpperLayer
                0x0040ee60       0xb4 ./../../../../BitCloud/lib/libBc_All_At91sam3s4c_Rf231_Gcc.a(machwiManager.o)
                0x0040ee60                machwiSendConfToUpperLayer
 .text.MAC_HWI_TaskHandler
                0x0040ef14       0xc4 ./../../../../BitCloud/lib/libBc_All_At91sam3s4c_Rf231_Gcc.a(machwiManager.o)
                0x0040ef14                MAC_HWI_TaskHandler
 .text.MAC_AssociateReq
                0x0040efd8        0x8 ./../../../../BitCloud/lib/libBc_All_At91sam3s4c_Rf231_Gcc.a(machwiManager.o)
                0x0040efd8                MAC_AssociateReq
 .text.MAC_AssociateResp
                0x0040efe0        0x8 ./../../../../BitCloud/lib/libBc_All_At91sam3s4c_Rf231_Gcc.a(machwiManager.o)
                0x0040efe0                MAC_AssociateResp
 .text.MAC_GetReq
                0x0040efe8        0x8 ./../../../../BitCloud/lib/libBc_All_At91sam3s4c_Rf231_Gcc.a(machwiManager.o)
                0x0040efe8                MAC_GetReq
 .text.MAC_ResetReq
                0x0040eff0       0x58 ./../../../../BitCloud/lib/libBc_All_At91sam3s4c_Rf231_Gcc.a(machwiManager.o)
                0x0040eff0                MAC_ResetReq
 .text.MAC_RxEnableReq
                0x0040f048        0x8 ./../../../../BitCloud/lib/libBc_All_At91sam3s4c_Rf231_Gcc.a(machwiManager.o)
                0x0040f048                MAC_RxEnableReq
 .text.MAC_ScanReq
                0x0040f050        0x8 ./../../../../BitCloud/lib/libBc_All_At91sam3s4c_Rf231_Gcc.a(machwiManager.o)
                0x0040f050                MAC_ScanReq
 .text.MAC_SetReq
                0x0040f058        0x8 ./../../../../BitCloud/lib/libBc_All_At91sam3s4c_Rf231_Gcc.a(machwiManager.o)
                0x0040f058                MAC_SetReq
 .text.MAC_StartReq
                0x0040f060        0x8 ./../../../../BitCloud/lib/libBc_All_At91sam3s4c_Rf231_Gcc.a(machwiManager.o)
                0x0040f060                MAC_StartReq
 .text.MAC_PollReq
                0x0040f068        0x8 ./../../../../BitCloud/lib/libBc_All_At91sam3s4c_Rf231_Gcc.a(machwiManager.o)
                0x0040f068                MAC_PollReq
 .text.MAC_DataReq
                0x0040f070        0x8 ./../../../../BitCloud/lib/libBc_All_At91sam3s4c_Rf231_Gcc.a(machwiManager.o)
                0x0040f070                MAC_DataReq
 .text.machwiSendAssociateInd
                0x0040f078       0x14 ./../../../../BitCloud/lib/libBc_All_At91sam3s4c_Rf231_Gcc.a(machwiManager.o)
                0x0040f078                machwiSendAssociateInd
 .text.machwiSendDataInd
                0x0040f08c       0x14 ./../../../../BitCloud/lib/libBc_All_At91sam3s4c_Rf231_Gcc.a(machwiManager.o)
                0x0040f08c                machwiSendDataInd
 .text.machwiSendBeaconNotifyInd
                0x0040f0a0       0x14 ./../../../../BitCloud/lib/libBc_All_At91sam3s4c_Rf231_Gcc.a(machwiManager.o)
                0x0040f0a0                machwiSendBeaconNotifyInd
 .text.machwiSendSyncLossNotifyInd
                0x0040f0b4       0x14 ./../../../../BitCloud/lib/libBc_All_At91sam3s4c_Rf231_Gcc.a(machwiManager.o)
                0x0040f0b4                machwiSendSyncLossNotifyInd
 .text.machwiSendOrphanInd
                0x0040f0c8       0x14 ./../../../../BitCloud/lib/libBc_All_At91sam3s4c_Rf231_Gcc.a(machwiManager.o)
                0x0040f0c8                machwiSendOrphanInd
 .text.machwiSendPollInd
                0x0040f0dc       0x14 ./../../../../BitCloud/lib/libBc_All_At91sam3s4c_Rf231_Gcc.a(machwiManager.o)
                0x0040f0dc                machwiSendPollInd
 .text.machwiTxTransactionReq
                0x0040f0f0       0x1c ./../../../../BitCloud/lib/libBc_All_At91sam3s4c_Rf231_Gcc.a(machwiManager.o)
                0x0040f0f0                machwiTxTransactionReq
 .text.machwiTxBeaconReq
                0x0040f10c       0x1c ./../../../../BitCloud/lib/libBc_All_At91sam3s4c_Rf231_Gcc.a(machwiManager.o)
                0x0040f10c                machwiTxBeaconReq
 .text.MAC_IsActiveTransaction
                0x0040f128       0x20 ./../../../../BitCloud/lib/libBc_All_At91sam3s4c_Rf231_Gcc.a(machwiManager.o)
                0x0040f128                MAC_IsActiveTransaction
 .text.machwdDataConfirm
                0x0040f148       0x20 ./../../../../BitCloud/lib/libBc_All_At91sam3s4c_Rf231_Gcc.a(machwiOrphanHandler.o)
 .text.machwiOrphanRespHandler
                0x0040f168       0xfc ./../../../../BitCloud/lib/libBc_All_At91sam3s4c_Rf231_Gcc.a(machwiOrphanHandler.o)
                0x0040f168                machwiOrphanRespHandler
 .text.machwiOrphanNotificationInd
                0x0040f264       0x1a ./../../../../BitCloud/lib/libBc_All_At91sam3s4c_Rf231_Gcc.a(machwiOrphanHandler.o)
                0x0040f264                machwiOrphanNotificationInd
 *fill*         0x0040f27e        0x2 00
 .text.MACHWD_DataInd
                0x0040f280       0x78 ./../../../../BitCloud/lib/libBc_All_At91sam3s4c_Rf231_Gcc.a(machwiPanServer.o)
                0x0040f280                MACHWD_DataInd
 .text.machwiEnableBeaconTransmission
                0x0040f2f8       0x10 ./../../../../BitCloud/lib/libBc_All_At91sam3s4c_Rf231_Gcc.a(machwiPanServer.o)
                0x0040f2f8                machwiEnableBeaconTransmission
 .text.machwiResetPanServer
                0x0040f308       0x10 ./../../../../BitCloud/lib/libBc_All_At91sam3s4c_Rf231_Gcc.a(machwiPanServer.o)
                0x0040f308                machwiResetPanServer
 .text.switchingCompleted
                0x0040f318       0x14 ./../../../../BitCloud/lib/libBc_All_At91sam3s4c_Rf231_Gcc.a(machwiPollHandler.o)
 .text.completeHandling
                0x0040f32c       0x1c ./../../../../BitCloud/lib/libBc_All_At91sam3s4c_Rf231_Gcc.a(machwiPollHandler.o)
 .text.machwdDataConfirm
                0x0040f348       0x50 ./../../../../BitCloud/lib/libBc_All_At91sam3s4c_Rf231_Gcc.a(machwiPollHandler.o)
 .text.halPollTimerFired
                0x0040f398        0x4 ./../../../../BitCloud/lib/libBc_All_At91sam3s4c_Rf231_Gcc.a(machwiPollHandler.o)
 .text.machwiResetPollHandler
                0x0040f39c        0xc ./../../../../BitCloud/lib/libBc_All_At91sam3s4c_Rf231_Gcc.a(machwiPollHandler.o)
                0x0040f39c                machwiResetPollHandler
 .text.machwiPollInd
                0x0040f3a8       0x3a ./../../../../BitCloud/lib/libBc_All_At91sam3s4c_Rf231_Gcc.a(machwiPollHandler.o)
                0x0040f3a8                machwiPollInd
 *fill*         0x0040f3e2        0x2 00
 .text.machwiDataIndication
                0x0040f3e4      0x110 ./../../../../BitCloud/lib/libBc_All_At91sam3s4c_Rf231_Gcc.a(machwiPollHandler.o)
                0x0040f3e4                machwiDataIndication
 .text.machwiPollReqHandler
                0x0040f4f4      0x104 ./../../../../BitCloud/lib/libBc_All_At91sam3s4c_Rf231_Gcc.a(machwiPollHandler.o)
                0x0040f4f4                machwiPollReqHandler
 .text.machwiPurgeReqHandler
                0x0040f5f8       0x28 ./../../../../BitCloud/lib/libBc_All_At91sam3s4c_Rf231_Gcc.a(machwiPurgeHandler.o)
                0x0040f5f8                machwiPurgeReqHandler
 .text.machwdSetTrxStateConfirm
                0x0040f620        0xc ./../../../../BitCloud/lib/libBc_All_At91sam3s4c_Rf231_Gcc.a(machwiResetHandler.o)
 .text.machwdSetConfirm
                0x0040f62c       0x1c ./../../../../BitCloud/lib/libBc_All_At91sam3s4c_Rf231_Gcc.a(machwiResetHandler.o)
 .text.machwiResetReqHandler
                0x0040f648       0x6c ./../../../../BitCloud/lib/libBc_All_At91sam3s4c_Rf231_Gcc.a(machwiResetHandler.o)
                0x0040f648                machwiResetReqHandler
 .text.machwdSetTrxStateConfirm
                0x0040f6b4       0x10 ./../../../../BitCloud/lib/libBc_All_At91sam3s4c_Rf231_Gcc.a(machwiRxEnableHandler.o)
 .text.machwiRxEnableReqHandler
                0x0040f6c4       0x2c ./../../../../BitCloud/lib/libBc_All_At91sam3s4c_Rf231_Gcc.a(machwiRxEnableHandler.o)
                0x0040f6c4                machwiRxEnableReqHandler
 .text.switchToActiveChannel
                0x0040f6f0       0x34 ./../../../../BitCloud/lib/libBc_All_At91sam3s4c_Rf231_Gcc.a(machwiScanHandler.o)
 .text.setNextChannel
                0x0040f724       0x60 ./../../../../BitCloud/lib/libBc_All_At91sam3s4c_Rf231_Gcc.a(machwiScanHandler.o)
 .text.machwdEdConfirm
                0x0040f784       0x84 ./../../../../BitCloud/lib/libBc_All_At91sam3s4c_Rf231_Gcc.a(machwiScanHandler.o)
 .text.machwdSetConfirm
                0x0040f808      0x258 ./../../../../BitCloud/lib/libBc_All_At91sam3s4c_Rf231_Gcc.a(machwiScanHandler.o)
 .text.machwdSetTrxStateConfirm
                0x0040fa60       0x98 ./../../../../BitCloud/lib/libBc_All_At91sam3s4c_Rf231_Gcc.a(machwiScanHandler.o)
 .text.halScanTimerFired
                0x0040faf8       0x28 ./../../../../BitCloud/lib/libBc_All_At91sam3s4c_Rf231_Gcc.a(machwiScanHandler.o)
 .text.machwdDataConfirm
                0x0040fb20       0x58 ./../../../../BitCloud/lib/libBc_All_At91sam3s4c_Rf231_Gcc.a(machwiScanHandler.o)
 .text.machwiScanReqHandler
                0x0040fb78       0xf8 ./../../../../BitCloud/lib/libBc_All_At91sam3s4c_Rf231_Gcc.a(machwiScanHandler.o)
                0x0040fb78                machwiScanReqHandler
 .text.machwiBeaconInd
                0x0040fc70      0x194 ./../../../../BitCloud/lib/libBc_All_At91sam3s4c_Rf231_Gcc.a(machwiScanHandler.o)
                0x0040fc70                machwiBeaconInd
 .text.machwiCoordRealignmentCommandInd
                0x0040fe04       0xac ./../../../../BitCloud/lib/libBc_All_At91sam3s4c_Rf231_Gcc.a(machwiScanHandler.o)
                0x0040fe04                machwiCoordRealignmentCommandInd
 .text.machwiResetScanHandler
                0x0040feb0        0xc ./../../../../BitCloud/lib/libBc_All_At91sam3s4c_Rf231_Gcc.a(machwiScanHandler.o)
                0x0040feb0                machwiResetScanHandler
 .text.machwdSetConfirm
                0x0040febc        0xc ./../../../../BitCloud/lib/libBc_All_At91sam3s4c_Rf231_Gcc.a(machwiSetGetHandler.o)
 .text.machwiGetReqHandler
                0x0040fec8       0x34 ./../../../../BitCloud/lib/libBc_All_At91sam3s4c_Rf231_Gcc.a(machwiSetGetHandler.o)
                0x0040fec8                machwiGetReqHandler
 .text.machwiSetReqHandler
                0x0040fefc       0x84 ./../../../../BitCloud/lib/libBc_All_At91sam3s4c_Rf231_Gcc.a(machwiSetGetHandler.o)
                0x0040fefc                machwiSetReqHandler
 .text.setHandling
                0x0040ff80       0x20 ./../../../../BitCloud/lib/libBc_All_At91sam3s4c_Rf231_Gcc.a(machwiStartHandler.o)
 .text.setStartReqParam
                0x0040ffa0       0x90 ./../../../../BitCloud/lib/libBc_All_At91sam3s4c_Rf231_Gcc.a(machwiStartHandler.o)
 .text.generateConfirm
                0x00410030       0x38 ./../../../../BitCloud/lib/libBc_All_At91sam3s4c_Rf231_Gcc.a(machwiStartHandler.o)
 .text.machwdSetConfirm
                0x00410068      0x108 ./../../../../BitCloud/lib/libBc_All_At91sam3s4c_Rf231_Gcc.a(machwiStartHandler.o)
 .text.machwdDataConfirm
                0x00410170       0x34 ./../../../../BitCloud/lib/libBc_All_At91sam3s4c_Rf231_Gcc.a(machwiStartHandler.o)
 .text.machwiStartReqHandler
                0x004101a4       0x48 ./../../../../BitCloud/lib/libBc_All_At91sam3s4c_Rf231_Gcc.a(machwiStartHandler.o)
                0x004101a4                machwiStartReqHandler
 .text.machwiResetStartHandler
                0x004101ec       0x10 ./../../../../BitCloud/lib/libBc_All_At91sam3s4c_Rf231_Gcc.a(machwiStartHandler.o)
                0x004101ec                machwiResetStartHandler
 .text.machwdSetTrxStateConfirm
                0x004101fc       0x10 ./../../../../BitCloud/lib/libBc_All_At91sam3s4c_Rf231_Gcc.a(machwiSwitchRxCtrl.o)
 .text.machwiSwitchRxAccordToRxOnWhenIdle
                0x0041020c       0x30 ./../../../../BitCloud/lib/libBc_All_At91sam3s4c_Rf231_Gcc.a(machwiSwitchRxCtrl.o)
                0x0041020c                machwiSwitchRxAccordToRxOnWhenIdle
 .text.machwiResetTransactionHandler
                0x0041023c       0x14 ./../../../../BitCloud/lib/libBc_All_At91sam3s4c_Rf231_Gcc.a(machwiTransactionHandler.o)
                0x0041023c                machwiResetTransactionHandler
 .text.machwiSendTransactionEvent
                0x00410250      0x12c ./../../../../BitCloud/lib/libBc_All_At91sam3s4c_Rf231_Gcc.a(machwiTransactionHandler.o)
                0x00410250                machwiSendTransactionEvent
 .text.machwdDataConfirm
                0x0041037c       0x88 ./../../../../BitCloud/lib/libBc_All_At91sam3s4c_Rf231_Gcc.a(machwiTransactionHandler.o)
 .text.transactionTimerFired
                0x00410404       0x30 ./../../../../BitCloud/lib/libBc_All_At91sam3s4c_Rf231_Gcc.a(machwiTransactionQueue.o)
 .text.machwiPutTransactionToQueue
                0x00410434       0x44 ./../../../../BitCloud/lib/libBc_All_At91sam3s4c_Rf231_Gcc.a(machwiTransactionQueue.o)
                0x00410434                machwiPutTransactionToQueue
 .text.machwiGetActivatedTransactionFromQueue
                0x00410478       0x18 ./../../../../BitCloud/lib/libBc_All_At91sam3s4c_Rf231_Gcc.a(machwiTransactionQueue.o)
                0x00410478                machwiGetActivatedTransactionFromQueue
 .text.machwiTestAndKickQueueTransactions
                0x00410490       0xc8 ./../../../../BitCloud/lib/libBc_All_At91sam3s4c_Rf231_Gcc.a(machwiTransactionQueue.o)
                0x00410490                machwiTestAndKickQueueTransactions
 .text.machwiFillPendingAddrSpecAndList
                0x00410558       0x12 ./../../../../BitCloud/lib/libBc_All_At91sam3s4c_Rf231_Gcc.a(machwiTransactionQueue.o)
                0x00410558                machwiFillPendingAddrSpecAndList
 *fill*         0x0041056a        0x2 00
 .text.machwiDeleteTransactionFromQueue
                0x0041056c       0x28 ./../../../../BitCloud/lib/libBc_All_At91sam3s4c_Rf231_Gcc.a(machwiTransactionQueue.o)
                0x0041056c                machwiDeleteTransactionFromQueue
 .text.machwiPurgeTransactionFromQueue
                0x00410594       0x34 ./../../../../BitCloud/lib/libBc_All_At91sam3s4c_Rf231_Gcc.a(machwiTransactionQueue.o)
                0x00410594                machwiPurgeTransactionFromQueue
 .text.machwiResetTransactionQueue
                0x004105c8       0x30 ./../../../../BitCloud/lib/libBc_All_At91sam3s4c_Rf231_Gcc.a(machwiTransactionQueue.o)
                0x004105c8                machwiResetTransactionQueue
 .text.machwiTransactionQueueEmpty
                0x004105f8       0x14 ./../../../../BitCloud/lib/libBc_All_At91sam3s4c_Rf231_Gcc.a(machwiTransactionQueue.o)
                0x004105f8                machwiTransactionQueueEmpty
 .text.phySetFreq
                0x0041060c       0x3c ./../../../../BitCloud/lib/libBc_All_At91sam3s4c_Rf231_Gcc.a(phyInit.o)
                0x0041060c                phySetFreq
 .text.RF_Init  0x00410648       0x5e ./../../../../BitCloud/lib/libBc_All_At91sam3s4c_Rf231_Gcc.a(phyInit.o)
                0x00410648                RF_Init
 *fill*         0x004106a6        0x2 00
 .text.PHY_RegWriteReq
                0x004106a8       0x2c ./../../../../BitCloud/lib/libBc_All_At91sam3s4c_Rf231_Gcc.a(phyRegAccess.o)
                0x004106a8                PHY_RegWriteReq
 .text.PHY_RegReadReq
                0x004106d4       0x2c ./../../../../BitCloud/lib/libBc_All_At91sam3s4c_Rf231_Gcc.a(phyRegAccess.o)
                0x004106d4                PHY_RegReadReq
 .text.PHY_Reset
                0x00410700       0xc4 ./../../../../BitCloud/lib/libBc_All_At91sam3s4c_Rf231_Gcc.a(phyReset.o)
                0x00410700                PHY_Reset
 .text.phyWriteRegister
                0x004107c4       0x20 ./../../../../BitCloud/lib/libBc_All_At91sam3s4c_Rf231_Gcc.a(phyRfSpiProto.o)
                0x004107c4                phyWriteRegister
 .text.phyReadRegister
                0x004107e4       0x26 ./../../../../BitCloud/lib/libBc_All_At91sam3s4c_Rf231_Gcc.a(phyRfSpiProto.o)
                0x004107e4                phyReadRegister
 .text.phyReadFrame
                0x0041080a       0x1c ./../../../../BitCloud/lib/libBc_All_At91sam3s4c_Rf231_Gcc.a(phyRfSpiProto.o)
                0x0041080a                phyReadFrame
 .text.phyWriteFrame
                0x00410826       0x2a ./../../../../BitCloud/lib/libBc_All_At91sam3s4c_Rf231_Gcc.a(phyRfSpiProto.o)
                0x00410826                phyWriteFrame
 .text.PHY_RndReq
                0x00410850       0xdc ./../../../../BitCloud/lib/libBc_All_At91sam3s4c_Rf231_Gcc.a(phyRnd.o)
                0x00410850                PHY_RndReq
 .text.PHY_DownloadFrame
                0x0041092c      0x140 ./../../../../BitCloud/lib/libBc_All_At91sam3s4c_Rf231_Gcc.a(phyRxFrame.o)
                0x0041092c                PHY_DownloadFrame
 .text.storeParameterToRf
                0x00410a6c       0x4a ./../../../../BitCloud/lib/libBc_All_At91sam3s4c_Rf231_Gcc.a(phySet.o)
 *fill*         0x00410ab6        0x2 00
 .text.PHY_SetReq
                0x00410ab8      0x168 ./../../../../BitCloud/lib/libBc_All_At91sam3s4c_Rf231_Gcc.a(phySet.o)
                0x00410ab8                PHY_SetReq
 .text.PHY_SetTrxStateReq
                0x00410c20       0x88 ./../../../../BitCloud/lib/libBc_All_At91sam3s4c_Rf231_Gcc.a(phySetTrxState.o)
                0x00410c20                PHY_SetTrxStateReq
 .text.PHY_CheckStateTransition
                0x00410ca8       0x16 ./../../../../BitCloud/lib/libBc_All_At91sam3s4c_Rf231_Gcc.a(phyStateMachine.o)
                0x00410ca8                PHY_CheckStateTransition
 *fill*         0x00410cbe        0x2 00
 .text.PHY_DataReq
                0x00410cc0       0x24 ./../../../../BitCloud/lib/libBc_All_At91sam3s4c_Rf231_Gcc.a(phyTxFrame.o)
                0x00410cc0                PHY_DataReq
 .text.machwdCalibReqHandler
                0x00410ce4       0x12 ./../../../../BitCloud/lib/libBc_All_At91sam3s4c_Rf231_Gcc.a(machwdCalibHandler.o)
                0x00410ce4                machwdCalibReqHandler
 *fill*         0x00410cf6        0x2 00
 .text.machwdEdReqHandler
                0x00410cf8       0x10 ./../../../../BitCloud/lib/libBc_All_At91sam3s4c_Rf231_Gcc.a(machwdEdHandler.o)
                0x00410cf8                machwdEdReqHandler
 .text.machwdEdTaskHandler
                0x00410d08       0x18 ./../../../../BitCloud/lib/libBc_All_At91sam3s4c_Rf231_Gcc.a(machwdEdHandler.o)
                0x00410d08                machwdEdTaskHandler
 .text.composePanIdAndAddress
                0x00410d20       0x4a ./../../../../BitCloud/lib/libBc_All_At91sam3s4c_Rf231_Gcc.a(machwdFrameRoutine.o)
 *fill*         0x00410d6a        0x2 00
 .text.parsePanIdAndAddress
                0x00410d6c       0x40 ./../../../../BitCloud/lib/libBc_All_At91sam3s4c_Rf231_Gcc.a(machwdFrameRoutine.o)
 .text.machwdParseFrame
                0x00410dac      0x21c ./../../../../BitCloud/lib/libBc_All_At91sam3s4c_Rf231_Gcc.a(machwdFrameRoutine.o)
                0x00410dac                machwdParseFrame
 .text.machwdComposeFrame
                0x00410fc8      0x1a0 ./../../../../BitCloud/lib/libBc_All_At91sam3s4c_Rf231_Gcc.a(machwdFrameRoutine.o)
                0x00410fc8                machwdComposeFrame
 .text.machwdGetHandlerId
                0x00411168       0x30 ./../../../../BitCloud/lib/libBc_All_At91sam3s4c_Rf231_Gcc.a(machwdHandlerCtrl.o)
                0x00411168                machwdGetHandlerId
 .text.setHandling
                0x00411198       0x20 ./../../../../BitCloud/lib/libBc_All_At91sam3s4c_Rf231_Gcc.a(machwiAssociateHandler.o)
 .text.completeHandling
                0x004111b8       0x1c ./../../../../BitCloud/lib/libBc_All_At91sam3s4c_Rf231_Gcc.a(machwiAssociateHandler.o)
 .text.machwdSetConfirm
                0x004111d4      0x10c ./../../../../BitCloud/lib/libBc_All_At91sam3s4c_Rf231_Gcc.a(machwiAssociateHandler.o)
 .text.machwdDataConfirm
                0x004112e0       0x80 ./../../../../BitCloud/lib/libBc_All_At91sam3s4c_Rf231_Gcc.a(machwiAssociateHandler.o)
 .text.associateTimerFired
                0x00411360       0xac ./../../../../BitCloud/lib/libBc_All_At91sam3s4c_Rf231_Gcc.a(machwiAssociateHandler.o)
 .text.switchingCompleted
                0x0041140c       0x10 ./../../../../BitCloud/lib/libBc_All_At91sam3s4c_Rf231_Gcc.a(machwiAssociateHandler.o)
 .text.machwiResetAssociateHandler
                0x0041141c        0xc ./../../../../BitCloud/lib/libBc_All_At91sam3s4c_Rf231_Gcc.a(machwiAssociateHandler.o)
                0x0041141c                machwiResetAssociateHandler
 .text.machwiAssociateReqInd
                0x00411428       0x38 ./../../../../BitCloud/lib/libBc_All_At91sam3s4c_Rf231_Gcc.a(machwiAssociateHandler.o)
                0x00411428                machwiAssociateReqInd
 .text.machwiAssociateReqHandler
                0x00411460       0x74 ./../../../../BitCloud/lib/libBc_All_At91sam3s4c_Rf231_Gcc.a(machwiAssociateHandler.o)
                0x00411460                machwiAssociateReqHandler
 .text.machwiAssociateRespHandler
                0x004114d4       0x1c ./../../../../BitCloud/lib/libBc_All_At91sam3s4c_Rf231_Gcc.a(machwiAssociateHandler.o)
                0x004114d4                machwiAssociateRespHandler
 .text.machwiAssociateRespInd
                0x004114f0       0x94 ./../../../../BitCloud/lib/libBc_All_At91sam3s4c_Rf231_Gcc.a(machwiAssociateHandler.o)
                0x004114f0                machwiAssociateRespInd
 .text.machwdDataConfirm
                0x00411584       0x10 ./../../../../BitCloud/lib/libBc_All_At91sam3s4c_Rf231_Gcc.a(machwiBeaconHandler.o)
 .text.machwiSendBeacon
                0x00411594       0xe8 ./../../../../BitCloud/lib/libBc_All_At91sam3s4c_Rf231_Gcc.a(machwiBeaconHandler.o)
                0x00411594                machwiSendBeacon
 .text.machwiConvertmachwdDataConfirmTypes
                0x0041167c       0x14 ./../../../../BitCloud/lib/libBc_All_At91sam3s4c_Rf231_Gcc.a(machwiDataHandler.o)
                0x0041167c                machwiConvertmachwdDataConfirmTypes
 .text.machwdDataConfirm
                0x00411690       0x20 ./../../../../BitCloud/lib/libBc_All_At91sam3s4c_Rf231_Gcc.a(machwiDataHandler.o)
 .text.machwiPrepareDataFrame
                0x004116b0       0xb8 ./../../../../BitCloud/lib/libBc_All_At91sam3s4c_Rf231_Gcc.a(machwiDataHandler.o)
                0x004116b0                machwiPrepareDataFrame
 .text.machwiDataReqHandler
                0x00411768       0x70 ./../../../../BitCloud/lib/libBc_All_At91sam3s4c_Rf231_Gcc.a(machwiDataHandler.o)
                0x00411768                machwiDataReqHandler
 .text.PHY_CalibReq
                0x004117d8       0x9c ./../../../../BitCloud/lib/libBc_All_At91sam3s4c_Rf231_Gcc.a(phyCalib.o)
                0x004117d8                PHY_CalibReq
 .text.PHY_EdReq
                0x00411874       0x3c ./../../../../BitCloud/lib/libBc_All_At91sam3s4c_Rf231_Gcc.a(phyEd.o)
                0x00411874                PHY_EdReq
 .text.HAL_Init
                0x004118b0       0x10 ./../../../../BitCloud/lib/libHAL_deRFusb23e06_At91sam3s4c_64Mhz_Gcc.a(halInit.o)
                0x004118b0                HAL_Init
 .text.HAL_ReadUid
                0x004118c0       0x1c ./../../../../BitCloud/lib/libHAL_deRFusb23e06_At91sam3s4c_64Mhz_Gcc.a(uid.o)
                0x004118c0                HAL_ReadUid
 .text.get_nv_basic
                0x004118dc       0xd8 ./../../../../BitCloud/lib/libHAL_deRFusb23e06_At91sam3s4c_64Mhz_Gcc.a(nv_basic.o)
                0x004118dc                get_nv_basic
 *(.gnu.linkonce.t.*)
 *(.rodata)
 .rodata        0x004119b4       0x18 ./../../../../BitCloud/lib/libHAL_deRFusb23e06_At91sam3s4c_64Mhz_Gcc.a(halUart.o)
 .rodata        0x004119cc       0x18 ./../../../../BitCloud/lib/libHAL_deRFusb23e06_At91sam3s4c_64Mhz_Gcc.a(usart.o)
 .rodata        0x004119e4        0x4 ./../../../../BitCloud/lib/libHAL_deRFusb23e06_At91sam3s4c_64Mhz_Gcc.a(halExcHandler.o)
 .rodata        0x004119e8       0x20 ./../../../../BitCloud/lib/libBc_All_At91sam3s4c_Rf231_Gcc.a(aps.o)
 .rodata        0x00411a08      0x2b8 ./../../../../BitCloud/lib/libBc_All_At91sam3s4c_Rf231_Gcc.a(nwk.o)
 .rodata        0x00411cc0       0x2c ./../../../../BitCloud/lib/libBc_All_At91sam3s4c_Rf231_Gcc.a(taskManager.o)
 .rodata        0x00411cec       0x18 ./../../../../BitCloud/lib/libBc_All_At91sam3s4c_Rf231_Gcc.a(zdo.o)
 .rodata        0x00411d04       0x16 ./../../../../BitCloud/lib/libBc_All_At91sam3s4c_Rf231_Gcc.a(machwdTrxCtrl.o)
 .rodata        0x00411d1a        0x6 ./../../../../BitCloud/lib/libBc_All_At91sam3s4c_Rf231_Gcc.a(machwdTxFrameHandler.o)
 .rodata        0x00411d20       0x15 ./../../../../BitCloud/lib/libBc_All_At91sam3s4c_Rf231_Gcc.a(phySet.o)
 .rodata        0x00411d35        0x2 ./../../../../BitCloud/lib/libBc_All_At91sam3s4c_Rf231_Gcc.a(machwdFrameRoutine.o)
 .rodata        0x00411d37        0x2 ./../../../../BitCloud/lib/libBc_All_At91sam3s4c_Rf231_Gcc.a(machwiDataHandler.o)
 *(.rodata.*)
 .rodata.str1.1
                0x00411d39      0x24f ./../../../../BitCloud/lib/libHAL_deRFusb23e06_At91sam3s4c_64Mhz_Gcc.a(halExcHandler.o)
                                0x254 (size before relaxing)
 .rodata.str1.4
                0x00411f88        0x4 c:/users/user/desktop/winsync/code_files/sabre/_toolchains/yagarto_arm/bin/../lib/gcc/arm-none-eabi/4.5.1/../../../../arm-none-eabi/lib/thumb/v7m\libc.a(lib_a-impure.o)
 *(.gnu.linkonce.r.*)
                0x00411f8c                . = ALIGN (0x4)
                0x00411f8c                __text_end = .

.glue_7         0x00000000        0x0
 .glue_7        0x00000000        0x0 linker stubs

.glue_7t        0x00000000        0x0
 .glue_7t       0x00000000        0x0 linker stubs

.vfp11_veneer   0x00000000        0x0
 .vfp11_veneer  0x00000000        0x0 linker stubs

.v4_bx          0x00000000        0x0
 .v4_bx         0x00000000        0x0 linker stubs

.data           0x20000000      0x988 load address 0x00411f8c
                0x00411f8c                __data_load = LOADADDR (.data)
                0x20000000                __data = .
 *(.ramvectors)
 .ramvectors    0x20000000       0xd0 ./../../../../BitCloud/lib/libHAL_deRFusb23e06_At91sam3s4c_64Mhz_Gcc.a(halVectorTable.o)
                0x20000000                __ram_vector_table
 *(.data)
 .data          0x200000d0       0x10 All_deRFusb23e06_At91sam3s4c_Rf231_Gcc/Obj/WSNEndDevice.o
                0x200000d0                appEndDeviceCmdDescTable
 .data          0x200000e0       0x28 All_deRFusb23e06_At91sam3s4c_Rf231_Gcc/Obj/WSNDemoApp.o
                0x200000e0                appNwkInfo
 .data          0x20000108      0x3e0 All_deRFusb23e06_At91sam3s4c_Rf231_Gcc/Obj/csMem.o
                0x20000108                defaultNIB
                0x20000198                defaultZIB
                0x200001d0                defaultAIB
                0x200001d8                defaultSIB
                0x20000228                csReadOnlyItems
                0x2000024c                csMemoryItems
 .data          0x200004e8       0x48 ./../../../../BitCloud/lib/libHAL_deRFusb23e06_At91sam3s4c_64Mhz_Gcc.a(halIrq.o)
 .data          0x20000530       0x28 ./../../../../BitCloud/lib/libBc_All_At91sam3s4c_Rf231_Gcc.a(zdo.o)
 .data          0x20000558      0x430 c:/users/user/desktop/winsync/code_files/sabre/_toolchains/yagarto_arm/bin/../lib/gcc/arm-none-eabi/4.5.1/../../../../arm-none-eabi/lib/thumb/v7m\libc.a(lib_a-impure.o)
                0x20000558                _impure_ptr
 *(.data.*)
 *(.gnu.linkonce.d.*)
                0x20000988                . = ALIGN (0x4)
                0x20000988                __data_end = .

.bss            0x20000988     0x1d94 load address 0x00412914
                0x20000988                __bss = .
 *(.bss)
 .bss           0x20000988        0x4 All_deRFusb23e06_At91sam3s4c_Rf231_Gcc/Obj/WSNSensorManager.o
 .bss           0x2000098c       0x20 All_deRFusb23e06_At91sam3s4c_Rf231_Gcc/Obj/WSNEndDevice.o
 *fill*         0x200009ac        0x4 00
 .bss           0x200009b0      0x148 All_deRFusb23e06_At91sam3s4c_Rf231_Gcc/Obj/WSNMessageSender.o
 .bss           0x20000af8       0xc8 All_deRFusb23e06_At91sam3s4c_Rf231_Gcc/Obj/WSNCommandHandler.o
 .bss           0x20000bc0      0x180 All_deRFusb23e06_At91sam3s4c_Rf231_Gcc/Obj/WSNDemoApp.o
 .bss           0x20000d40        0x1 All_deRFusb23e06_At91sam3s4c_Rf231_Gcc/Obj/bspTaskManager.o
                0x20000d40                bspTaskFlags
 *fill*         0x20000d41        0x3 00
 .bss           0x20000d44        0x8 ./../../../../BitCloud/lib/libHAL_deRFusb23e06_At91sam3s4c_64Mhz_Gcc.a(halAppClock.o)
                0x20000d49                halAppTimeOvfw
 .bss           0x20000d4c        0xc ./../../../../BitCloud/lib/libHAL_deRFusb23e06_At91sam3s4c_64Mhz_Gcc.a(halUart.o)
 .bss           0x20000d58        0x8 ./../../../../BitCloud/lib/libHAL_deRFusb23e06_At91sam3s4c_64Mhz_Gcc.a(halUsb.o)
                0x20000d58                requestMemory
                0x20000d5c                sendReqToUpper
 .bss           0x20000d60       0x18 ./../../../../BitCloud/lib/libHAL_deRFusb23e06_At91sam3s4c_64Mhz_Gcc.a(halHsmci.o)
                0x20000d74                halHsmciCurrentState
 .bss           0x20000d78        0x2 ./../../../../BitCloud/lib/libHAL_deRFusb23e06_At91sam3s4c_64Mhz_Gcc.a(halSleepTimerClock.o)
 *fill*         0x20000d7a        0x6 00
 .bss           0x20000d80        0x8 ./../../../../BitCloud/lib/libHAL_deRFusb23e06_At91sam3s4c_64Mhz_Gcc.a(halSleep.o)
 .bss           0x20000d88        0x4 ./../../../../BitCloud/lib/libHAL_deRFusb23e06_At91sam3s4c_64Mhz_Gcc.a(appTimer.o)
 .bss           0x20000d8c        0x4 ./../../../../BitCloud/lib/libHAL_deRFusb23e06_At91sam3s4c_64Mhz_Gcc.a(halTaskManager.o)
                0x20000d8c                halTaskFlags
 .bss           0x20000d90       0x1c ./../../../../BitCloud/lib/libHAL_deRFusb23e06_At91sam3s4c_64Mhz_Gcc.a(sleep.o)
                0x20000d90                halSleepControl
 .bss           0x20000dac       0x20 ./../../../../BitCloud/lib/libHAL_deRFusb23e06_At91sam3s4c_64Mhz_Gcc.a(usart.o)
                0x20000dac                halPointDescrip
 .bss           0x20000dcc        0xc ./../../../../BitCloud/lib/libHAL_deRFusb23e06_At91sam3s4c_64Mhz_Gcc.a(usb.o)
                0x20000dcc                endOfBusResetCallback
                0x20000dd0                resumeCallback
                0x20000dd4                suspendCallback
 .bss           0x20000dd8        0x8 ./../../../../BitCloud/lib/libHAL_deRFusb23e06_At91sam3s4c_64Mhz_Gcc.a(eeprom.o)
 .bss           0x20000de0       0x60 ./../../../../BitCloud/lib/libBc_All_At91sam3s4c_Rf231_Gcc.a(aps.o)
                0x20000e38                apsState
 .bss           0x20000e40        0x8 ./../../../../BitCloud/lib/libBc_All_At91sam3s4c_Rf231_Gcc.a(sysEvents.o)
 .bss           0x20000e48        0x2 ./../../../../BitCloud/lib/libBc_All_At91sam3s4c_Rf231_Gcc.a(taskManager.o)
                0x20000e48                SYS_taskFlag
 *fill*         0x20000e4a        0x2 00
 .bss           0x20000e4c        0x8 ./../../../../BitCloud/lib/libBc_All_At91sam3s4c_Rf231_Gcc.a(machwdManager.o)
                0x20000e4c                machwdQueueDescr
 .bss           0x20000e54        0x1 ./../../../../BitCloud/lib/libBc_All_At91sam3s4c_Rf231_Gcc.a(machwdSetHandler.o)
 .bss           0x20000e55        0x1 ./../../../../BitCloud/lib/libBc_All_At91sam3s4c_Rf231_Gcc.a(machwiScanHandler.o)
 *fill*         0x20000e56        0x2 00
 .bss           0x20000e58       0x24 ./../../../../BitCloud/lib/libHAL_deRFusb23e06_At91sam3s4c_64Mhz_Gcc.a(nv_basic.o)
 *(.bss.*)
 *(.gnu.linkonce.b.*)
 *(COMMON)
 COMMON         0x20000e7c        0xc All_deRFusb23e06_At91sam3s4c_Rf231_Gcc/Obj/fakeBSP.o
                0x20000e7c                readBatteryDataCallback
                0x20000e80                readTemperatureDataCallback
                0x20000e84                readLightDataCallback
 COMMON         0x20000e88      0xcb8 All_deRFusb23e06_At91sam3s4c_Rf231_Gcc/Obj/csMem.o
                0x20000e88                stackBuffers
                0x200019d8                csAIB
                0x200019e0                csZIB
                0x20001a18                csPIB
                0x20001a60                csSIB
                0x20001ab0                csNIB
 COMMON         0x20001b40       0xe4 ./../../../../BitCloud/lib/libHAL_deRFusb23e06_At91sam3s4c_64Mhz_Gcc.a(halUsb.o)
                0x20001b40                deviceState
                0x20001b41                previousDeviceState
                0x20001b44                endpoints
 COMMON         0x20001c24        0x6 ./../../../../BitCloud/lib/libHAL_deRFusb23e06_At91sam3s4c_64Mhz_Gcc.a(halMacIsr.o)
                0x20001c24                __rtimer
 *fill*         0x20001c2a        0x2 00
 COMMON         0x20001c2c       0x48 ./../../../../BitCloud/lib/libHAL_deRFusb23e06_At91sam3s4c_64Mhz_Gcc.a(halExcHandler.o)
                0x20001c2c                halAvarRegState
 *fill*         0x20001c74        0x4 00
 COMMON         0x20001c78      0x158 ./../../../../BitCloud/lib/libBc_All_At91sam3s4c_Rf231_Gcc.a(aps.o)
                0x20001c78                apsMem
 COMMON         0x20001dd0      0x2e0 ./../../../../BitCloud/lib/libBc_All_At91sam3s4c_Rf231_Gcc.a(nwk.o)
                0x20001dd0                nwkMem
 COMMON         0x200020b0      0x548 ./../../../../BitCloud/lib/libBc_All_At91sam3s4c_Rf231_Gcc.a(zdo.o)
                0x200020b0                zdoMem
 COMMON         0x200025f8      0x100 ./../../../../BitCloud/lib/libBc_All_At91sam3s4c_Rf231_Gcc.a(macMem.o)
                0x200025f8                macMem
 COMMON         0x200026f8       0x21 ./../../../../BitCloud/lib/libBc_All_At91sam3s4c_Rf231_Gcc.a(machwdFrameRoutine.o)
                0x200026f8                txBuffer
                0x2000271c                . = ALIGN (0x4)
 *fill*         0x20002719        0x3 00
                0x2000271c                __bss_end = .

.stack          0x20002720     0x1000 load address 0x00412914
                0x20002720                __stack_bottom = .
                0x20002720                __process_stack_bottom = .
                0x20003720                . = (. + MAIN_STACK_SIZE)
 *fill*         0x20002720     0x1000 00
                0x20003720                . = ALIGN (0x8)
                0x20003720                __process_stack_top = .
                0x20003720                __main_stack_bottom = .
                0x20003720                . = (. + PROCESS_STACK_SIZE)
                0x20003720                . = ALIGN (0x8)
                0x20003720                __main_stack_top = .
                0x20003720                __stack_top = .
                0x20003720                __end = .

.stab
 *(.stab)

.stabstr
 *(.stabstr)

.stab.excl
 *(.stab.excl)

.stab.exclstr
 *(.stab.exclstr)

.stab.index
 *(.stab.index)

.stab.indexstr
 *(.stab.indexstr)

.ARM.attributes
                0x00000000       0x2f
 .ARM.attributes
                0x00000000       0x31 All_deRFusb23e06_At91sam3s4c_Rf231_Gcc/Obj/WSNSensorManager.o
 .ARM.attributes
                0x00000031       0x31 All_deRFusb23e06_At91sam3s4c_Rf231_Gcc/Obj/WSNEndDevice.o
 .ARM.attributes
                0x00000062       0x31 All_deRFusb23e06_At91sam3s4c_Rf231_Gcc/Obj/WSNCoord.o
 .ARM.attributes
                0x00000093       0x31 All_deRFusb23e06_At91sam3s4c_Rf231_Gcc/Obj/WSNVisualizer.o
 .ARM.attributes
                0x000000c4       0x31 All_deRFusb23e06_At91sam3s4c_Rf231_Gcc/Obj/WSNMessageSender.o
 .ARM.attributes
                0x000000f5       0x31 All_deRFusb23e06_At91sam3s4c_Rf231_Gcc/Obj/WSNCommandHandler.o
 .ARM.attributes
                0x00000126       0x31 All_deRFusb23e06_At91sam3s4c_Rf231_Gcc/Obj/WSNRouter.o
 .ARM.attributes
                0x00000157       0x31 All_deRFusb23e06_At91sam3s4c_Rf231_Gcc/Obj/WSNDemoApp.o
 .ARM.attributes
                0x00000188       0x31 All_deRFusb23e06_At91sam3s4c_Rf231_Gcc/Obj/WSNUARTManager.o
 .ARM.attributes
                0x000001b9       0x31 All_deRFusb23e06_At91sam3s4c_Rf231_Gcc/Obj/pdsMem.o
 .ARM.attributes
                0x000001ea       0x31 All_deRFusb23e06_At91sam3s4c_Rf231_Gcc/Obj/pdsWriteData.o
 .ARM.attributes
                0x0000021b       0x31 All_deRFusb23e06_At91sam3s4c_Rf231_Gcc/Obj/pdsDataServer.o
 .ARM.attributes
                0x0000024c       0x31 All_deRFusb23e06_At91sam3s4c_Rf231_Gcc/Obj/pdsInit.o
 .ARM.attributes
                0x0000027d       0x31 All_deRFusb23e06_At91sam3s4c_Rf231_Gcc/Obj/pdsTimer.o
 .ARM.attributes
                0x000002ae       0x31 All_deRFusb23e06_At91sam3s4c_Rf231_Gcc/Obj/pdsEvents.o
 .ARM.attributes
                0x000002df       0x31 All_deRFusb23e06_At91sam3s4c_Rf231_Gcc/Obj/pdsMemAccess.o
 .ARM.attributes
                0x00000310       0x31 All_deRFusb23e06_At91sam3s4c_Rf231_Gcc/Obj/pdsCrcService.o
 .ARM.attributes
                0x00000341       0x31 All_deRFusb23e06_At91sam3s4c_Rf231_Gcc/Obj/leds.o
 .ARM.attributes
                0x00000372       0x31 All_deRFusb23e06_At91sam3s4c_Rf231_Gcc/Obj/bspTaskManager.o
 .ARM.attributes
                0x000003a3       0x31 All_deRFusb23e06_At91sam3s4c_Rf231_Gcc/Obj/fakeBSP.o
 .ARM.attributes
                0x000003d4       0x31 All_deRFusb23e06_At91sam3s4c_Rf231_Gcc/Obj/vcpVirtualUsart.o
 .ARM.attributes
                0x00000405       0x31 All_deRFusb23e06_At91sam3s4c_Rf231_Gcc/Obj/vcpCdcProtocol.o
 .ARM.attributes
                0x00000436       0x31 All_deRFusb23e06_At91sam3s4c_Rf231_Gcc/Obj/usbSetupProcess.o
 .ARM.attributes
                0x00000467       0x31 All_deRFusb23e06_At91sam3s4c_Rf231_Gcc/Obj/usbDescriptors.o
 .ARM.attributes
                0x00000498       0x31 All_deRFusb23e06_At91sam3s4c_Rf231_Gcc/Obj/usbEnumeration.o
 .ARM.attributes
                0x000004c9       0x31 All_deRFusb23e06_At91sam3s4c_Rf231_Gcc/Obj/csPersistentMem.o
 .ARM.attributes
                0x000004fa       0x31 All_deRFusb23e06_At91sam3s4c_Rf231_Gcc/Obj/csMem.o
 .ARM.attributes
                0x0000052b       0x31 All_deRFusb23e06_At91sam3s4c_Rf231_Gcc/Obj/configServer.o
 .ARM.attributes
                0x0000055c       0x31 ./../../../../BitCloud/lib/libHAL_deRFusb23e06_At91sam3s4c_64Mhz_Gcc.a(atomic.o)
 .ARM.attributes
                0x0000058d       0x31 ./../../../../BitCloud/lib/libHAL_deRFusb23e06_At91sam3s4c_64Mhz_Gcc.a(core_cm3.o)
 .ARM.attributes
                0x000005be       0x31 ./../../../../BitCloud/lib/libHAL_deRFusb23e06_At91sam3s4c_64Mhz_Gcc.a(halVectorTable.o)
 .ARM.attributes
                0x000005ef       0x31 ./../../../../BitCloud/lib/libHAL_deRFusb23e06_At91sam3s4c_64Mhz_Gcc.a(halAppClock.o)
 .ARM.attributes
                0x00000620       0x31 ./../../../../BitCloud/lib/libHAL_deRFusb23e06_At91sam3s4c_64Mhz_Gcc.a(halUsart.o)
 .ARM.attributes
                0x00000651       0x31 ./../../../../BitCloud/lib/libHAL_deRFusb23e06_At91sam3s4c_64Mhz_Gcc.a(halUart.o)
 .ARM.attributes
                0x00000682       0x31 ./../../../../BitCloud/lib/libHAL_deRFusb23e06_At91sam3s4c_64Mhz_Gcc.a(halUsb.o)
 .ARM.attributes
                0x000006b3       0x31 ./../../../../BitCloud/lib/libHAL_deRFusb23e06_At91sam3s4c_64Mhz_Gcc.a(halIrq.o)
 .ARM.attributes
                0x000006e4       0x31 ./../../../../BitCloud/lib/libHAL_deRFusb23e06_At91sam3s4c_64Mhz_Gcc.a(halHsmci.o)
 .ARM.attributes
                0x00000715       0x31 ./../../../../BitCloud/lib/libHAL_deRFusb23e06_At91sam3s4c_64Mhz_Gcc.a(halSleepTimerClock.o)
 .ARM.attributes
                0x00000746       0x31 ./../../../../BitCloud/lib/libHAL_deRFusb23e06_At91sam3s4c_64Mhz_Gcc.a(halSleep.o)
 .ARM.attributes
                0x00000777       0x31 ./../../../../BitCloud/lib/libHAL_deRFusb23e06_At91sam3s4c_64Mhz_Gcc.a(halStartupGcc.o)
 .ARM.attributes
                0x000007a8       0x31 ./../../../../BitCloud/lib/libHAL_deRFusb23e06_At91sam3s4c_64Mhz_Gcc.a(halRfCtrl.o)
 .ARM.attributes
                0x000007d9       0x31 ./../../../../BitCloud/lib/libHAL_deRFusb23e06_At91sam3s4c_64Mhz_Gcc.a(halRfSpi.o)
 .ARM.attributes
                0x0000080a       0x31 ./../../../../BitCloud/lib/libHAL_deRFusb23e06_At91sam3s4c_64Mhz_Gcc.a(halMacIsr.o)
 .ARM.attributes
                0x0000083b       0x31 ./../../../../BitCloud/lib/libHAL_deRFusb23e06_At91sam3s4c_64Mhz_Gcc.a(appTimer.o)
 .ARM.attributes
                0x0000086c       0x31 ./../../../../BitCloud/lib/libHAL_deRFusb23e06_At91sam3s4c_64Mhz_Gcc.a(halTaskManager.o)
 .ARM.attributes
                0x0000089d       0x31 ./../../../../BitCloud/lib/libHAL_deRFusb23e06_At91sam3s4c_64Mhz_Gcc.a(sleep.o)
 .ARM.attributes
                0x000008ce       0x31 ./../../../../BitCloud/lib/libHAL_deRFusb23e06_At91sam3s4c_64Mhz_Gcc.a(timer.o)
 .ARM.attributes
                0x000008ff       0x31 ./../../../../BitCloud/lib/libHAL_deRFusb23e06_At91sam3s4c_64Mhz_Gcc.a(usart.o)
 .ARM.attributes
                0x00000930       0x31 ./../../../../BitCloud/lib/libHAL_deRFusb23e06_At91sam3s4c_64Mhz_Gcc.a(uart.o)
 .ARM.attributes
                0x00000961       0x31 ./../../../../BitCloud/lib/libHAL_deRFusb23e06_At91sam3s4c_64Mhz_Gcc.a(usb.o)
 .ARM.attributes
                0x00000992       0x31 ./../../../../BitCloud/lib/libHAL_deRFusb23e06_At91sam3s4c_64Mhz_Gcc.a(eeprom.o)
 .ARM.attributes
                0x000009c3       0x31 ./../../../../BitCloud/lib/libHAL_deRFusb23e06_At91sam3s4c_64Mhz_Gcc.a(sleepTimer.o)
 .ARM.attributes
                0x000009f4       0x21 ./../../../../BitCloud/lib/libHAL_deRFusb23e06_At91sam3s4c_64Mhz_Gcc.a(halExceptionGcc.o)
 .ARM.attributes
                0x00000a15       0x31 ./../../../../BitCloud/lib/libHAL_deRFusb23e06_At91sam3s4c_64Mhz_Gcc.a(halLowLevelInit.o)
 .ARM.attributes
                0x00000a46       0x31 ./../../../../BitCloud/lib/libHAL_deRFusb23e06_At91sam3s4c_64Mhz_Gcc.a(halExcHandler.o)
 .ARM.attributes
                0x00000a77       0x31 ./../../../../BitCloud/lib/libHAL_deRFusb23e06_At91sam3s4c_64Mhz_Gcc.a(halFlash.o)
 .ARM.attributes
                0x00000aa8       0x31 ./../../../../BitCloud/lib/libBc_All_At91sam3s4c_Rf231_Gcc.a(aps.o)
 .ARM.attributes
                0x00000ad9       0x31 ./../../../../BitCloud/lib/libBc_All_At91sam3s4c_Rf231_Gcc.a(macenvPib.o)
 .ARM.attributes
                0x00000b0a       0x31 ./../../../../BitCloud/lib/libBc_All_At91sam3s4c_Rf231_Gcc.a(nwk.o)
 .ARM.attributes
                0x00000b3b       0x31 ./../../../../BitCloud/lib/libBc_All_At91sam3s4c_Rf231_Gcc.a(phyRfIrqDispatcher.o)
 .ARM.attributes
                0x00000b6c       0x31 ./../../../../BitCloud/lib/libBc_All_At91sam3s4c_Rf231_Gcc.a(phyRtimerIrqDispatcher.o)
 .ARM.attributes
                0x00000b9d       0x31 ./../../../../BitCloud/lib/libBc_All_At91sam3s4c_Rf231_Gcc.a(phyRxTxIndicator.o)
 .ARM.attributes
                0x00000bce       0x31 ./../../../../BitCloud/lib/libBc_All_At91sam3s4c_Rf231_Gcc.a(queue.o)
 .ARM.attributes
                0x00000bff       0x31 ./../../../../BitCloud/lib/libBc_All_At91sam3s4c_Rf231_Gcc.a(sysDuplicateTable.o)
 .ARM.attributes
                0x00000c30       0x31 ./../../../../BitCloud/lib/libBc_All_At91sam3s4c_Rf231_Gcc.a(sysEvents.o)
 .ARM.attributes
                0x00000c61       0x31 ./../../../../BitCloud/lib/libBc_All_At91sam3s4c_Rf231_Gcc.a(sysTimer.o)
 .ARM.attributes
                0x00000c92       0x31 ./../../../../BitCloud/lib/libBc_All_At91sam3s4c_Rf231_Gcc.a(taskManager.o)
 .ARM.attributes
                0x00000cc3       0x31 ./../../../../BitCloud/lib/libBc_All_At91sam3s4c_Rf231_Gcc.a(zdo.o)
 .ARM.attributes
                0x00000cf4       0x31 ./../../../../BitCloud/lib/libBc_All_At91sam3s4c_Rf231_Gcc.a(bcSysSleep.o)
 .ARM.attributes
                0x00000d25       0x31 ./../../../../BitCloud/lib/libBc_All_At91sam3s4c_Rf231_Gcc.a(macMem.o)
 .ARM.attributes
                0x00000d56       0x31 ./../../../../BitCloud/lib/libBc_All_At91sam3s4c_Rf231_Gcc.a(machwdManager.o)
 .ARM.attributes
                0x00000d87       0x31 ./../../../../BitCloud/lib/libBc_All_At91sam3s4c_Rf231_Gcc.a(machwdRegAccessHandler.o)
 .ARM.attributes
                0x00000db8       0x31 ./../../../../BitCloud/lib/libBc_All_At91sam3s4c_Rf231_Gcc.a(machwdResetHandler.o)
 .ARM.attributes
                0x00000de9       0x31 ./../../../../BitCloud/lib/libBc_All_At91sam3s4c_Rf231_Gcc.a(machwdRndHandler.o)
 .ARM.attributes
                0x00000e1a       0x31 ./../../../../BitCloud/lib/libBc_All_At91sam3s4c_Rf231_Gcc.a(machwdRxBuffer.o)
 .ARM.attributes
                0x00000e4b       0x31 ./../../../../BitCloud/lib/libBc_All_At91sam3s4c_Rf231_Gcc.a(machwdRxFrameHandler.o)
 .ARM.attributes
                0x00000e7c       0x31 ./../../../../BitCloud/lib/libBc_All_At91sam3s4c_Rf231_Gcc.a(machwdSetHandler.o)
 .ARM.attributes
                0x00000ead       0x31 ./../../../../BitCloud/lib/libBc_All_At91sam3s4c_Rf231_Gcc.a(machwdTrxCtrl.o)
 .ARM.attributes
                0x00000ede       0x31 ./../../../../BitCloud/lib/libBc_All_At91sam3s4c_Rf231_Gcc.a(machwdTrxHandler.o)
 .ARM.attributes
                0x00000f0f       0x31 ./../../../../BitCloud/lib/libBc_All_At91sam3s4c_Rf231_Gcc.a(machwdTxFrameHandler.o)
 .ARM.attributes
                0x00000f40       0x31 ./../../../../BitCloud/lib/libBc_All_At91sam3s4c_Rf231_Gcc.a(machwiManager.o)
 .ARM.attributes
                0x00000f71       0x31 ./../../../../BitCloud/lib/libBc_All_At91sam3s4c_Rf231_Gcc.a(machwiOrphanHandler.o)
 .ARM.attributes
                0x00000fa2       0x31 ./../../../../BitCloud/lib/libBc_All_At91sam3s4c_Rf231_Gcc.a(machwiPanServer.o)
 .ARM.attributes
                0x00000fd3       0x31 ./../../../../BitCloud/lib/libBc_All_At91sam3s4c_Rf231_Gcc.a(machwiPollHandler.o)
 .ARM.attributes
                0x00001004       0x31 ./../../../../BitCloud/lib/libBc_All_At91sam3s4c_Rf231_Gcc.a(machwiPurgeHandler.o)
 .ARM.attributes
                0x00001035       0x31 ./../../../../BitCloud/lib/libBc_All_At91sam3s4c_Rf231_Gcc.a(machwiResetHandler.o)
 .ARM.attributes
                0x00001066       0x31 ./../../../../BitCloud/lib/libBc_All_At91sam3s4c_Rf231_Gcc.a(machwiRxEnableHandler.o)
 .ARM.attributes
                0x00001097       0x31 ./../../../../BitCloud/lib/libBc_All_At91sam3s4c_Rf231_Gcc.a(machwiScanHandler.o)
 .ARM.attributes
                0x000010c8       0x31 ./../../../../BitCloud/lib/libBc_All_At91sam3s4c_Rf231_Gcc.a(machwiSetGetHandler.o)
 .ARM.attributes
                0x000010f9       0x31 ./../../../../BitCloud/lib/libBc_All_At91sam3s4c_Rf231_Gcc.a(machwiStartHandler.o)
 .ARM.attributes
                0x0000112a       0x31 ./../../../../BitCloud/lib/libBc_All_At91sam3s4c_Rf231_Gcc.a(machwiSwitchRxCtrl.o)
 .ARM.attributes
                0x0000115b       0x31 ./../../../../BitCloud/lib/libBc_All_At91sam3s4c_Rf231_Gcc.a(machwiTransactionHandler.o)
 .ARM.attributes
                0x0000118c       0x31 ./../../../../BitCloud/lib/libBc_All_At91sam3s4c_Rf231_Gcc.a(machwiTransactionQueue.o)
 .ARM.attributes
                0x000011bd       0x31 ./../../../../BitCloud/lib/libBc_All_At91sam3s4c_Rf231_Gcc.a(phyInit.o)
 .ARM.attributes
                0x000011ee       0x31 ./../../../../BitCloud/lib/libBc_All_At91sam3s4c_Rf231_Gcc.a(phyRegAccess.o)
 .ARM.attributes
                0x0000121f       0x31 ./../../../../BitCloud/lib/libBc_All_At91sam3s4c_Rf231_Gcc.a(phyReset.o)
 .ARM.attributes
                0x00001250       0x31 ./../../../../BitCloud/lib/libBc_All_At91sam3s4c_Rf231_Gcc.a(phyRfSpiProto.o)
 .ARM.attributes
                0x00001281       0x31 ./../../../../BitCloud/lib/libBc_All_At91sam3s4c_Rf231_Gcc.a(phyRnd.o)
 .ARM.attributes
                0x000012b2       0x31 ./../../../../BitCloud/lib/libBc_All_At91sam3s4c_Rf231_Gcc.a(phyRxFrame.o)
 .ARM.attributes
                0x000012e3       0x31 ./../../../../BitCloud/lib/libBc_All_At91sam3s4c_Rf231_Gcc.a(phySet.o)
 .ARM.attributes
                0x00001314       0x31 ./../../../../BitCloud/lib/libBc_All_At91sam3s4c_Rf231_Gcc.a(phySetTrxState.o)
 .ARM.attributes
                0x00001345       0x31 ./../../../../BitCloud/lib/libBc_All_At91sam3s4c_Rf231_Gcc.a(phyStateMachine.o)
 .ARM.attributes
                0x00001376       0x31 ./../../../../BitCloud/lib/libBc_All_At91sam3s4c_Rf231_Gcc.a(phyTxFrame.o)
 .ARM.attributes
                0x000013a7       0x31 ./../../../../BitCloud/lib/libBc_All_At91sam3s4c_Rf231_Gcc.a(machwdCalibHandler.o)
 .ARM.attributes
                0x000013d8       0x31 ./../../../../BitCloud/lib/libBc_All_At91sam3s4c_Rf231_Gcc.a(machwdEdHandler.o)
 .ARM.attributes
                0x00001409       0x31 ./../../../../BitCloud/lib/libBc_All_At91sam3s4c_Rf231_Gcc.a(machwdFrameRoutine.o)
 .ARM.attributes
                0x0000143a       0x31 ./../../../../BitCloud/lib/libBc_All_At91sam3s4c_Rf231_Gcc.a(machwdHandlerCtrl.o)
 .ARM.attributes
                0x0000146b       0x31 ./../../../../BitCloud/lib/libBc_All_At91sam3s4c_Rf231_Gcc.a(machwiAssociateHandler.o)
 .ARM.attributes
                0x0000149c       0x31 ./../../../../BitCloud/lib/libBc_All_At91sam3s4c_Rf231_Gcc.a(machwiBeaconHandler.o)
 .ARM.attributes
                0x000014cd       0x31 ./../../../../BitCloud/lib/libBc_All_At91sam3s4c_Rf231_Gcc.a(machwiDataHandler.o)
 .ARM.attributes
                0x000014fe       0x31 ./../../../../BitCloud/lib/libBc_All_At91sam3s4c_Rf231_Gcc.a(phyCalib.o)
 .ARM.attributes
                0x0000152f       0x31 ./../../../../BitCloud/lib/libBc_All_At91sam3s4c_Rf231_Gcc.a(phyEd.o)
 .ARM.attributes
                0x00001560       0x31 ./../../../../BitCloud/lib/libHAL_deRFusb23e06_At91sam3s4c_64Mhz_Gcc.a(halInit.o)
 .ARM.attributes
                0x00001591       0x31 ./../../../../BitCloud/lib/libHAL_deRFusb23e06_At91sam3s4c_64Mhz_Gcc.a(uid.o)
 .ARM.attributes
                0x000015c2       0x31 ./../../../../BitCloud/lib/libHAL_deRFusb23e06_At91sam3s4c_64Mhz_Gcc.a(nv_basic.o)
 .ARM.attributes
                0x000015f3       0x27 c:/users/user/desktop/winsync/code_files/sabre/_toolchains/yagarto_arm/bin/../lib/gcc/arm-none-eabi/4.5.1/../../../../arm-none-eabi/lib/thumb/v7m\libc.a(lib_a-memcmp.o)
 .ARM.attributes
                0x0000161a       0x27 c:/users/user/desktop/winsync/code_files/sabre/_toolchains/yagarto_arm/bin/../lib/gcc/arm-none-eabi/4.5.1/../../../../arm-none-eabi/lib/thumb/v7m\libc.a(lib_a-memcpy.o)
 .ARM.attributes
                0x00001641       0x27 c:/users/user/desktop/winsync/code_files/sabre/_toolchains/yagarto_arm/bin/../lib/gcc/arm-none-eabi/4.5.1/../../../../arm-none-eabi/lib/thumb/v7m\libc.a(lib_a-memmove.o)
 .ARM.attributes
                0x00001668       0x27 c:/users/user/desktop/winsync/code_files/sabre/_toolchains/yagarto_arm/bin/../lib/gcc/arm-none-eabi/4.5.1/../../../../arm-none-eabi/lib/thumb/v7m\libc.a(lib_a-memset.o)
 .ARM.attributes
                0x0000168f       0x27 c:/users/user/desktop/winsync/code_files/sabre/_toolchains/yagarto_arm/bin/../lib/gcc/arm-none-eabi/4.5.1/../../../../arm-none-eabi/lib/thumb/v7m\libc.a(lib_a-rand.o)
 .ARM.attributes
                0x000016b6       0x27 c:/users/user/desktop/winsync/code_files/sabre/_toolchains/yagarto_arm/bin/../lib/gcc/arm-none-eabi/4.5.1/../../../../arm-none-eabi/lib/thumb/v7m\libc.a(lib_a-impure.o)

.comment        0x00000000       0x33
 *(.comment)
 .comment       0x00000000       0x11 All_deRFusb23e06_At91sam3s4c_Rf231_Gcc/Obj/WSNSensorManager.o
                                 0x12 (size before relaxing)
 .comment       0x00000000       0x12 All_deRFusb23e06_At91sam3s4c_Rf231_Gcc/Obj/WSNEndDevice.o
 .comment       0x00000000       0x12 All_deRFusb23e06_At91sam3s4c_Rf231_Gcc/Obj/WSNCoord.o
 .comment       0x00000000       0x12 All_deRFusb23e06_At91sam3s4c_Rf231_Gcc/Obj/WSNVisualizer.o
 .comment       0x00000000       0x12 All_deRFusb23e06_At91sam3s4c_Rf231_Gcc/Obj/WSNMessageSender.o
 .comment       0x00000000       0x12 All_deRFusb23e06_At91sam3s4c_Rf231_Gcc/Obj/WSNCommandHandler.o
 .comment       0x00000000       0x12 All_deRFusb23e06_At91sam3s4c_Rf231_Gcc/Obj/WSNRouter.o
 .comment       0x00000000       0x12 All_deRFusb23e06_At91sam3s4c_Rf231_Gcc/Obj/WSNDemoApp.o
 .comment       0x00000000       0x12 All_deRFusb23e06_At91sam3s4c_Rf231_Gcc/Obj/WSNUARTManager.o
 .comment       0x00000000       0x12 All_deRFusb23e06_At91sam3s4c_Rf231_Gcc/Obj/pdsMem.o
 .comment       0x00000000       0x12 All_deRFusb23e06_At91sam3s4c_Rf231_Gcc/Obj/pdsWriteData.o
 .comment       0x00000000       0x12 All_deRFusb23e06_At91sam3s4c_Rf231_Gcc/Obj/pdsDataServer.o
 .comment       0x00000000       0x12 All_deRFusb23e06_At91sam3s4c_Rf231_Gcc/Obj/pdsInit.o
 .comment       0x00000000       0x12 All_deRFusb23e06_At91sam3s4c_Rf231_Gcc/Obj/pdsTimer.o
 .comment       0x00000000       0x12 All_deRFusb23e06_At91sam3s4c_Rf231_Gcc/Obj/pdsEvents.o
 .comment       0x00000000       0x12 All_deRFusb23e06_At91sam3s4c_Rf231_Gcc/Obj/pdsMemAccess.o
 .comment       0x00000000       0x12 All_deRFusb23e06_At91sam3s4c_Rf231_Gcc/Obj/pdsCrcService.o
 .comment       0x00000000       0x12 All_deRFusb23e06_At91sam3s4c_Rf231_Gcc/Obj/leds.o
 .comment       0x00000000       0x12 All_deRFusb23e06_At91sam3s4c_Rf231_Gcc/Obj/bspTaskManager.o
 .comment       0x00000000       0x12 All_deRFusb23e06_At91sam3s4c_Rf231_Gcc/Obj/fakeBSP.o
 .comment       0x00000000       0x12 All_deRFusb23e06_At91sam3s4c_Rf231_Gcc/Obj/vcpVirtualUsart.o
 .comment       0x00000000       0x12 All_deRFusb23e06_At91sam3s4c_Rf231_Gcc/Obj/vcpCdcProtocol.o
 .comment       0x00000000       0x12 All_deRFusb23e06_At91sam3s4c_Rf231_Gcc/Obj/usbSetupProcess.o
 .comment       0x00000000       0x12 All_deRFusb23e06_At91sam3s4c_Rf231_Gcc/Obj/usbDescriptors.o
 .comment       0x00000000       0x12 All_deRFusb23e06_At91sam3s4c_Rf231_Gcc/Obj/usbEnumeration.o
 .comment       0x00000000       0x12 All_deRFusb23e06_At91sam3s4c_Rf231_Gcc/Obj/csPersistentMem.o
 .comment       0x00000000       0x12 All_deRFusb23e06_At91sam3s4c_Rf231_Gcc/Obj/csMem.o
 .comment       0x00000000       0x12 All_deRFusb23e06_At91sam3s4c_Rf231_Gcc/Obj/configServer.o
 .comment       0x00000011       0x11 ./../../../../BitCloud/lib/libHAL_deRFusb23e06_At91sam3s4c_64Mhz_Gcc.a(atomic.o)
                                 0x12 (size before relaxing)
 .comment       0x00000000       0x12 ./../../../../BitCloud/lib/libHAL_deRFusb23e06_At91sam3s4c_64Mhz_Gcc.a(core_cm3.o)
 .comment       0x00000000       0x12 ./../../../../BitCloud/lib/libHAL_deRFusb23e06_At91sam3s4c_64Mhz_Gcc.a(halVectorTable.o)
 .comment       0x00000000       0x12 ./../../../../BitCloud/lib/libHAL_deRFusb23e06_At91sam3s4c_64Mhz_Gcc.a(halAppClock.o)
 .comment       0x00000000       0x12 ./../../../../BitCloud/lib/libHAL_deRFusb23e06_At91sam3s4c_64Mhz_Gcc.a(halUsart.o)
 .comment       0x00000000       0x12 ./../../../../BitCloud/lib/libHAL_deRFusb23e06_At91sam3s4c_64Mhz_Gcc.a(halUart.o)
 .comment       0x00000000       0x12 ./../../../../BitCloud/lib/libHAL_deRFusb23e06_At91sam3s4c_64Mhz_Gcc.a(halUsb.o)
 .comment       0x00000000       0x12 ./../../../../BitCloud/lib/libHAL_deRFusb23e06_At91sam3s4c_64Mhz_Gcc.a(halIrq.o)
 .comment       0x00000000       0x12 ./../../../../BitCloud/lib/libHAL_deRFusb23e06_At91sam3s4c_64Mhz_Gcc.a(halHsmci.o)
 .comment       0x00000000       0x12 ./../../../../BitCloud/lib/libHAL_deRFusb23e06_At91sam3s4c_64Mhz_Gcc.a(halSleepTimerClock.o)
 .comment       0x00000000       0x12 ./../../../../BitCloud/lib/libHAL_deRFusb23e06_At91sam3s4c_64Mhz_Gcc.a(halSleep.o)
 .comment       0x00000000       0x12 ./../../../../BitCloud/lib/libHAL_deRFusb23e06_At91sam3s4c_64Mhz_Gcc.a(halStartupGcc.o)
 .comment       0x00000000       0x12 ./../../../../BitCloud/lib/libHAL_deRFusb23e06_At91sam3s4c_64Mhz_Gcc.a(halRfCtrl.o)
 .comment       0x00000000       0x12 ./../../../../BitCloud/lib/libHAL_deRFusb23e06_At91sam3s4c_64Mhz_Gcc.a(halRfSpi.o)
 .comment       0x00000000       0x12 ./../../../../BitCloud/lib/libHAL_deRFusb23e06_At91sam3s4c_64Mhz_Gcc.a(halMacIsr.o)
 .comment       0x00000000       0x12 ./../../../../BitCloud/lib/libHAL_deRFusb23e06_At91sam3s4c_64Mhz_Gcc.a(appTimer.o)
 .comment       0x00000000       0x12 ./../../../../BitCloud/lib/libHAL_deRFusb23e06_At91sam3s4c_64Mhz_Gcc.a(halTaskManager.o)
 .comment       0x00000000       0x12 ./../../../../BitCloud/lib/libHAL_deRFusb23e06_At91sam3s4c_64Mhz_Gcc.a(sleep.o)
 .comment       0x00000000       0x12 ./../../../../BitCloud/lib/libHAL_deRFusb23e06_At91sam3s4c_64Mhz_Gcc.a(timer.o)
 .comment       0x00000000       0x12 ./../../../../BitCloud/lib/libHAL_deRFusb23e06_At91sam3s4c_64Mhz_Gcc.a(usart.o)
 .comment       0x00000000       0x12 ./../../../../BitCloud/lib/libHAL_deRFusb23e06_At91sam3s4c_64Mhz_Gcc.a(uart.o)
 .comment       0x00000000       0x12 ./../../../../BitCloud/lib/libHAL_deRFusb23e06_At91sam3s4c_64Mhz_Gcc.a(usb.o)
 .comment       0x00000000       0x12 ./../../../../BitCloud/lib/libHAL_deRFusb23e06_At91sam3s4c_64Mhz_Gcc.a(eeprom.o)
 .comment       0x00000000       0x12 ./../../../../BitCloud/lib/libHAL_deRFusb23e06_At91sam3s4c_64Mhz_Gcc.a(sleepTimer.o)
 .comment       0x00000000       0x12 ./../../../../BitCloud/lib/libHAL_deRFusb23e06_At91sam3s4c_64Mhz_Gcc.a(halLowLevelInit.o)
 .comment       0x00000000       0x12 ./../../../../BitCloud/lib/libHAL_deRFusb23e06_At91sam3s4c_64Mhz_Gcc.a(halExcHandler.o)
 .comment       0x00000000       0x12 ./../../../../BitCloud/lib/libHAL_deRFusb23e06_At91sam3s4c_64Mhz_Gcc.a(halFlash.o)
 .comment       0x00000022       0x11 ./../../../../BitCloud/lib/libBc_All_At91sam3s4c_Rf231_Gcc.a(aps.o)
                                 0x12 (size before relaxing)
 .comment       0x00000000       0x12 ./../../../../BitCloud/lib/libBc_All_At91sam3s4c_Rf231_Gcc.a(macenvPib.o)
 .comment       0x00000000       0x12 ./../../../../BitCloud/lib/libBc_All_At91sam3s4c_Rf231_Gcc.a(nwk.o)
 .comment       0x00000000       0x12 ./../../../../BitCloud/lib/libBc_All_At91sam3s4c_Rf231_Gcc.a(phyRfIrqDispatcher.o)
 .comment       0x00000000       0x12 ./../../../../BitCloud/lib/libBc_All_At91sam3s4c_Rf231_Gcc.a(phyRtimerIrqDispatcher.o)
 .comment       0x00000000       0x12 ./../../../../BitCloud/lib/libBc_All_At91sam3s4c_Rf231_Gcc.a(phyRxTxIndicator.o)
 .comment       0x00000000       0x12 ./../../../../BitCloud/lib/libBc_All_At91sam3s4c_Rf231_Gcc.a(queue.o)
 .comment       0x00000000       0x12 ./../../../../BitCloud/lib/libBc_All_At91sam3s4c_Rf231_Gcc.a(sysDuplicateTable.o)
 .comment       0x00000000       0x12 ./../../../../BitCloud/lib/libBc_All_At91sam3s4c_Rf231_Gcc.a(sysEvents.o)
 .comment       0x00000000       0x12 ./../../../../BitCloud/lib/libBc_All_At91sam3s4c_Rf231_Gcc.a(sysTimer.o)
 .comment       0x00000000       0x12 ./../../../../BitCloud/lib/libBc_All_At91sam3s4c_Rf231_Gcc.a(taskManager.o)
 .comment       0x00000000       0x12 ./../../../../BitCloud/lib/libBc_All_At91sam3s4c_Rf231_Gcc.a(zdo.o)
 .comment       0x00000000       0x12 ./../../../../BitCloud/lib/libBc_All_At91sam3s4c_Rf231_Gcc.a(bcSysSleep.o)
 .comment       0x00000000       0x12 ./../../../../BitCloud/lib/libBc_All_At91sam3s4c_Rf231_Gcc.a(macMem.o)
 .comment       0x00000000       0x12 ./../../../../BitCloud/lib/libBc_All_At91sam3s4c_Rf231_Gcc.a(machwdManager.o)
 .comment       0x00000000       0x12 ./../../../../BitCloud/lib/libBc_All_At91sam3s4c_Rf231_Gcc.a(machwdRegAccessHandler.o)
 .comment       0x00000000       0x12 ./../../../../BitCloud/lib/libBc_All_At91sam3s4c_Rf231_Gcc.a(machwdResetHandler.o)
 .comment       0x00000000       0x12 ./../../../../BitCloud/lib/libBc_All_At91sam3s4c_Rf231_Gcc.a(machwdRndHandler.o)
 .comment       0x00000000       0x12 ./../../../../BitCloud/lib/libBc_All_At91sam3s4c_Rf231_Gcc.a(machwdRxBuffer.o)
 .comment       0x00000000       0x12 ./../../../../BitCloud/lib/libBc_All_At91sam3s4c_Rf231_Gcc.a(machwdRxFrameHandler.o)
 .comment       0x00000000       0x12 ./../../../../BitCloud/lib/libBc_All_At91sam3s4c_Rf231_Gcc.a(machwdSetHandler.o)
 .comment       0x00000000       0x12 ./../../../../BitCloud/lib/libBc_All_At91sam3s4c_Rf231_Gcc.a(machwdTrxCtrl.o)
 .comment       0x00000000       0x12 ./../../../../BitCloud/lib/libBc_All_At91sam3s4c_Rf231_Gcc.a(machwdTrxHandler.o)
 .comment       0x00000000       0x12 ./../../../../BitCloud/lib/libBc_All_At91sam3s4c_Rf231_Gcc.a(machwdTxFrameHandler.o)
 .comment       0x00000000       0x12 ./../../../../BitCloud/lib/libBc_All_At91sam3s4c_Rf231_Gcc.a(machwiManager.o)
 .comment       0x00000000       0x12 ./../../../../BitCloud/lib/libBc_All_At91sam3s4c_Rf231_Gcc.a(machwiOrphanHandler.o)
 .comment       0x00000000       0x12 ./../../../../BitCloud/lib/libBc_All_At91sam3s4c_Rf231_Gcc.a(machwiPanServer.o)
 .comment       0x00000000       0x12 ./../../../../BitCloud/lib/libBc_All_At91sam3s4c_Rf231_Gcc.a(machwiPollHandler.o)
 .comment       0x00000000       0x12 ./../../../../BitCloud/lib/libBc_All_At91sam3s4c_Rf231_Gcc.a(machwiPurgeHandler.o)
 .comment       0x00000000       0x12 ./../../../../BitCloud/lib/libBc_All_At91sam3s4c_Rf231_Gcc.a(machwiResetHandler.o)
 .comment       0x00000000       0x12 ./../../../../BitCloud/lib/libBc_All_At91sam3s4c_Rf231_Gcc.a(machwiRxEnableHandler.o)
 .comment       0x00000000       0x12 ./../../../../BitCloud/lib/libBc_All_At91sam3s4c_Rf231_Gcc.a(machwiScanHandler.o)
 .comment       0x00000000       0x12 ./../../../../BitCloud/lib/libBc_All_At91sam3s4c_Rf231_Gcc.a(machwiSetGetHandler.o)
 .comment       0x00000000       0x12 ./../../../../BitCloud/lib/libBc_All_At91sam3s4c_Rf231_Gcc.a(machwiStartHandler.o)
 .comment       0x00000000       0x12 ./../../../../BitCloud/lib/libBc_All_At91sam3s4c_Rf231_Gcc.a(machwiSwitchRxCtrl.o)
 .comment       0x00000000       0x12 ./../../../../BitCloud/lib/libBc_All_At91sam3s4c_Rf231_Gcc.a(machwiTransactionHandler.o)
 .comment       0x00000000       0x12 ./../../../../BitCloud/lib/libBc_All_At91sam3s4c_Rf231_Gcc.a(machwiTransactionQueue.o)
 .comment       0x00000000       0x12 ./../../../../BitCloud/lib/libBc_All_At91sam3s4c_Rf231_Gcc.a(phyInit.o)
 .comment       0x00000000       0x12 ./../../../../BitCloud/lib/libBc_All_At91sam3s4c_Rf231_Gcc.a(phyRegAccess.o)
 .comment       0x00000000       0x12 ./../../../../BitCloud/lib/libBc_All_At91sam3s4c_Rf231_Gcc.a(phyReset.o)
 .comment       0x00000000       0x12 ./../../../../BitCloud/lib/libBc_All_At91sam3s4c_Rf231_Gcc.a(phyRfSpiProto.o)
 .comment       0x00000000       0x12 ./../../../../BitCloud/lib/libBc_All_At91sam3s4c_Rf231_Gcc.a(phyRnd.o)
 .comment       0x00000000       0x12 ./../../../../BitCloud/lib/libBc_All_At91sam3s4c_Rf231_Gcc.a(phyRxFrame.o)
 .comment       0x00000000       0x12 ./../../../../BitCloud/lib/libBc_All_At91sam3s4c_Rf231_Gcc.a(phySet.o)
 .comment       0x00000000       0x12 ./../../../../BitCloud/lib/libBc_All_At91sam3s4c_Rf231_Gcc.a(phySetTrxState.o)
 .comment       0x00000000       0x12 ./../../../../BitCloud/lib/libBc_All_At91sam3s4c_Rf231_Gcc.a(phyStateMachine.o)
 .comment       0x00000000       0x12 ./../../../../BitCloud/lib/libBc_All_At91sam3s4c_Rf231_Gcc.a(phyTxFrame.o)
 .comment       0x00000000       0x12 ./../../../../BitCloud/lib/libBc_All_At91sam3s4c_Rf231_Gcc.a(machwdCalibHandler.o)
 .comment       0x00000000       0x12 ./../../../../BitCloud/lib/libBc_All_At91sam3s4c_Rf231_Gcc.a(machwdEdHandler.o)
 .comment       0x00000000       0x12 ./../../../../BitCloud/lib/libBc_All_At91sam3s4c_Rf231_Gcc.a(machwdFrameRoutine.o)
 .comment       0x00000000       0x12 ./../../../../BitCloud/lib/libBc_All_At91sam3s4c_Rf231_Gcc.a(machwdHandlerCtrl.o)
 .comment       0x00000000       0x12 ./../../../../BitCloud/lib/libBc_All_At91sam3s4c_Rf231_Gcc.a(machwiAssociateHandler.o)
 .comment       0x00000000       0x12 ./../../../../BitCloud/lib/libBc_All_At91sam3s4c_Rf231_Gcc.a(machwiBeaconHandler.o)
 .comment       0x00000000       0x12 ./../../../../BitCloud/lib/libBc_All_At91sam3s4c_Rf231_Gcc.a(machwiDataHandler.o)
 .comment       0x00000000       0x12 ./../../../../BitCloud/lib/libBc_All_At91sam3s4c_Rf231_Gcc.a(phyCalib.o)
 .comment       0x00000000       0x12 ./../../../../BitCloud/lib/libBc_All_At91sam3s4c_Rf231_Gcc.a(phyEd.o)
 .comment       0x00000000       0x12 ./../../../../BitCloud/lib/libHAL_deRFusb23e06_At91sam3s4c_64Mhz_Gcc.a(halInit.o)
 .comment       0x00000000       0x12 ./../../../../BitCloud/lib/libHAL_deRFusb23e06_At91sam3s4c_64Mhz_Gcc.a(uid.o)
 .comment       0x00000000       0x12 ./../../../../BitCloud/lib/libHAL_deRFusb23e06_At91sam3s4c_64Mhz_Gcc.a(nv_basic.o)
 .comment       0x00000000       0x12 c:/users/user/desktop/winsync/code_files/sabre/_toolchains/yagarto_arm/bin/../lib/gcc/arm-none-eabi/4.5.1/../../../../arm-none-eabi/lib/thumb/v7m\libc.a(lib_a-memcmp.o)
 .comment       0x00000000       0x12 c:/users/user/desktop/winsync/code_files/sabre/_toolchains/yagarto_arm/bin/../lib/gcc/arm-none-eabi/4.5.1/../../../../arm-none-eabi/lib/thumb/v7m\libc.a(lib_a-memcpy.o)
 .comment       0x00000000       0x12 c:/users/user/desktop/winsync/code_files/sabre/_toolchains/yagarto_arm/bin/../lib/gcc/arm-none-eabi/4.5.1/../../../../arm-none-eabi/lib/thumb/v7m\libc.a(lib_a-memmove.o)
 .comment       0x00000000       0x12 c:/users/user/desktop/winsync/code_files/sabre/_toolchains/yagarto_arm/bin/../lib/gcc/arm-none-eabi/4.5.1/../../../../arm-none-eabi/lib/thumb/v7m\libc.a(lib_a-memset.o)
 .comment       0x00000000       0x12 c:/users/user/desktop/winsync/code_files/sabre/_toolchains/yagarto_arm/bin/../lib/gcc/arm-none-eabi/4.5.1/../../../../arm-none-eabi/lib/thumb/v7m\libc.a(lib_a-rand.o)
 .comment       0x00000000       0x12 c:/users/user/desktop/winsync/code_files/sabre/_toolchains/yagarto_arm/bin/../lib/gcc/arm-none-eabi/4.5.1/../../../../arm-none-eabi/lib/thumb/v7m\libc.a(lib_a-impure.o)

.debug
 *(.debug)

.line
 *(.line)

.debug_srcinfo
 *(.debug_srcinfo)

.debug_sfnames
 *(.debug_sfnames)

.debug_aranges  0x00000000      0x728
 *(.debug_aranges)
 .debug_aranges
                0x00000000       0x48 All_deRFusb23e06_At91sam3s4c_Rf231_Gcc/Obj/WSNSensorManager.o
 .debug_aranges
                0x00000048       0x68 All_deRFusb23e06_At91sam3s4c_Rf231_Gcc/Obj/WSNEndDevice.o
 .debug_aranges
                0x000000b0       0x60 All_deRFusb23e06_At91sam3s4c_Rf231_Gcc/Obj/WSNCoord.o
 .debug_aranges
                0x00000110       0x78 All_deRFusb23e06_At91sam3s4c_Rf231_Gcc/Obj/WSNVisualizer.o
 .debug_aranges
                0x00000188       0x48 All_deRFusb23e06_At91sam3s4c_Rf231_Gcc/Obj/WSNMessageSender.o
 .debug_aranges
                0x000001d0       0x38 All_deRFusb23e06_At91sam3s4c_Rf231_Gcc/Obj/WSNCommandHandler.o
 .debug_aranges
                0x00000208       0x58 All_deRFusb23e06_At91sam3s4c_Rf231_Gcc/Obj/WSNRouter.o
 .debug_aranges
                0x00000260       0xc8 All_deRFusb23e06_At91sam3s4c_Rf231_Gcc/Obj/WSNDemoApp.o
 .debug_aranges
                0x00000328       0x58 All_deRFusb23e06_At91sam3s4c_Rf231_Gcc/Obj/WSNUARTManager.o
 .debug_aranges
                0x00000380       0x38 All_deRFusb23e06_At91sam3s4c_Rf231_Gcc/Obj/pdsWriteData.o
 .debug_aranges
                0x000003b8       0x28 All_deRFusb23e06_At91sam3s4c_Rf231_Gcc/Obj/pdsDataServer.o
 .debug_aranges
                0x000003e0       0x40 All_deRFusb23e06_At91sam3s4c_Rf231_Gcc/Obj/leds.o
 .debug_aranges
                0x00000420       0x20 All_deRFusb23e06_At91sam3s4c_Rf231_Gcc/Obj/bspTaskManager.o
 .debug_aranges
                0x00000440       0xb0 All_deRFusb23e06_At91sam3s4c_Rf231_Gcc/Obj/fakeBSP.o
 .debug_aranges
                0x000004f0       0x58 All_deRFusb23e06_At91sam3s4c_Rf231_Gcc/Obj/vcpVirtualUsart.o
 .debug_aranges
                0x00000548       0x70 All_deRFusb23e06_At91sam3s4c_Rf231_Gcc/Obj/vcpCdcProtocol.o
 .debug_aranges
                0x000005b8       0x20 All_deRFusb23e06_At91sam3s4c_Rf231_Gcc/Obj/usbSetupProcess.o
 .debug_aranges
                0x000005d8       0x48 All_deRFusb23e06_At91sam3s4c_Rf231_Gcc/Obj/usbEnumeration.o
 .debug_aranges
                0x00000620       0x20 All_deRFusb23e06_At91sam3s4c_Rf231_Gcc/Obj/csMem.o
 .debug_aranges
                0x00000640       0x48 All_deRFusb23e06_At91sam3s4c_Rf231_Gcc/Obj/configServer.o
 .debug_aranges
                0x00000688       0x20 c:/users/user/desktop/winsync/code_files/sabre/_toolchains/yagarto_arm/bin/../lib/gcc/arm-none-eabi/4.5.1/../../../../arm-none-eabi/lib/thumb/v7m\libc.a(lib_a-memcmp.o)
 .debug_aranges
                0x000006a8       0x20 c:/users/user/desktop/winsync/code_files/sabre/_toolchains/yagarto_arm/bin/../lib/gcc/arm-none-eabi/4.5.1/../../../../arm-none-eabi/lib/thumb/v7m\libc.a(lib_a-memcpy.o)
 .debug_aranges
                0x000006c8       0x20 c:/users/user/desktop/winsync/code_files/sabre/_toolchains/yagarto_arm/bin/../lib/gcc/arm-none-eabi/4.5.1/../../../../arm-none-eabi/lib/thumb/v7m\libc.a(lib_a-memmove.o)
 .debug_aranges
                0x000006e8       0x20 c:/users/user/desktop/winsync/code_files/sabre/_toolchains/yagarto_arm/bin/../lib/gcc/arm-none-eabi/4.5.1/../../../../arm-none-eabi/lib/thumb/v7m\libc.a(lib_a-memset.o)
 .debug_aranges
                0x00000708       0x20 c:/users/user/desktop/winsync/code_files/sabre/_toolchains/yagarto_arm/bin/../lib/gcc/arm-none-eabi/4.5.1/../../../../arm-none-eabi/lib/thumb/v7m\libc.a(lib_a-rand.o)

.debug_pubnames
                0x00000000      0xe47
 *(.debug_pubnames)
 .debug_pubnames
                0x00000000       0x5a All_deRFusb23e06_At91sam3s4c_Rf231_Gcc/Obj/WSNSensorManager.o
 .debug_pubnames
                0x0000005a       0x91 All_deRFusb23e06_At91sam3s4c_Rf231_Gcc/Obj/WSNEndDevice.o
 .debug_pubnames
                0x000000eb       0x99 All_deRFusb23e06_At91sam3s4c_Rf231_Gcc/Obj/WSNCoord.o
 .debug_pubnames
                0x00000184      0x12c All_deRFusb23e06_At91sam3s4c_Rf231_Gcc/Obj/WSNVisualizer.o
 .debug_pubnames
                0x000002b0       0x62 All_deRFusb23e06_At91sam3s4c_Rf231_Gcc/Obj/WSNMessageSender.o
 .debug_pubnames
                0x00000312       0x65 All_deRFusb23e06_At91sam3s4c_Rf231_Gcc/Obj/WSNCommandHandler.o
 .debug_pubnames
                0x00000377       0x85 All_deRFusb23e06_At91sam3s4c_Rf231_Gcc/Obj/WSNRouter.o
 .debug_pubnames
                0x000003fc      0x172 All_deRFusb23e06_At91sam3s4c_Rf231_Gcc/Obj/WSNDemoApp.o
 .debug_pubnames
                0x0000056e       0x5d All_deRFusb23e06_At91sam3s4c_Rf231_Gcc/Obj/WSNUARTManager.o
 .debug_pubnames
                0x000005cb       0x56 All_deRFusb23e06_At91sam3s4c_Rf231_Gcc/Obj/pdsWriteData.o
 .debug_pubnames
                0x00000621       0x3d All_deRFusb23e06_At91sam3s4c_Rf231_Gcc/Obj/pdsDataServer.o
 .debug_pubnames
                0x0000065e       0x64 All_deRFusb23e06_At91sam3s4c_Rf231_Gcc/Obj/leds.o
 .debug_pubnames
                0x000006c2       0x37 All_deRFusb23e06_At91sam3s4c_Rf231_Gcc/Obj/bspTaskManager.o
 .debug_pubnames
                0x000006f9      0x245 All_deRFusb23e06_At91sam3s4c_Rf231_Gcc/Obj/fakeBSP.o
 .debug_pubnames
                0x0000093e       0xcd All_deRFusb23e06_At91sam3s4c_Rf231_Gcc/Obj/vcpVirtualUsart.o
 .debug_pubnames
                0x00000a0b      0x113 All_deRFusb23e06_At91sam3s4c_Rf231_Gcc/Obj/vcpCdcProtocol.o
 .debug_pubnames
                0x00000b1e       0x31 All_deRFusb23e06_At91sam3s4c_Rf231_Gcc/Obj/usbSetupProcess.o
 .debug_pubnames
                0x00000b4f       0x49 All_deRFusb23e06_At91sam3s4c_Rf231_Gcc/Obj/usbDescriptors.o
 .debug_pubnames
                0x00000b98       0xa1 All_deRFusb23e06_At91sam3s4c_Rf231_Gcc/Obj/usbEnumeration.o
 .debug_pubnames
                0x00000c39       0xca All_deRFusb23e06_At91sam3s4c_Rf231_Gcc/Obj/csMem.o
 .debug_pubnames
                0x00000d03       0x71 All_deRFusb23e06_At91sam3s4c_Rf231_Gcc/Obj/configServer.o
 .debug_pubnames
                0x00000d74       0x1d c:/users/user/desktop/winsync/code_files/sabre/_toolchains/yagarto_arm/bin/../lib/gcc/arm-none-eabi/4.5.1/../../../../arm-none-eabi/lib/thumb/v7m\libc.a(lib_a-memcmp.o)
 .debug_pubnames
                0x00000d91       0x1d c:/users/user/desktop/winsync/code_files/sabre/_toolchains/yagarto_arm/bin/../lib/gcc/arm-none-eabi/4.5.1/../../../../arm-none-eabi/lib/thumb/v7m\libc.a(lib_a-memcpy.o)
 .debug_pubnames
                0x00000dae       0x1e c:/users/user/desktop/winsync/code_files/sabre/_toolchains/yagarto_arm/bin/../lib/gcc/arm-none-eabi/4.5.1/../../../../arm-none-eabi/lib/thumb/v7m\libc.a(lib_a-memmove.o)
 .debug_pubnames
                0x00000dcc       0x1d c:/users/user/desktop/winsync/code_files/sabre/_toolchains/yagarto_arm/bin/../lib/gcc/arm-none-eabi/4.5.1/../../../../arm-none-eabi/lib/thumb/v7m\libc.a(lib_a-memset.o)
 .debug_pubnames
                0x00000de9       0x25 c:/users/user/desktop/winsync/code_files/sabre/_toolchains/yagarto_arm/bin/../lib/gcc/arm-none-eabi/4.5.1/../../../../arm-none-eabi/lib/thumb/v7m\libc.a(lib_a-rand.o)
 .debug_pubnames
                0x00000e0e       0x39 c:/users/user/desktop/winsync/code_files/sabre/_toolchains/yagarto_arm/bin/../lib/gcc/arm-none-eabi/4.5.1/../../../../arm-none-eabi/lib/thumb/v7m\libc.a(lib_a-impure.o)

.debug_info     0x00000000    0x17a75
 *(.debug_info .gnu.linkonce.wi.*)
 .debug_info    0x00000000      0x5ce All_deRFusb23e06_At91sam3s4c_Rf231_Gcc/Obj/WSNSensorManager.o
 .debug_info    0x000005ce     0x1148 All_deRFusb23e06_At91sam3s4c_Rf231_Gcc/Obj/WSNEndDevice.o
 .debug_info    0x00001716      0xe3f All_deRFusb23e06_At91sam3s4c_Rf231_Gcc/Obj/WSNCoord.o
 .debug_info    0x00002555      0x466 All_deRFusb23e06_At91sam3s4c_Rf231_Gcc/Obj/WSNVisualizer.o
 .debug_info    0x000029bb      0xf87 All_deRFusb23e06_At91sam3s4c_Rf231_Gcc/Obj/WSNMessageSender.o
 .debug_info    0x00003942      0x8e1 All_deRFusb23e06_At91sam3s4c_Rf231_Gcc/Obj/WSNCommandHandler.o
 .debug_info    0x00004223      0xd3a All_deRFusb23e06_At91sam3s4c_Rf231_Gcc/Obj/WSNRouter.o
 .debug_info    0x00004f5d     0x29ca All_deRFusb23e06_At91sam3s4c_Rf231_Gcc/Obj/WSNDemoApp.o
 .debug_info    0x00007927      0xc77 All_deRFusb23e06_At91sam3s4c_Rf231_Gcc/Obj/WSNUARTManager.o
 .debug_info    0x0000859e      0x34c All_deRFusb23e06_At91sam3s4c_Rf231_Gcc/Obj/pdsMem.o
 .debug_info    0x000088ea      0x472 All_deRFusb23e06_At91sam3s4c_Rf231_Gcc/Obj/pdsWriteData.o
 .debug_info    0x00008d5c      0x758 All_deRFusb23e06_At91sam3s4c_Rf231_Gcc/Obj/pdsDataServer.o
 .debug_info    0x000094b4      0x34c All_deRFusb23e06_At91sam3s4c_Rf231_Gcc/Obj/pdsInit.o
 .debug_info    0x00009800      0x34c All_deRFusb23e06_At91sam3s4c_Rf231_Gcc/Obj/pdsTimer.o
 .debug_info    0x00009b4c      0x34c All_deRFusb23e06_At91sam3s4c_Rf231_Gcc/Obj/pdsEvents.o
 .debug_info    0x00009e98      0x34c All_deRFusb23e06_At91sam3s4c_Rf231_Gcc/Obj/pdsMemAccess.o
 .debug_info    0x0000a1e4        0x0 All_deRFusb23e06_At91sam3s4c_Rf231_Gcc/Obj/pdsCrcService.o
 .debug_info    0x0000a1e4      0x785 All_deRFusb23e06_At91sam3s4c_Rf231_Gcc/Obj/leds.o
 .debug_info    0x0000a969      0x1d3 All_deRFusb23e06_At91sam3s4c_Rf231_Gcc/Obj/bspTaskManager.o
 .debug_info    0x0000ab3c      0x57d All_deRFusb23e06_At91sam3s4c_Rf231_Gcc/Obj/fakeBSP.o
 .debug_info    0x0000b0b9      0xac6 All_deRFusb23e06_At91sam3s4c_Rf231_Gcc/Obj/vcpVirtualUsart.o
 .debug_info    0x0000bb7f      0xa44 All_deRFusb23e06_At91sam3s4c_Rf231_Gcc/Obj/vcpCdcProtocol.o
 .debug_info    0x0000c5c3      0x132 All_deRFusb23e06_At91sam3s4c_Rf231_Gcc/Obj/usbSetupProcess.o
 .debug_info    0x0000c6f5      0x567 All_deRFusb23e06_At91sam3s4c_Rf231_Gcc/Obj/usbDescriptors.o
 .debug_info    0x0000cc5c      0xd2b All_deRFusb23e06_At91sam3s4c_Rf231_Gcc/Obj/usbEnumeration.o
 .debug_info    0x0000d987     0x1e49 All_deRFusb23e06_At91sam3s4c_Rf231_Gcc/Obj/csPersistentMem.o
 .debug_info    0x0000f7d0     0x34fe All_deRFusb23e06_At91sam3s4c_Rf231_Gcc/Obj/csMem.o
 .debug_info    0x00012cce     0x361e All_deRFusb23e06_At91sam3s4c_Rf231_Gcc/Obj/configServer.o
 .debug_info    0x000162ec      0x110 c:/users/user/desktop/winsync/code_files/sabre/_toolchains/yagarto_arm/bin/../lib/gcc/arm-none-eabi/4.5.1/../../../../arm-none-eabi/lib/thumb/v7m\libc.a(lib_a-memcmp.o)
 .debug_info    0x000163fc      0x13b c:/users/user/desktop/winsync/code_files/sabre/_toolchains/yagarto_arm/bin/../lib/gcc/arm-none-eabi/4.5.1/../../../../arm-none-eabi/lib/thumb/v7m\libc.a(lib_a-memcpy.o)
 .debug_info    0x00016537      0x13f c:/users/user/desktop/winsync/code_files/sabre/_toolchains/yagarto_arm/bin/../lib/gcc/arm-none-eabi/4.5.1/../../../../arm-none-eabi/lib/thumb/v7m\libc.a(lib_a-memmove.o)
 .debug_info    0x00016676      0x114 c:/users/user/desktop/winsync/code_files/sabre/_toolchains/yagarto_arm/bin/../lib/gcc/arm-none-eabi/4.5.1/../../../../arm-none-eabi/lib/thumb/v7m\libc.a(lib_a-memset.o)
 .debug_info    0x0001678a      0x985 c:/users/user/desktop/winsync/code_files/sabre/_toolchains/yagarto_arm/bin/../lib/gcc/arm-none-eabi/4.5.1/../../../../arm-none-eabi/lib/thumb/v7m\libc.a(lib_a-rand.o)
 .debug_info    0x0001710f      0x966 c:/users/user/desktop/winsync/code_files/sabre/_toolchains/yagarto_arm/bin/../lib/gcc/arm-none-eabi/4.5.1/../../../../arm-none-eabi/lib/thumb/v7m\libc.a(lib_a-impure.o)

.debug_abbrev   0x00000000     0x2e87
 *(.debug_abbrev)
 .debug_abbrev  0x00000000      0x130 All_deRFusb23e06_At91sam3s4c_Rf231_Gcc/Obj/WSNSensorManager.o
 .debug_abbrev  0x00000130      0x23a All_deRFusb23e06_At91sam3s4c_Rf231_Gcc/Obj/WSNEndDevice.o
 .debug_abbrev  0x0000036a      0x232 All_deRFusb23e06_At91sam3s4c_Rf231_Gcc/Obj/WSNCoord.o
 .debug_abbrev  0x0000059c       0xb0 All_deRFusb23e06_At91sam3s4c_Rf231_Gcc/Obj/WSNVisualizer.o
 .debug_abbrev  0x0000064c      0x2af All_deRFusb23e06_At91sam3s4c_Rf231_Gcc/Obj/WSNMessageSender.o
 .debug_abbrev  0x000008fb      0x222 All_deRFusb23e06_At91sam3s4c_Rf231_Gcc/Obj/WSNCommandHandler.o
 .debug_abbrev  0x00000b1d      0x1eb All_deRFusb23e06_At91sam3s4c_Rf231_Gcc/Obj/WSNRouter.o
 .debug_abbrev  0x00000d08      0x3b1 All_deRFusb23e06_At91sam3s4c_Rf231_Gcc/Obj/WSNDemoApp.o
 .debug_abbrev  0x000010b9      0x1f0 All_deRFusb23e06_At91sam3s4c_Rf231_Gcc/Obj/WSNUARTManager.o
 .debug_abbrev  0x000012a9       0xc0 All_deRFusb23e06_At91sam3s4c_Rf231_Gcc/Obj/pdsMem.o
 .debug_abbrev  0x00001369      0x13c All_deRFusb23e06_At91sam3s4c_Rf231_Gcc/Obj/pdsWriteData.o
 .debug_abbrev  0x000014a5      0x119 All_deRFusb23e06_At91sam3s4c_Rf231_Gcc/Obj/pdsDataServer.o
 .debug_abbrev  0x000015be       0xc0 All_deRFusb23e06_At91sam3s4c_Rf231_Gcc/Obj/pdsInit.o
 .debug_abbrev  0x0000167e       0xc0 All_deRFusb23e06_At91sam3s4c_Rf231_Gcc/Obj/pdsTimer.o
 .debug_abbrev  0x0000173e       0xc0 All_deRFusb23e06_At91sam3s4c_Rf231_Gcc/Obj/pdsEvents.o
 .debug_abbrev  0x000017fe       0xc0 All_deRFusb23e06_At91sam3s4c_Rf231_Gcc/Obj/pdsMemAccess.o
 .debug_abbrev  0x000018be        0x1 All_deRFusb23e06_At91sam3s4c_Rf231_Gcc/Obj/pdsCrcService.o
 .debug_abbrev  0x000018bf      0x121 All_deRFusb23e06_At91sam3s4c_Rf231_Gcc/Obj/leds.o
 .debug_abbrev  0x000019e0       0xe9 All_deRFusb23e06_At91sam3s4c_Rf231_Gcc/Obj/bspTaskManager.o
 .debug_abbrev  0x00001ac9      0x208 All_deRFusb23e06_At91sam3s4c_Rf231_Gcc/Obj/fakeBSP.o
 .debug_abbrev  0x00001cd1      0x1f0 All_deRFusb23e06_At91sam3s4c_Rf231_Gcc/Obj/vcpVirtualUsart.o
 .debug_abbrev  0x00001ec1      0x1e0 All_deRFusb23e06_At91sam3s4c_Rf231_Gcc/Obj/vcpCdcProtocol.o
 .debug_abbrev  0x000020a1       0x93 All_deRFusb23e06_At91sam3s4c_Rf231_Gcc/Obj/usbSetupProcess.o
 .debug_abbrev  0x00002134       0x7d All_deRFusb23e06_At91sam3s4c_Rf231_Gcc/Obj/usbDescriptors.o
 .debug_abbrev  0x000021b1      0x1bd All_deRFusb23e06_At91sam3s4c_Rf231_Gcc/Obj/usbEnumeration.o
 .debug_abbrev  0x0000236e      0x164 All_deRFusb23e06_At91sam3s4c_Rf231_Gcc/Obj/csPersistentMem.o
 .debug_abbrev  0x000024d2      0x1f8 All_deRFusb23e06_At91sam3s4c_Rf231_Gcc/Obj/csMem.o
 .debug_abbrev  0x000026ca      0x26a All_deRFusb23e06_At91sam3s4c_Rf231_Gcc/Obj/configServer.o
 .debug_abbrev  0x00002934       0x7c c:/users/user/desktop/winsync/code_files/sabre/_toolchains/yagarto_arm/bin/../lib/gcc/arm-none-eabi/4.5.1/../../../../arm-none-eabi/lib/thumb/v7m\libc.a(lib_a-memcmp.o)
 .debug_abbrev  0x000029b0       0xa8 c:/users/user/desktop/winsync/code_files/sabre/_toolchains/yagarto_arm/bin/../lib/gcc/arm-none-eabi/4.5.1/../../../../arm-none-eabi/lib/thumb/v7m\libc.a(lib_a-memcpy.o)
 .debug_abbrev  0x00002a58       0x99 c:/users/user/desktop/winsync/code_files/sabre/_toolchains/yagarto_arm/bin/../lib/gcc/arm-none-eabi/4.5.1/../../../../arm-none-eabi/lib/thumb/v7m\libc.a(lib_a-memmove.o)
 .debug_abbrev  0x00002af1       0x9c c:/users/user/desktop/winsync/code_files/sabre/_toolchains/yagarto_arm/bin/../lib/gcc/arm-none-eabi/4.5.1/../../../../arm-none-eabi/lib/thumb/v7m\libc.a(lib_a-memset.o)
 .debug_abbrev  0x00002b8d      0x194 c:/users/user/desktop/winsync/code_files/sabre/_toolchains/yagarto_arm/bin/../lib/gcc/arm-none-eabi/4.5.1/../../../../arm-none-eabi/lib/thumb/v7m\libc.a(lib_a-rand.o)
 .debug_abbrev  0x00002d21      0x166 c:/users/user/desktop/winsync/code_files/sabre/_toolchains/yagarto_arm/bin/../lib/gcc/arm-none-eabi/4.5.1/../../../../arm-none-eabi/lib/thumb/v7m\libc.a(lib_a-impure.o)

.debug_line     0x00000000     0x5fa7
 *(.debug_line)
 .debug_line    0x00000000      0x2bd All_deRFusb23e06_At91sam3s4c_Rf231_Gcc/Obj/WSNSensorManager.o
 .debug_line    0x000002bd      0x445 All_deRFusb23e06_At91sam3s4c_Rf231_Gcc/Obj/WSNEndDevice.o
 .debug_line    0x00000702      0x400 All_deRFusb23e06_At91sam3s4c_Rf231_Gcc/Obj/WSNCoord.o
 .debug_line    0x00000b02      0x2bf All_deRFusb23e06_At91sam3s4c_Rf231_Gcc/Obj/WSNVisualizer.o
 .debug_line    0x00000dc1      0x3fc All_deRFusb23e06_At91sam3s4c_Rf231_Gcc/Obj/WSNMessageSender.o
 .debug_line    0x000011bd      0x2e9 All_deRFusb23e06_At91sam3s4c_Rf231_Gcc/Obj/WSNCommandHandler.o
 .debug_line    0x000014a6      0x3ba All_deRFusb23e06_At91sam3s4c_Rf231_Gcc/Obj/WSNRouter.o
 .debug_line    0x00001860      0x630 All_deRFusb23e06_At91sam3s4c_Rf231_Gcc/Obj/WSNDemoApp.o
 .debug_line    0x00001e90      0x3a8 All_deRFusb23e06_At91sam3s4c_Rf231_Gcc/Obj/WSNUARTManager.o
 .debug_line    0x00002238      0x1f3 All_deRFusb23e06_At91sam3s4c_Rf231_Gcc/Obj/pdsMem.o
 .debug_line    0x0000242b      0x2a2 All_deRFusb23e06_At91sam3s4c_Rf231_Gcc/Obj/pdsWriteData.o
 .debug_line    0x000026cd      0x330 All_deRFusb23e06_At91sam3s4c_Rf231_Gcc/Obj/pdsDataServer.o
 .debug_line    0x000029fd      0x1f3 All_deRFusb23e06_At91sam3s4c_Rf231_Gcc/Obj/pdsInit.o
 .debug_line    0x00002bf0      0x1f3 All_deRFusb23e06_At91sam3s4c_Rf231_Gcc/Obj/pdsTimer.o
 .debug_line    0x00002de3      0x1f3 All_deRFusb23e06_At91sam3s4c_Rf231_Gcc/Obj/pdsEvents.o
 .debug_line    0x00002fd6      0x1f3 All_deRFusb23e06_At91sam3s4c_Rf231_Gcc/Obj/pdsMemAccess.o
 .debug_line    0x000031c9        0x0 All_deRFusb23e06_At91sam3s4c_Rf231_Gcc/Obj/pdsCrcService.o
 .debug_line    0x000031c9      0x234 All_deRFusb23e06_At91sam3s4c_Rf231_Gcc/Obj/leds.o
 .debug_line    0x000033fd      0x1e0 All_deRFusb23e06_At91sam3s4c_Rf231_Gcc/Obj/bspTaskManager.o
 .debug_line    0x000035dd      0x3c0 All_deRFusb23e06_At91sam3s4c_Rf231_Gcc/Obj/fakeBSP.o
 .debug_line    0x0000399d      0x402 All_deRFusb23e06_At91sam3s4c_Rf231_Gcc/Obj/vcpVirtualUsart.o
 .debug_line    0x00003d9f      0x38c All_deRFusb23e06_At91sam3s4c_Rf231_Gcc/Obj/vcpCdcProtocol.o
 .debug_line    0x0000412b      0x165 All_deRFusb23e06_At91sam3s4c_Rf231_Gcc/Obj/usbSetupProcess.o
 .debug_line    0x00004290      0x183 All_deRFusb23e06_At91sam3s4c_Rf231_Gcc/Obj/usbDescriptors.o
 .debug_line    0x00004413      0x30f All_deRFusb23e06_At91sam3s4c_Rf231_Gcc/Obj/usbEnumeration.o
 .debug_line    0x00004722      0x398 All_deRFusb23e06_At91sam3s4c_Rf231_Gcc/Obj/csPersistentMem.o
 .debug_line    0x00004aba      0x5f5 All_deRFusb23e06_At91sam3s4c_Rf231_Gcc/Obj/csMem.o
 .debug_line    0x000050af      0x6c2 All_deRFusb23e06_At91sam3s4c_Rf231_Gcc/Obj/configServer.o
 .debug_line    0x00005771      0x13e c:/users/user/desktop/winsync/code_files/sabre/_toolchains/yagarto_arm/bin/../lib/gcc/arm-none-eabi/4.5.1/../../../../arm-none-eabi/lib/thumb/v7m\libc.a(lib_a-memcmp.o)
 .debug_line    0x000058af      0x173 c:/users/user/desktop/winsync/code_files/sabre/_toolchains/yagarto_arm/bin/../lib/gcc/arm-none-eabi/4.5.1/../../../../arm-none-eabi/lib/thumb/v7m\libc.a(lib_a-memcpy.o)
 .debug_line    0x00005a22      0x188 c:/users/user/desktop/winsync/code_files/sabre/_toolchains/yagarto_arm/bin/../lib/gcc/arm-none-eabi/4.5.1/../../../../arm-none-eabi/lib/thumb/v7m\libc.a(lib_a-memmove.o)
 .debug_line    0x00005baa      0x16f c:/users/user/desktop/winsync/code_files/sabre/_toolchains/yagarto_arm/bin/../lib/gcc/arm-none-eabi/4.5.1/../../../../arm-none-eabi/lib/thumb/v7m\libc.a(lib_a-memset.o)
 .debug_line    0x00005d19      0x178 c:/users/user/desktop/winsync/code_files/sabre/_toolchains/yagarto_arm/bin/../lib/gcc/arm-none-eabi/4.5.1/../../../../arm-none-eabi/lib/thumb/v7m\libc.a(lib_a-rand.o)
 .debug_line    0x00005e91      0x116 c:/users/user/desktop/winsync/code_files/sabre/_toolchains/yagarto_arm/bin/../lib/gcc/arm-none-eabi/4.5.1/../../../../arm-none-eabi/lib/thumb/v7m\libc.a(lib_a-impure.o)

.debug_frame    0x00000000      0xff4
 *(.debug_frame)
 .debug_frame   0x00000000       0xa0 All_deRFusb23e06_At91sam3s4c_Rf231_Gcc/Obj/WSNSensorManager.o
 .debug_frame   0x000000a0      0x108 All_deRFusb23e06_At91sam3s4c_Rf231_Gcc/Obj/WSNEndDevice.o
 .debug_frame   0x000001a8       0xe4 All_deRFusb23e06_At91sam3s4c_Rf231_Gcc/Obj/WSNCoord.o
 .debug_frame   0x0000028c      0x130 All_deRFusb23e06_At91sam3s4c_Rf231_Gcc/Obj/WSNVisualizer.o
 .debug_frame   0x000003bc       0xac All_deRFusb23e06_At91sam3s4c_Rf231_Gcc/Obj/WSNMessageSender.o
 .debug_frame   0x00000468       0x78 All_deRFusb23e06_At91sam3s4c_Rf231_Gcc/Obj/WSNCommandHandler.o
 .debug_frame   0x000004e0       0xcc All_deRFusb23e06_At91sam3s4c_Rf231_Gcc/Obj/WSNRouter.o
 .debug_frame   0x000005ac      0x248 All_deRFusb23e06_At91sam3s4c_Rf231_Gcc/Obj/WSNDemoApp.o
 .debug_frame   0x000007f4       0xe0 All_deRFusb23e06_At91sam3s4c_Rf231_Gcc/Obj/WSNUARTManager.o
 .debug_frame   0x000008d4       0x70 All_deRFusb23e06_At91sam3s4c_Rf231_Gcc/Obj/pdsWriteData.o
 .debug_frame   0x00000944       0x50 All_deRFusb23e06_At91sam3s4c_Rf231_Gcc/Obj/pdsDataServer.o
 .debug_frame   0x00000994       0x60 All_deRFusb23e06_At91sam3s4c_Rf231_Gcc/Obj/leds.o
 .debug_frame   0x000009f4       0x2c All_deRFusb23e06_At91sam3s4c_Rf231_Gcc/Obj/bspTaskManager.o
 .debug_frame   0x00000a20      0x17c All_deRFusb23e06_At91sam3s4c_Rf231_Gcc/Obj/fakeBSP.o
 .debug_frame   0x00000b9c       0xe8 All_deRFusb23e06_At91sam3s4c_Rf231_Gcc/Obj/vcpVirtualUsart.o
 .debug_frame   0x00000c84       0xe0 All_deRFusb23e06_At91sam3s4c_Rf231_Gcc/Obj/vcpCdcProtocol.o
 .debug_frame   0x00000d64       0x28 All_deRFusb23e06_At91sam3s4c_Rf231_Gcc/Obj/usbSetupProcess.o
 .debug_frame   0x00000d8c       0xa8 All_deRFusb23e06_At91sam3s4c_Rf231_Gcc/Obj/usbEnumeration.o
 .debug_frame   0x00000e34       0x28 All_deRFusb23e06_At91sam3s4c_Rf231_Gcc/Obj/csMem.o
 .debug_frame   0x00000e5c       0xb8 All_deRFusb23e06_At91sam3s4c_Rf231_Gcc/Obj/configServer.o
 .debug_frame   0x00000f14       0x28 c:/users/user/desktop/winsync/code_files/sabre/_toolchains/yagarto_arm/bin/../lib/gcc/arm-none-eabi/4.5.1/../../../../arm-none-eabi/lib/thumb/v7m\libc.a(lib_a-memcmp.o)
 .debug_frame   0x00000f3c       0x2c c:/users/user/desktop/winsync/code_files/sabre/_toolchains/yagarto_arm/bin/../lib/gcc/arm-none-eabi/4.5.1/../../../../arm-none-eabi/lib/thumb/v7m\libc.a(lib_a-memcpy.o)
 .debug_frame   0x00000f68       0x2c c:/users/user/desktop/winsync/code_files/sabre/_toolchains/yagarto_arm/bin/../lib/gcc/arm-none-eabi/4.5.1/../../../../arm-none-eabi/lib/thumb/v7m\libc.a(lib_a-memmove.o)
 .debug_frame   0x00000f94       0x28 c:/users/user/desktop/winsync/code_files/sabre/_toolchains/yagarto_arm/bin/../lib/gcc/arm-none-eabi/4.5.1/../../../../arm-none-eabi/lib/thumb/v7m\libc.a(lib_a-memset.o)
 .debug_frame   0x00000fbc       0x38 c:/users/user/desktop/winsync/code_files/sabre/_toolchains/yagarto_arm/bin/../lib/gcc/arm-none-eabi/4.5.1/../../../../arm-none-eabi/lib/thumb/v7m\libc.a(lib_a-rand.o)

.debug_str      0x00000000     0x8535
 *(.debug_str)
 .debug_str     0x00000000      0x49f All_deRFusb23e06_At91sam3s4c_Rf231_Gcc/Obj/WSNSensorManager.o
                                0x538 (size before relaxing)
 .debug_str     0x0000049f     0x1b4e All_deRFusb23e06_At91sam3s4c_Rf231_Gcc/Obj/WSNEndDevice.o
                               0x2061 (size before relaxing)
 .debug_str     0x00001fed      0x175 All_deRFusb23e06_At91sam3s4c_Rf231_Gcc/Obj/WSNCoord.o
                               0x142d (size before relaxing)
 .debug_str     0x00002162      0x106 All_deRFusb23e06_At91sam3s4c_Rf231_Gcc/Obj/WSNVisualizer.o
                                0x492 (size before relaxing)
 .debug_str     0x00002268      0x269 All_deRFusb23e06_At91sam3s4c_Rf231_Gcc/Obj/WSNMessageSender.o
                               0x1312 (size before relaxing)
 .debug_str     0x000024d1       0xf2 All_deRFusb23e06_At91sam3s4c_Rf231_Gcc/Obj/WSNCommandHandler.o
                                0x748 (size before relaxing)
 .debug_str     0x000025c3       0xbb All_deRFusb23e06_At91sam3s4c_Rf231_Gcc/Obj/WSNRouter.o
                               0x134a (size before relaxing)
 .debug_str     0x0000267e     0x1498 All_deRFusb23e06_At91sam3s4c_Rf231_Gcc/Obj/WSNDemoApp.o
                               0x3286 (size before relaxing)
 .debug_str     0x00003b16      0x71f All_deRFusb23e06_At91sam3s4c_Rf231_Gcc/Obj/WSNUARTManager.o
                                0xb76 (size before relaxing)
 .debug_str     0x00004235      0x179 All_deRFusb23e06_At91sam3s4c_Rf231_Gcc/Obj/pdsMem.o
                                0x382 (size before relaxing)
 .debug_str     0x000043ae      0x110 All_deRFusb23e06_At91sam3s4c_Rf231_Gcc/Obj/pdsWriteData.o
                                0x45d (size before relaxing)
 .debug_str     0x000044be       0x75 All_deRFusb23e06_At91sam3s4c_Rf231_Gcc/Obj/pdsDataServer.o
                                0x69d (size before relaxing)
 .debug_str     0x00004533       0x42 All_deRFusb23e06_At91sam3s4c_Rf231_Gcc/Obj/pdsInit.o
                                0x383 (size before relaxing)
 .debug_str     0x00004575       0x43 All_deRFusb23e06_At91sam3s4c_Rf231_Gcc/Obj/pdsTimer.o
                                0x384 (size before relaxing)
 .debug_str     0x000045b8       0x44 All_deRFusb23e06_At91sam3s4c_Rf231_Gcc/Obj/pdsEvents.o
                                0x385 (size before relaxing)
 .debug_str     0x000045fc       0x47 All_deRFusb23e06_At91sam3s4c_Rf231_Gcc/Obj/pdsMemAccess.o
                                0x388 (size before relaxing)
 .debug_str     0x00004643      0x3c1 All_deRFusb23e06_At91sam3s4c_Rf231_Gcc/Obj/leds.o
                                0x50a (size before relaxing)
 .debug_str     0x00004a04       0x8b All_deRFusb23e06_At91sam3s4c_Rf231_Gcc/Obj/bspTaskManager.o
                                0x28d (size before relaxing)
 .debug_str     0x00004a8f      0x2a6 All_deRFusb23e06_At91sam3s4c_Rf231_Gcc/Obj/fakeBSP.o
                                0x4ec (size before relaxing)
 .debug_str     0x00004d35      0x1f9 All_deRFusb23e06_At91sam3s4c_Rf231_Gcc/Obj/vcpVirtualUsart.o
                                0x88c (size before relaxing)
 .debug_str     0x00004f2e      0x1a8 All_deRFusb23e06_At91sam3s4c_Rf231_Gcc/Obj/vcpCdcProtocol.o
                                0x88f (size before relaxing)
 .debug_str     0x000050d6       0x71 All_deRFusb23e06_At91sam3s4c_Rf231_Gcc/Obj/usbSetupProcess.o
                                0x1e3 (size before relaxing)
 .debug_str     0x00005147      0x418 All_deRFusb23e06_At91sam3s4c_Rf231_Gcc/Obj/usbDescriptors.o
                                0x542 (size before relaxing)
 .debug_str     0x0000555f       0xfc All_deRFusb23e06_At91sam3s4c_Rf231_Gcc/Obj/usbEnumeration.o
                                0xbb0 (size before relaxing)
 .debug_str     0x0000565b     0x1716 All_deRFusb23e06_At91sam3s4c_Rf231_Gcc/Obj/csPersistentMem.o
                               0x2d76 (size before relaxing)
 .debug_str     0x00006d71     0x1010 All_deRFusb23e06_At91sam3s4c_Rf231_Gcc/Obj/csMem.o
                               0x4109 (size before relaxing)
 .debug_str     0x00007d81      0x11f All_deRFusb23e06_At91sam3s4c_Rf231_Gcc/Obj/configServer.o
                               0x477c (size before relaxing)
 .debug_str     0x00007ea0       0x9e c:/users/user/desktop/winsync/code_files/sabre/_toolchains/yagarto_arm/bin/../lib/gcc/arm-none-eabi/4.5.1/../../../../arm-none-eabi/lib/thumb/v7m\libc.a(lib_a-memcmp.o)
                                0x133 (size before relaxing)
 .debug_str     0x00007f3e       0x6d c:/users/user/desktop/winsync/code_files/sabre/_toolchains/yagarto_arm/bin/../lib/gcc/arm-none-eabi/4.5.1/../../../../arm-none-eabi/lib/thumb/v7m\libc.a(lib_a-memcpy.o)
                                0x15a (size before relaxing)
 .debug_str     0x00007fab       0x5a c:/users/user/desktop/winsync/code_files/sabre/_toolchains/yagarto_arm/bin/../lib/gcc/arm-none-eabi/4.5.1/../../../../arm-none-eabi/lib/thumb/v7m\libc.a(lib_a-memmove.o)
                                0x166 (size before relaxing)
 .debug_str     0x00008005       0x53 c:/users/user/desktop/winsync/code_files/sabre/_toolchains/yagarto_arm/bin/../lib/gcc/arm-none-eabi/4.5.1/../../../../arm-none-eabi/lib/thumb/v7m\libc.a(lib_a-memset.o)
                                0x147 (size before relaxing)
 .debug_str     0x00008058      0x430 c:/users/user/desktop/winsync/code_files/sabre/_toolchains/yagarto_arm/bin/../lib/gcc/arm-none-eabi/4.5.1/../../../../arm-none-eabi/lib/thumb/v7m\libc.a(lib_a-rand.o)
                                0x4ee (size before relaxing)
 .debug_str     0x00008488       0xad c:/users/user/desktop/winsync/code_files/sabre/_toolchains/yagarto_arm/bin/../lib/gcc/arm-none-eabi/4.5.1/../../../../arm-none-eabi/lib/thumb/v7m\libc.a(lib_a-impure.o)
                                0x4fd (size before relaxing)

.debug_loc      0x00000000     0x2976
 *(.debug_loc)
 .debug_loc     0x00000000      0x141 All_deRFusb23e06_At91sam3s4c_Rf231_Gcc/Obj/WSNSensorManager.o
 .debug_loc     0x00000141      0x190 All_deRFusb23e06_At91sam3s4c_Rf231_Gcc/Obj/WSNEndDevice.o
 .debug_loc     0x000002d1      0x1b4 All_deRFusb23e06_At91sam3s4c_Rf231_Gcc/Obj/WSNCoord.o
 .debug_loc     0x00000485      0x180 All_deRFusb23e06_At91sam3s4c_Rf231_Gcc/Obj/WSNVisualizer.o
 .debug_loc     0x00000605      0x356 All_deRFusb23e06_At91sam3s4c_Rf231_Gcc/Obj/WSNMessageSender.o
 .debug_loc     0x0000095b      0x172 All_deRFusb23e06_At91sam3s4c_Rf231_Gcc/Obj/WSNCommandHandler.o
 .debug_loc     0x00000acd      0x11d All_deRFusb23e06_At91sam3s4c_Rf231_Gcc/Obj/WSNRouter.o
 .debug_loc     0x00000bea      0x478 All_deRFusb23e06_At91sam3s4c_Rf231_Gcc/Obj/WSNDemoApp.o
 .debug_loc     0x00001062      0x38b All_deRFusb23e06_At91sam3s4c_Rf231_Gcc/Obj/WSNUARTManager.o
 .debug_loc     0x000013ed       0xd8 All_deRFusb23e06_At91sam3s4c_Rf231_Gcc/Obj/pdsWriteData.o
 .debug_loc     0x000014c5      0x11c All_deRFusb23e06_At91sam3s4c_Rf231_Gcc/Obj/pdsDataServer.o
 .debug_loc     0x000015e1       0x36 All_deRFusb23e06_At91sam3s4c_Rf231_Gcc/Obj/bspTaskManager.o
 .debug_loc     0x00001617      0x14c All_deRFusb23e06_At91sam3s4c_Rf231_Gcc/Obj/fakeBSP.o
 .debug_loc     0x00001763      0x692 All_deRFusb23e06_At91sam3s4c_Rf231_Gcc/Obj/vcpVirtualUsart.o
 .debug_loc     0x00001df5       0xc8 All_deRFusb23e06_At91sam3s4c_Rf231_Gcc/Obj/vcpCdcProtocol.o
 .debug_loc     0x00001ebd       0x5c All_deRFusb23e06_At91sam3s4c_Rf231_Gcc/Obj/usbSetupProcess.o
 .debug_loc     0x00001f19      0x248 All_deRFusb23e06_At91sam3s4c_Rf231_Gcc/Obj/usbEnumeration.o
 .debug_loc     0x00002161       0x20 All_deRFusb23e06_At91sam3s4c_Rf231_Gcc/Obj/csMem.o
 .debug_loc     0x00002181      0x19a All_deRFusb23e06_At91sam3s4c_Rf231_Gcc/Obj/configServer.o
 .debug_loc     0x0000231b       0xe0 c:/users/user/desktop/winsync/code_files/sabre/_toolchains/yagarto_arm/bin/../lib/gcc/arm-none-eabi/4.5.1/../../../../arm-none-eabi/lib/thumb/v7m\libc.a(lib_a-memcmp.o)
 .debug_loc     0x000023fb      0x1a1 c:/users/user/desktop/winsync/code_files/sabre/_toolchains/yagarto_arm/bin/../lib/gcc/arm-none-eabi/4.5.1/../../../../arm-none-eabi/lib/thumb/v7m\libc.a(lib_a-memcpy.o)
 .debug_loc     0x0000259c      0x23c c:/users/user/desktop/winsync/code_files/sabre/_toolchains/yagarto_arm/bin/../lib/gcc/arm-none-eabi/4.5.1/../../../../arm-none-eabi/lib/thumb/v7m\libc.a(lib_a-memmove.o)
 .debug_loc     0x000027d8      0x17e c:/users/user/desktop/winsync/code_files/sabre/_toolchains/yagarto_arm/bin/../lib/gcc/arm-none-eabi/4.5.1/../../../../arm-none-eabi/lib/thumb/v7m\libc.a(lib_a-memset.o)
 .debug_loc     0x00002956       0x20 c:/users/user/desktop/winsync/code_files/sabre/_toolchains/yagarto_arm/bin/../lib/gcc/arm-none-eabi/4.5.1/../../../../arm-none-eabi/lib/thumb/v7m\libc.a(lib_a-rand.o)

.debug_macinfo
 *(.debug_macinfo)

.debug_weaknames
 *(.debug_weaknames)

.debug_funcnames
 *(.debug_funcnames)

.debug_typenames
 *(.debug_typenames)

.debug_varnames
 *(.debug_varnames)
LOAD All_deRFusb23e06_At91sam3s4c_Rf231_Gcc/Obj/WSNSensorManager.o
LOAD All_deRFusb23e06_At91sam3s4c_Rf231_Gcc/Obj/WSNEndDevice.o
LOAD All_deRFusb23e06_At91sam3s4c_Rf231_Gcc/Obj/WSNCoord.o
LOAD All_deRFusb23e06_At91sam3s4c_Rf231_Gcc/Obj/WSNVisualizer.o
LOAD All_deRFusb23e06_At91sam3s4c_Rf231_Gcc/Obj/WSNMessageSender.o
LOAD All_deRFusb23e06_At91sam3s4c_Rf231_Gcc/Obj/WSNCommandHandler.o
LOAD All_deRFusb23e06_At91sam3s4c_Rf231_Gcc/Obj/WSNRouter.o
LOAD All_deRFusb23e06_At91sam3s4c_Rf231_Gcc/Obj/WSNDemoApp.o
LOAD All_deRFusb23e06_At91sam3s4c_Rf231_Gcc/Obj/WSNUARTManager.o
LOAD All_deRFusb23e06_At91sam3s4c_Rf231_Gcc/Obj/pdsMem.o
LOAD All_deRFusb23e06_At91sam3s4c_Rf231_Gcc/Obj/pdsWriteData.o
LOAD All_deRFusb23e06_At91sam3s4c_Rf231_Gcc/Obj/pdsDataServer.o
LOAD All_deRFusb23e06_At91sam3s4c_Rf231_Gcc/Obj/pdsInit.o
LOAD All_deRFusb23e06_At91sam3s4c_Rf231_Gcc/Obj/pdsTimer.o
LOAD All_deRFusb23e06_At91sam3s4c_Rf231_Gcc/Obj/pdsEvents.o
LOAD All_deRFusb23e06_At91sam3s4c_Rf231_Gcc/Obj/pdsMemAccess.o
LOAD All_deRFusb23e06_At91sam3s4c_Rf231_Gcc/Obj/pdsCrcService.o
LOAD All_deRFusb23e06_At91sam3s4c_Rf231_Gcc/Obj/leds.o
LOAD All_deRFusb23e06_At91sam3s4c_Rf231_Gcc/Obj/bspTaskManager.o
LOAD All_deRFusb23e06_At91sam3s4c_Rf231_Gcc/Obj/fakeBSP.o
LOAD All_deRFusb23e06_At91sam3s4c_Rf231_Gcc/Obj/vcpVirtualUsart.o
LOAD All_deRFusb23e06_At91sam3s4c_Rf231_Gcc/Obj/vcpCdcProtocol.o
LOAD All_deRFusb23e06_At91sam3s4c_Rf231_Gcc/Obj/usbSetupProcess.o
LOAD All_deRFusb23e06_At91sam3s4c_Rf231_Gcc/Obj/usbDescriptors.o
LOAD All_deRFusb23e06_At91sam3s4c_Rf231_Gcc/Obj/usbEnumeration.o
LOAD All_deRFusb23e06_At91sam3s4c_Rf231_Gcc/Obj/csPersistentMem.o
LOAD All_deRFusb23e06_At91sam3s4c_Rf231_Gcc/Obj/csMem.o
LOAD All_deRFusb23e06_At91sam3s4c_Rf231_Gcc/Obj/configServer.o
START GROUP
LOAD ./../../../../BitCloud/lib/libHAL_deRFusb23e06_At91sam3s4c_64Mhz_Gcc.a
LOAD ./../../../../BitCloud/lib/libBc_All_At91sam3s4c_Rf231_Gcc.a
END GROUP
START GROUP
LOAD c:/users/user/desktop/winsync/code_files/sabre/_toolchains/yagarto_arm/bin/../lib/gcc/arm-none-eabi/4.5.1/thumb/v7m\libgcc.a
LOAD c:/users/user/desktop/winsync/code_files/sabre/_toolchains/yagarto_arm/bin/../lib/gcc/arm-none-eabi/4.5.1/../../../../arm-none-eabi/lib/thumb/v7m\libc.a
END GROUP
OUTPUT(All_deRFusb23e06_At91sam3s4c_Rf231_Gcc/Exe/WSNDemo.elf elf32-littlearm)

.debug_pubtypes
                0x00000000     0x56b8
 .debug_pubtypes
                0x00000000      0x13c All_deRFusb23e06_At91sam3s4c_Rf231_Gcc/Obj/WSNSensorManager.o
 .debug_pubtypes
                0x0000013c      0x39b All_deRFusb23e06_At91sam3s4c_Rf231_Gcc/Obj/WSNEndDevice.o
 .debug_pubtypes
                0x000004d7      0x3b0 All_deRFusb23e06_At91sam3s4c_Rf231_Gcc/Obj/WSNCoord.o
 .debug_pubtypes
                0x00000887       0xb8 All_deRFusb23e06_At91sam3s4c_Rf231_Gcc/Obj/WSNVisualizer.o
 .debug_pubtypes
                0x0000093f      0x35b All_deRFusb23e06_At91sam3s4c_Rf231_Gcc/Obj/WSNMessageSender.o
 .debug_pubtypes
                0x00000c9a      0x285 All_deRFusb23e06_At91sam3s4c_Rf231_Gcc/Obj/WSNCommandHandler.o
 .debug_pubtypes
                0x00000f1f      0x34c All_deRFusb23e06_At91sam3s4c_Rf231_Gcc/Obj/WSNRouter.o
 .debug_pubtypes
                0x0000126b      0x8e1 All_deRFusb23e06_At91sam3s4c_Rf231_Gcc/Obj/WSNDemoApp.o
 .debug_pubtypes
                0x00001b4c      0x231 All_deRFusb23e06_At91sam3s4c_Rf231_Gcc/Obj/WSNUARTManager.o
 .debug_pubtypes
                0x00001d7d      0x154 All_deRFusb23e06_At91sam3s4c_Rf231_Gcc/Obj/pdsMem.o
 .debug_pubtypes
                0x00001ed1      0x185 All_deRFusb23e06_At91sam3s4c_Rf231_Gcc/Obj/pdsWriteData.o
 .debug_pubtypes
                0x00002056      0x205 All_deRFusb23e06_At91sam3s4c_Rf231_Gcc/Obj/pdsDataServer.o
 .debug_pubtypes
                0x0000225b      0x154 All_deRFusb23e06_At91sam3s4c_Rf231_Gcc/Obj/pdsInit.o
 .debug_pubtypes
                0x000023af      0x154 All_deRFusb23e06_At91sam3s4c_Rf231_Gcc/Obj/pdsTimer.o
 .debug_pubtypes
                0x00002503      0x154 All_deRFusb23e06_At91sam3s4c_Rf231_Gcc/Obj/pdsEvents.o
 .debug_pubtypes
                0x00002657      0x154 All_deRFusb23e06_At91sam3s4c_Rf231_Gcc/Obj/pdsMemAccess.o
 .debug_pubtypes
                0x000027ab       0x33 All_deRFusb23e06_At91sam3s4c_Rf231_Gcc/Obj/leds.o
 .debug_pubtypes
                0x000027de       0x56 All_deRFusb23e06_At91sam3s4c_Rf231_Gcc/Obj/bspTaskManager.o
 .debug_pubtypes
                0x00002834       0x87 All_deRFusb23e06_At91sam3s4c_Rf231_Gcc/Obj/fakeBSP.o
 .debug_pubtypes
                0x000028bb      0x13c All_deRFusb23e06_At91sam3s4c_Rf231_Gcc/Obj/vcpVirtualUsart.o
 .debug_pubtypes
                0x000029f7      0x173 All_deRFusb23e06_At91sam3s4c_Rf231_Gcc/Obj/vcpCdcProtocol.o
 .debug_pubtypes
                0x00002b6a       0x3c All_deRFusb23e06_At91sam3s4c_Rf231_Gcc/Obj/usbSetupProcess.o
 .debug_pubtypes
                0x00002ba6      0x161 All_deRFusb23e06_At91sam3s4c_Rf231_Gcc/Obj/usbDescriptors.o
 .debug_pubtypes
                0x00002d07      0x264 All_deRFusb23e06_At91sam3s4c_Rf231_Gcc/Obj/usbEnumeration.o
 .debug_pubtypes
                0x00002f6b      0x810 All_deRFusb23e06_At91sam3s4c_Rf231_Gcc/Obj/csPersistentMem.o
 .debug_pubtypes
                0x0000377b      0xea9 All_deRFusb23e06_At91sam3s4c_Rf231_Gcc/Obj/csMem.o
 .debug_pubtypes
                0x00004624      0xe66 All_deRFusb23e06_At91sam3s4c_Rf231_Gcc/Obj/configServer.o
 .debug_pubtypes
                0x0000548a       0x1d c:/users/user/desktop/winsync/code_files/sabre/_toolchains/yagarto_arm/bin/../lib/gcc/arm-none-eabi/4.5.1/../../../../arm-none-eabi/lib/thumb/v7m\libc.a(lib_a-memcmp.o)
 .debug_pubtypes
                0x000054a7       0x1d c:/users/user/desktop/winsync/code_files/sabre/_toolchains/yagarto_arm/bin/../lib/gcc/arm-none-eabi/4.5.1/../../../../arm-none-eabi/lib/thumb/v7m\libc.a(lib_a-memcpy.o)
 .debug_pubtypes
                0x000054c4       0x1d c:/users/user/desktop/winsync/code_files/sabre/_toolchains/yagarto_arm/bin/../lib/gcc/arm-none-eabi/4.5.1/../../../../arm-none-eabi/lib/thumb/v7m\libc.a(lib_a-memmove.o)
 .debug_pubtypes
                0x000054e1       0x1d c:/users/user/desktop/winsync/code_files/sabre/_toolchains/yagarto_arm/bin/../lib/gcc/arm-none-eabi/4.5.1/../../../../arm-none-eabi/lib/thumb/v7m\libc.a(lib_a-memset.o)
 .debug_pubtypes
                0x000054fe       0xdd c:/users/user/desktop/winsync/code_files/sabre/_toolchains/yagarto_arm/bin/../lib/gcc/arm-none-eabi/4.5.1/../../../../arm-none-eabi/lib/thumb/v7m\libc.a(lib_a-rand.o)
 .debug_pubtypes
                0x000055db       0xdd c:/users/user/desktop/winsync/code_files/sabre/_toolchains/yagarto_arm/bin/../lib/gcc/arm-none-eabi/4.5.1/../../../../arm-none-eabi/lib/thumb/v7m\libc.a(lib_a-impure.o)

.debug_ranges   0x00000000      0x878
 .debug_ranges  0x00000000       0x38 All_deRFusb23e06_At91sam3s4c_Rf231_Gcc/Obj/WSNSensorManager.o
 .debug_ranges  0x00000038       0x58 All_deRFusb23e06_At91sam3s4c_Rf231_Gcc/Obj/WSNEndDevice.o
 .debug_ranges  0x00000090       0x50 All_deRFusb23e06_At91sam3s4c_Rf231_Gcc/Obj/WSNCoord.o
 .debug_ranges  0x000000e0       0x68 All_deRFusb23e06_At91sam3s4c_Rf231_Gcc/Obj/WSNVisualizer.o
 .debug_ranges  0x00000148       0x50 All_deRFusb23e06_At91sam3s4c_Rf231_Gcc/Obj/WSNMessageSender.o
 .debug_ranges  0x00000198       0x70 All_deRFusb23e06_At91sam3s4c_Rf231_Gcc/Obj/WSNCommandHandler.o
 .debug_ranges  0x00000208       0x48 All_deRFusb23e06_At91sam3s4c_Rf231_Gcc/Obj/WSNRouter.o
 .debug_ranges  0x00000250      0x1a8 All_deRFusb23e06_At91sam3s4c_Rf231_Gcc/Obj/WSNDemoApp.o
 .debug_ranges  0x000003f8       0x60 All_deRFusb23e06_At91sam3s4c_Rf231_Gcc/Obj/WSNUARTManager.o
 .debug_ranges  0x00000458       0x28 All_deRFusb23e06_At91sam3s4c_Rf231_Gcc/Obj/pdsWriteData.o
 .debug_ranges  0x00000480       0x18 All_deRFusb23e06_At91sam3s4c_Rf231_Gcc/Obj/pdsDataServer.o
 .debug_ranges  0x00000498       0x90 All_deRFusb23e06_At91sam3s4c_Rf231_Gcc/Obj/leds.o
 .debug_ranges  0x00000528       0x10 All_deRFusb23e06_At91sam3s4c_Rf231_Gcc/Obj/bspTaskManager.o
 .debug_ranges  0x00000538      0x1a8 All_deRFusb23e06_At91sam3s4c_Rf231_Gcc/Obj/fakeBSP.o
 .debug_ranges  0x000006e0       0x60 All_deRFusb23e06_At91sam3s4c_Rf231_Gcc/Obj/vcpVirtualUsart.o
 .debug_ranges  0x00000740       0x90 All_deRFusb23e06_At91sam3s4c_Rf231_Gcc/Obj/vcpCdcProtocol.o
 .debug_ranges  0x000007d0       0x10 All_deRFusb23e06_At91sam3s4c_Rf231_Gcc/Obj/usbSetupProcess.o
 .debug_ranges  0x000007e0       0x50 All_deRFusb23e06_At91sam3s4c_Rf231_Gcc/Obj/usbEnumeration.o
 .debug_ranges  0x00000830       0x10 All_deRFusb23e06_At91sam3s4c_Rf231_Gcc/Obj/csMem.o
 .debug_ranges  0x00000840       0x38 All_deRFusb23e06_At91sam3s4c_Rf231_Gcc/Obj/configServer.o
