Archive member included because of file (symbol)

./../../../../../../Atmel_lib/BitCloud_MEGARF_1_14_0/BitCloud/lib/libHAL_AtmlStk600_Atmega128rfa1_8Mhz_Gcc.a(halDelay.o)
                              EndDevice_Stk600_Atmega128rfa1_8Mhz_Gcc/Obj/buttons.o (HAL_Delay)
./../../../../../../Atmel_lib/BitCloud_MEGARF_1_14_0/BitCloud/lib/libHAL_AtmlStk600_Atmega128rfa1_8Mhz_Gcc.a(halW1.o)
                              ./../../../../../../Atmel_lib/BitCloud_MEGARF_1_14_0/BitCloud/lib/libHAL_AtmlStk600_Atmega128rfa1_8Mhz_Gcc.a(halDelay.o) (__delay_us)
./../../../../../../Atmel_lib/BitCloud_MEGARF_1_14_0/BitCloud/lib/libHAL_AtmlStk600_Atmega128rfa1_8Mhz_Gcc.a(appTimer.o)
                              EndDevice_Stk600_Atmega128rfa1_8Mhz_Gcc/Obj/WSNEndDevice.o (HAL_StartAppTimer)
./../../../../../../Atmel_lib/BitCloud_MEGARF_1_14_0/BitCloud/lib/libHAL_AtmlStk600_Atmega128rfa1_8Mhz_Gcc.a(irq.o)
                              EndDevice_Stk600_Atmega128rfa1_8Mhz_Gcc/Obj/buttons.o (HAL_RegisterIrq)
./../../../../../../Atmel_lib/BitCloud_MEGARF_1_14_0/BitCloud/lib/libHAL_AtmlStk600_Atmega128rfa1_8Mhz_Gcc.a(eeprom.o)
                              EndDevice_Stk600_Atmega128rfa1_8Mhz_Gcc/Obj/pdsWriteData.o (HAL_ReadEeprom)
./../../../../../../Atmel_lib/BitCloud_MEGARF_1_14_0/BitCloud/lib/libHAL_AtmlStk600_Atmega128rfa1_8Mhz_Gcc.a(timer.o)
                              ./../../../../../../Atmel_lib/BitCloud_MEGARF_1_14_0/BitCloud/lib/libHAL_AtmlStk600_Atmega128rfa1_8Mhz_Gcc.a(appTimer.o) (halAddTimer)
./../../../../../../Atmel_lib/BitCloud_MEGARF_1_14_0/BitCloud/lib/libHAL_AtmlStk600_Atmega128rfa1_8Mhz_Gcc.a(halSleepTimerClock.o)
                              ./../../../../../../Atmel_lib/BitCloud_MEGARF_1_14_0/BitCloud/lib/libHAL_AtmlStk600_Atmega128rfa1_8Mhz_Gcc.a(appTimer.o) (halGetTimeOfSleepTimer)
./../../../../../../Atmel_lib/BitCloud_MEGARF_1_14_0/BitCloud/lib/libHAL_AtmlStk600_Atmega128rfa1_8Mhz_Gcc.a(halAppClock.o)
                              ./../../../../../../Atmel_lib/BitCloud_MEGARF_1_14_0/BitCloud/lib/libHAL_AtmlStk600_Atmega128rfa1_8Mhz_Gcc.a(appTimer.o) (halGetTimeOfAppTimer)
./../../../../../../Atmel_lib/BitCloud_MEGARF_1_14_0/BitCloud/lib/libHAL_AtmlStk600_Atmega128rfa1_8Mhz_Gcc.a(halIrq.o)
                              ./../../../../../../Atmel_lib/BitCloud_MEGARF_1_14_0/BitCloud/lib/libHAL_AtmlStk600_Atmega128rfa1_8Mhz_Gcc.a(irq.o) (halSetIrqConfig)
./../../../../../../Atmel_lib/BitCloud_MEGARF_1_14_0/BitCloud/lib/libHAL_AtmlStk600_Atmega128rfa1_8Mhz_Gcc.a(halEeprom.o)
                              ./../../../../../../Atmel_lib/BitCloud_MEGARF_1_14_0/BitCloud/lib/libHAL_AtmlStk600_Atmega128rfa1_8Mhz_Gcc.a(eeprom.o) (halEepromWrite)
./../../../../../../Atmel_lib/BitCloud_MEGARF_1_14_0/BitCloud/lib/libHAL_AtmlStk600_Atmega128rfa1_8Mhz_Gcc.a(halSleep.o)
                              ./../../../../../../Atmel_lib/BitCloud_MEGARF_1_14_0/BitCloud/lib/libHAL_AtmlStk600_Atmega128rfa1_8Mhz_Gcc.a(halSleepTimerClock.o) (halPowerOn)
./../../../../../../Atmel_lib/BitCloud_MEGARF_1_14_0/BitCloud/lib/libHAL_AtmlStk600_Atmega128rfa1_8Mhz_Gcc.a(calibration.o)
                              ./../../../../../../Atmel_lib/BitCloud_MEGARF_1_14_0/BitCloud/lib/libHAL_AtmlStk600_Atmega128rfa1_8Mhz_Gcc.a(halSleep.o) (halStartingCalibrate)
./../../../../../../Atmel_lib/BitCloud_MEGARF_1_14_0/BitCloud/lib/libHAL_AtmlStk600_Atmega128rfa1_8Mhz_Gcc.a(halCalibration.o)
                              ./../../../../../../Atmel_lib/BitCloud_MEGARF_1_14_0/BitCloud/lib/libHAL_AtmlStk600_Atmega128rfa1_8Mhz_Gcc.a(calibration.o) (halMeasurement)
./../../../../../../Atmel_lib/BitCloud_MEGARF_1_14_0/BitCloud/lib/libHAL_AtmlStk600_Atmega128rfa1_8Mhz_Gcc.a(halTaskManager.o)
                              ./../../../../../../Atmel_lib/BitCloud_MEGARF_1_14_0/BitCloud/lib/libHAL_AtmlStk600_Atmega128rfa1_8Mhz_Gcc.a(halAppClock.o) (halTaskFlags4)
./../../../../../../Atmel_lib/BitCloud_MEGARF_1_14_0/BitCloud/lib/libHAL_AtmlStk600_Atmega128rfa1_8Mhz_Gcc.a(usart.o)
                              ./../../../../../../Atmel_lib/BitCloud_MEGARF_1_14_0/BitCloud/lib/libHAL_AtmlStk600_Atmega128rfa1_8Mhz_Gcc.a(halTaskManager.o) (halSigUsartHandler)
./../../../../../../Atmel_lib/BitCloud_MEGARF_1_14_0/BitCloud/lib/libHAL_AtmlStk600_Atmega128rfa1_8Mhz_Gcc.a(i2cPacket.o)
                              ./../../../../../../Atmel_lib/BitCloud_MEGARF_1_14_0/BitCloud/lib/libHAL_AtmlStk600_Atmega128rfa1_8Mhz_Gcc.a(halTaskManager.o) (halSig2WireSerialHandler)
./../../../../../../Atmel_lib/BitCloud_MEGARF_1_14_0/BitCloud/lib/libHAL_AtmlStk600_Atmega128rfa1_8Mhz_Gcc.a(adc.o)
                              ./../../../../../../Atmel_lib/BitCloud_MEGARF_1_14_0/BitCloud/lib/libHAL_AtmlStk600_Atmega128rfa1_8Mhz_Gcc.a(halTaskManager.o) (halSigAdcHandler)
./../../../../../../Atmel_lib/BitCloud_MEGARF_1_14_0/BitCloud/lib/libHAL_AtmlStk600_Atmega128rfa1_8Mhz_Gcc.a(spi.o)
                              ./../../../../../../Atmel_lib/BitCloud_MEGARF_1_14_0/BitCloud/lib/libHAL_AtmlStk600_Atmega128rfa1_8Mhz_Gcc.a(halTaskManager.o) (halSpiRxByteComplete)
./../../../../../../Atmel_lib/BitCloud_MEGARF_1_14_0/BitCloud/lib/libHAL_AtmlStk600_Atmega128rfa1_8Mhz_Gcc.a(sleep.o)
                              ./../../../../../../Atmel_lib/BitCloud_MEGARF_1_14_0/BitCloud/lib/libHAL_AtmlStk600_Atmega128rfa1_8Mhz_Gcc.a(halSleepTimerClock.o) (halSleepControl)
./../../../../../../Atmel_lib/BitCloud_MEGARF_1_14_0/BitCloud/lib/libHAL_AtmlStk600_Atmega128rfa1_8Mhz_Gcc.a(halSecurityModule.o)
                              ./../../../../../../Atmel_lib/BitCloud_MEGARF_1_14_0/BitCloud/lib/libHAL_AtmlStk600_Atmega128rfa1_8Mhz_Gcc.a(halTaskManager.o) (halSmRequestHandler)
./../../../../../../Atmel_lib/BitCloud_MEGARF_1_14_0/BitCloud/lib/libHAL_AtmlStk600_Atmega128rfa1_8Mhz_Gcc.a(halClkCtrl.o)
                              ./../../../../../../Atmel_lib/BitCloud_MEGARF_1_14_0/BitCloud/lib/libHAL_AtmlStk600_Atmega128rfa1_8Mhz_Gcc.a(calibration.o) (halGetClockSource)
./../../../../../../Atmel_lib/BitCloud_MEGARF_1_14_0/BitCloud/lib/libHAL_AtmlStk600_Atmega128rfa1_8Mhz_Gcc.a(halUsart.o)
                              ./../../../../../../Atmel_lib/BitCloud_MEGARF_1_14_0/BitCloud/lib/libHAL_AtmlStk600_Atmega128rfa1_8Mhz_Gcc.a(usart.o) (halSetUsartConfig)
./../../../../../../Atmel_lib/BitCloud_MEGARF_1_14_0/BitCloud/lib/libHAL_AtmlStk600_Atmega128rfa1_8Mhz_Gcc.a(halTwi.o)
                              ./../../../../../../Atmel_lib/BitCloud_MEGARF_1_14_0/BitCloud/lib/libHAL_AtmlStk600_Atmega128rfa1_8Mhz_Gcc.a(i2cPacket.o) (halInitI2c)
./../../../../../../Atmel_lib/BitCloud_MEGARF_1_14_0/BitCloud/lib/libHAL_AtmlStk600_Atmega128rfa1_8Mhz_Gcc.a(halAdc.o)
                              ./../../../../../../Atmel_lib/BitCloud_MEGARF_1_14_0/BitCloud/lib/libHAL_AtmlStk600_Atmega128rfa1_8Mhz_Gcc.a(adc.o) (halOpenAdc)
./../../../../../../Atmel_lib/BitCloud_MEGARF_1_14_0/BitCloud/lib/libHAL_AtmlStk600_Atmega128rfa1_8Mhz_Gcc.a(halSpi.o)
                              ./../../../../../../Atmel_lib/BitCloud_MEGARF_1_14_0/BitCloud/lib/libHAL_AtmlStk600_Atmega128rfa1_8Mhz_Gcc.a(spi.o) (halSetUsartSpiConfig)
./../../../../../../Atmel_lib/BitCloud_MEGARF_1_14_0/BitCloud/lib/libHAL_AtmlStk600_Atmega128rfa1_8Mhz_Gcc.a(sleepTimer.o)
                              ./../../../../../../Atmel_lib/BitCloud_MEGARF_1_14_0/BitCloud/lib/libHAL_AtmlStk600_Atmega128rfa1_8Mhz_Gcc.a(sleep.o) (HAL_StartSleepTimer)
./../../../../../../Atmel_lib/BitCloud_MEGARF_1_14_0/BitCloud/lib/libBc_EndDevice_Atmega128rfa1_Atmega128rfa1_Gcc.a(aps.o)
                              EndDevice_Stk600_Atmega128rfa1_8Mhz_Gcc/Obj/WSNMessageSender.o (APS_DataReq)
./../../../../../../Atmel_lib/BitCloud_MEGARF_1_14_0/BitCloud/lib/libBc_EndDevice_Atmega128rfa1_Atmega128rfa1_Gcc.a(macenvPib.o)
                              ./../../../../../../Atmel_lib/BitCloud_MEGARF_1_14_0/BitCloud/lib/libBc_EndDevice_Atmega128rfa1_Atmega128rfa1_Gcc.a(aps.o) (MAC_GetExtAddr)
./../../../../../../Atmel_lib/BitCloud_MEGARF_1_14_0/BitCloud/lib/libBc_EndDevice_Atmega128rfa1_Atmega128rfa1_Gcc.a(nwk.o)
                              ./../../../../../../Atmel_lib/BitCloud_MEGARF_1_14_0/BitCloud/lib/libBc_EndDevice_Atmega128rfa1_Atmega128rfa1_Gcc.a(aps.o) (NWK_GetShortAddr)
./../../../../../../Atmel_lib/BitCloud_MEGARF_1_14_0/BitCloud/lib/libBc_EndDevice_Atmega128rfa1_Atmega128rfa1_Gcc.a(phyRxTxIndicator.o)
                              ./../../../../../../Atmel_lib/BitCloud_MEGARF_1_14_0/BitCloud/lib/libHAL_AtmlStk600_Atmega128rfa1_8Mhz_Gcc.a(halSleep.o) (phyRxTxSwitcherOn)
./../../../../../../Atmel_lib/BitCloud_MEGARF_1_14_0/BitCloud/lib/libBc_EndDevice_Atmega128rfa1_Atmega128rfa1_Gcc.a(phyStateMachine.o)
                              ./../../../../../../Atmel_lib/BitCloud_MEGARF_1_14_0/BitCloud/lib/libBc_EndDevice_Atmega128rfa1_Atmega128rfa1_Gcc.a(phyRxTxIndicator.o) (__wasRequest)
./../../../../../../Atmel_lib/BitCloud_MEGARF_1_14_0/BitCloud/lib/libBc_EndDevice_Atmega128rfa1_Atmega128rfa1_Gcc.a(queue.o)
                              EndDevice_Stk600_Atmega128rfa1_8Mhz_Gcc/Obj/WSNMessageSender.o (deleteHeadQueueElem)
./../../../../../../Atmel_lib/BitCloud_MEGARF_1_14_0/BitCloud/lib/libBc_EndDevice_Atmega128rfa1_Atmega128rfa1_Gcc.a(sysDuplicateTable.o)
                              ./../../../../../../Atmel_lib/BitCloud_MEGARF_1_14_0/BitCloud/lib/libBc_EndDevice_Atmega128rfa1_Atmega128rfa1_Gcc.a(aps.o) (SYS_DuplicateTableReset)
./../../../../../../Atmel_lib/BitCloud_MEGARF_1_14_0/BitCloud/lib/libBc_EndDevice_Atmega128rfa1_Atmega128rfa1_Gcc.a(sysEvents.o)
                              EndDevice_Stk600_Atmega128rfa1_8Mhz_Gcc/Obj/pdsWriteData.o (SYS_PostEvent)
./../../../../../../Atmel_lib/BitCloud_MEGARF_1_14_0/BitCloud/lib/libBc_EndDevice_Atmega128rfa1_Atmega128rfa1_Gcc.a(sysTimer.o)
                              ./../../../../../../Atmel_lib/BitCloud_MEGARF_1_14_0/BitCloud/lib/libBc_EndDevice_Atmega128rfa1_Atmega128rfa1_Gcc.a(aps.o) (SYS_StartTimer)
./../../../../../../Atmel_lib/BitCloud_MEGARF_1_14_0/BitCloud/lib/libBc_EndDevice_Atmega128rfa1_Atmega128rfa1_Gcc.a(taskManager.o)
                              EndDevice_Stk600_Atmega128rfa1_8Mhz_Gcc/Obj/WSNDemoApp.o (SYS_RunTask)
./../../../../../../Atmel_lib/BitCloud_MEGARF_1_14_0/BitCloud/lib/libBc_EndDevice_Atmega128rfa1_Atmega128rfa1_Gcc.a(zdo.o)
                              EndDevice_Stk600_Atmega128rfa1_8Mhz_Gcc/Obj/WSNDemoApp.o (ZDO_GetLqiRssi)
./../../../../../../Atmel_lib/BitCloud_MEGARF_1_14_0/BitCloud/lib/libBc_EndDevice_Atmega128rfa1_Atmega128rfa1_Gcc.a(bcSysSleep.o)
                              ./../../../../../../Atmel_lib/BitCloud_MEGARF_1_14_0/BitCloud/lib/libBc_EndDevice_Atmega128rfa1_Atmega128rfa1_Gcc.a(zdo.o) (SYS_Sleep)
./../../../../../../Atmel_lib/BitCloud_MEGARF_1_14_0/BitCloud/lib/libBc_EndDevice_Atmega128rfa1_Atmega128rfa1_Gcc.a(macMem.o)
                              ./../../../../../../Atmel_lib/BitCloud_MEGARF_1_14_0/BitCloud/lib/libBc_EndDevice_Atmega128rfa1_Atmega128rfa1_Gcc.a(phyRxTxIndicator.o) (macMem)
./../../../../../../Atmel_lib/BitCloud_MEGARF_1_14_0/BitCloud/lib/libBc_EndDevice_Atmega128rfa1_Atmega128rfa1_Gcc.a(machwdManager.o)
                              ./../../../../../../Atmel_lib/BitCloud_MEGARF_1_14_0/BitCloud/lib/libBc_EndDevice_Atmega128rfa1_Atmega128rfa1_Gcc.a(zdo.o) (RF_RandomReq)
./../../../../../../Atmel_lib/BitCloud_MEGARF_1_14_0/BitCloud/lib/libBc_EndDevice_Atmega128rfa1_Atmega128rfa1_Gcc.a(machwdRegAccessHandler.o)
                              ./../../../../../../Atmel_lib/BitCloud_MEGARF_1_14_0/BitCloud/lib/libBc_EndDevice_Atmega128rfa1_Atmega128rfa1_Gcc.a(machwdManager.o) (machwdRegAccessReqHandler)
./../../../../../../Atmel_lib/BitCloud_MEGARF_1_14_0/BitCloud/lib/libBc_EndDevice_Atmega128rfa1_Atmega128rfa1_Gcc.a(machwdResetHandler.o)
                              ./../../../../../../Atmel_lib/BitCloud_MEGARF_1_14_0/BitCloud/lib/libBc_EndDevice_Atmega128rfa1_Atmega128rfa1_Gcc.a(machwdManager.o) (machwdReset)
./../../../../../../Atmel_lib/BitCloud_MEGARF_1_14_0/BitCloud/lib/libBc_EndDevice_Atmega128rfa1_Atmega128rfa1_Gcc.a(machwdRndHandler.o)
                              ./../../../../../../Atmel_lib/BitCloud_MEGARF_1_14_0/BitCloud/lib/libBc_EndDevice_Atmega128rfa1_Atmega128rfa1_Gcc.a(machwdManager.o) (machwdRndReqHandler)
./../../../../../../Atmel_lib/BitCloud_MEGARF_1_14_0/BitCloud/lib/libBc_EndDevice_Atmega128rfa1_Atmega128rfa1_Gcc.a(machwdRxBuffer.o)
                              ./../../../../../../Atmel_lib/BitCloud_MEGARF_1_14_0/BitCloud/lib/libBc_EndDevice_Atmega128rfa1_Atmega128rfa1_Gcc.a(machwdResetHandler.o) (machwdResetRxBuffer)
./../../../../../../Atmel_lib/BitCloud_MEGARF_1_14_0/BitCloud/lib/libBc_EndDevice_Atmega128rfa1_Atmega128rfa1_Gcc.a(machwdRxFrameHandler.o)
                              ./../../../../../../Atmel_lib/BitCloud_MEGARF_1_14_0/BitCloud/lib/libBc_EndDevice_Atmega128rfa1_Atmega128rfa1_Gcc.a(machwdManager.o) (machwdRxFrameTaskHandler)
./../../../../../../Atmel_lib/BitCloud_MEGARF_1_14_0/BitCloud/lib/libBc_EndDevice_Atmega128rfa1_Atmega128rfa1_Gcc.a(machwdSetHandler.o)
                              ./../../../../../../Atmel_lib/BitCloud_MEGARF_1_14_0/BitCloud/lib/libBc_EndDevice_Atmega128rfa1_Atmega128rfa1_Gcc.a(machwdManager.o) (machwdSetReqHandler)
./../../../../../../Atmel_lib/BitCloud_MEGARF_1_14_0/BitCloud/lib/libBc_EndDevice_Atmega128rfa1_Atmega128rfa1_Gcc.a(machwdTrxCtrl.o)
                              ./../../../../../../Atmel_lib/BitCloud_MEGARF_1_14_0/BitCloud/lib/libBc_EndDevice_Atmega128rfa1_Atmega128rfa1_Gcc.a(machwdSetHandler.o) (machwdSendTrxCmd)
./../../../../../../Atmel_lib/BitCloud_MEGARF_1_14_0/BitCloud/lib/libBc_EndDevice_Atmega128rfa1_Atmega128rfa1_Gcc.a(machwdTrxHandler.o)
                              ./../../../../../../Atmel_lib/BitCloud_MEGARF_1_14_0/BitCloud/lib/libBc_EndDevice_Atmega128rfa1_Atmega128rfa1_Gcc.a(machwdManager.o) (machwdTrxReqHandler)
./../../../../../../Atmel_lib/BitCloud_MEGARF_1_14_0/BitCloud/lib/libBc_EndDevice_Atmega128rfa1_Atmega128rfa1_Gcc.a(machwdTxFrameHandler.o)
                              ./../../../../../../Atmel_lib/BitCloud_MEGARF_1_14_0/BitCloud/lib/libBc_EndDevice_Atmega128rfa1_Atmega128rfa1_Gcc.a(machwdManager.o) (machwdTxFrameReqHandler)
./../../../../../../Atmel_lib/BitCloud_MEGARF_1_14_0/BitCloud/lib/libBc_EndDevice_Atmega128rfa1_Atmega128rfa1_Gcc.a(machwiManager.o)
                              ./../../../../../../Atmel_lib/BitCloud_MEGARF_1_14_0/BitCloud/lib/libBc_EndDevice_Atmega128rfa1_Atmega128rfa1_Gcc.a(taskManager.o) (MAC_HWI_TaskHandler)
./../../../../../../Atmel_lib/BitCloud_MEGARF_1_14_0/BitCloud/lib/libBc_EndDevice_Atmega128rfa1_Atmega128rfa1_Gcc.a(machwiPanServer.o)
                              ./../../../../../../Atmel_lib/BitCloud_MEGARF_1_14_0/BitCloud/lib/libBc_EndDevice_Atmega128rfa1_Atmega128rfa1_Gcc.a(machwdRxFrameHandler.o) (MACHWD_DataInd)
./../../../../../../Atmel_lib/BitCloud_MEGARF_1_14_0/BitCloud/lib/libBc_EndDevice_Atmega128rfa1_Atmega128rfa1_Gcc.a(machwiPollHandler.o)
                              ./../../../../../../Atmel_lib/BitCloud_MEGARF_1_14_0/BitCloud/lib/libBc_EndDevice_Atmega128rfa1_Atmega128rfa1_Gcc.a(machwiPanServer.o) (machwiDataIndication)
./../../../../../../Atmel_lib/BitCloud_MEGARF_1_14_0/BitCloud/lib/libBc_EndDevice_Atmega128rfa1_Atmega128rfa1_Gcc.a(machwiResetHandler.o)
                              ./../../../../../../Atmel_lib/BitCloud_MEGARF_1_14_0/BitCloud/lib/libBc_EndDevice_Atmega128rfa1_Atmega128rfa1_Gcc.a(machwiManager.o) (machwiResetReqHandler)
./../../../../../../Atmel_lib/BitCloud_MEGARF_1_14_0/BitCloud/lib/libBc_EndDevice_Atmega128rfa1_Atmega128rfa1_Gcc.a(machwiRxEnableHandler.o)
                              ./../../../../../../Atmel_lib/BitCloud_MEGARF_1_14_0/BitCloud/lib/libBc_EndDevice_Atmega128rfa1_Atmega128rfa1_Gcc.a(machwiManager.o) (machwiRxEnableReqHandler)
./../../../../../../Atmel_lib/BitCloud_MEGARF_1_14_0/BitCloud/lib/libBc_EndDevice_Atmega128rfa1_Atmega128rfa1_Gcc.a(machwiScanHandler.o)
                              ./../../../../../../Atmel_lib/BitCloud_MEGARF_1_14_0/BitCloud/lib/libBc_EndDevice_Atmega128rfa1_Atmega128rfa1_Gcc.a(machwiManager.o) (machwiScanReqHandler)
./../../../../../../Atmel_lib/BitCloud_MEGARF_1_14_0/BitCloud/lib/libBc_EndDevice_Atmega128rfa1_Atmega128rfa1_Gcc.a(machwiSetGetHandler.o)
                              ./../../../../../../Atmel_lib/BitCloud_MEGARF_1_14_0/BitCloud/lib/libBc_EndDevice_Atmega128rfa1_Atmega128rfa1_Gcc.a(machwiManager.o) (machwiGetReqHandler)
./../../../../../../Atmel_lib/BitCloud_MEGARF_1_14_0/BitCloud/lib/libBc_EndDevice_Atmega128rfa1_Atmega128rfa1_Gcc.a(machwiSwitchRxCtrl.o)
                              ./../../../../../../Atmel_lib/BitCloud_MEGARF_1_14_0/BitCloud/lib/libBc_EndDevice_Atmega128rfa1_Atmega128rfa1_Gcc.a(machwiPollHandler.o) (machwiSwitchRxAccordToRxOnWhenIdle)
./../../../../../../Atmel_lib/BitCloud_MEGARF_1_14_0/BitCloud/lib/libBc_EndDevice_Atmega128rfa1_Atmega128rfa1_Gcc.a(phyInit.o)
                              ./../../../../../../Atmel_lib/BitCloud_MEGARF_1_14_0/BitCloud/lib/libBc_EndDevice_Atmega128rfa1_Atmega128rfa1_Gcc.a(taskManager.o) (RF_Init)
./../../../../../../Atmel_lib/BitCloud_MEGARF_1_14_0/BitCloud/lib/libBc_EndDevice_Atmega128rfa1_Atmega128rfa1_Gcc.a(phyRegAccess.o)
                              ./../../../../../../Atmel_lib/BitCloud_MEGARF_1_14_0/BitCloud/lib/libBc_EndDevice_Atmega128rfa1_Atmega128rfa1_Gcc.a(machwdRegAccessHandler.o) (PHY_RegWriteReq)
./../../../../../../Atmel_lib/BitCloud_MEGARF_1_14_0/BitCloud/lib/libBc_EndDevice_Atmega128rfa1_Atmega128rfa1_Gcc.a(phyReset.o)
                              ./../../../../../../Atmel_lib/BitCloud_MEGARF_1_14_0/BitCloud/lib/libBc_EndDevice_Atmega128rfa1_Atmega128rfa1_Gcc.a(machwdResetHandler.o) (PHY_Reset)
./../../../../../../Atmel_lib/BitCloud_MEGARF_1_14_0/BitCloud/lib/libBc_EndDevice_Atmega128rfa1_Atmega128rfa1_Gcc.a(phyRfIrqDispatcher.o)
                              ./../../../../../../Atmel_lib/BitCloud_MEGARF_1_14_0/BitCloud/lib/libBc_EndDevice_Atmega128rfa1_Atmega128rfa1_Gcc.a(phyRegAccess.o) (phyRestoreRfIrqMask)
./../../../../../../Atmel_lib/BitCloud_MEGARF_1_14_0/BitCloud/lib/libBc_EndDevice_Atmega128rfa1_Atmega128rfa1_Gcc.a(phyRnd.o)
                              ./../../../../../../Atmel_lib/BitCloud_MEGARF_1_14_0/BitCloud/lib/libBc_EndDevice_Atmega128rfa1_Atmega128rfa1_Gcc.a(machwdRndHandler.o) (PHY_RndReq)
./../../../../../../Atmel_lib/BitCloud_MEGARF_1_14_0/BitCloud/lib/libBc_EndDevice_Atmega128rfa1_Atmega128rfa1_Gcc.a(phyRxFrame.o)
                              ./../../../../../../Atmel_lib/BitCloud_MEGARF_1_14_0/BitCloud/lib/libBc_EndDevice_Atmega128rfa1_Atmega128rfa1_Gcc.a(machwdRxFrameHandler.o) (PHY_DownloadFrame)
./../../../../../../Atmel_lib/BitCloud_MEGARF_1_14_0/BitCloud/lib/libBc_EndDevice_Atmega128rfa1_Atmega128rfa1_Gcc.a(phySet.o)
                              ./../../../../../../Atmel_lib/BitCloud_MEGARF_1_14_0/BitCloud/lib/libBc_EndDevice_Atmega128rfa1_Atmega128rfa1_Gcc.a(machwdResetHandler.o) (PHY_SetReq)
./../../../../../../Atmel_lib/BitCloud_MEGARF_1_14_0/BitCloud/lib/libBc_EndDevice_Atmega128rfa1_Atmega128rfa1_Gcc.a(phySetTrxState.o)
                              ./../../../../../../Atmel_lib/BitCloud_MEGARF_1_14_0/BitCloud/lib/libBc_EndDevice_Atmega128rfa1_Atmega128rfa1_Gcc.a(machwdTrxCtrl.o) (PHY_SetTrxStateReq)
./../../../../../../Atmel_lib/BitCloud_MEGARF_1_14_0/BitCloud/lib/libBc_EndDevice_Atmega128rfa1_Atmega128rfa1_Gcc.a(phyTxFrame.o)
                              ./../../../../../../Atmel_lib/BitCloud_MEGARF_1_14_0/BitCloud/lib/libBc_EndDevice_Atmega128rfa1_Atmega128rfa1_Gcc.a(machwdTxFrameHandler.o) (PHY_DataReq)
./../../../../../../Atmel_lib/BitCloud_MEGARF_1_14_0/BitCloud/lib/libBc_EndDevice_Atmega128rfa1_Atmega128rfa1_Gcc.a(machwdCalibHandler.o)
                              ./../../../../../../Atmel_lib/BitCloud_MEGARF_1_14_0/BitCloud/lib/libBc_EndDevice_Atmega128rfa1_Atmega128rfa1_Gcc.a(machwdManager.o) (machwdCalibReqHandler)
./../../../../../../Atmel_lib/BitCloud_MEGARF_1_14_0/BitCloud/lib/libBc_EndDevice_Atmega128rfa1_Atmega128rfa1_Gcc.a(machwdEdHandler.o)
                              ./../../../../../../Atmel_lib/BitCloud_MEGARF_1_14_0/BitCloud/lib/libBc_EndDevice_Atmega128rfa1_Atmega128rfa1_Gcc.a(machwdManager.o) (machwdEdReqHandler)
./../../../../../../Atmel_lib/BitCloud_MEGARF_1_14_0/BitCloud/lib/libBc_EndDevice_Atmega128rfa1_Atmega128rfa1_Gcc.a(machwdFrameRoutine.o)
                              ./../../../../../../Atmel_lib/BitCloud_MEGARF_1_14_0/BitCloud/lib/libBc_EndDevice_Atmega128rfa1_Atmega128rfa1_Gcc.a(machwdRxFrameHandler.o) (machwdParseFrame)
./../../../../../../Atmel_lib/BitCloud_MEGARF_1_14_0/BitCloud/lib/libBc_EndDevice_Atmega128rfa1_Atmega128rfa1_Gcc.a(machwdHandlerCtrl.o)
                              ./../../../../../../Atmel_lib/BitCloud_MEGARF_1_14_0/BitCloud/lib/libBc_EndDevice_Atmega128rfa1_Atmega128rfa1_Gcc.a(machwdManager.o) (machwdGetHandlerId)
./../../../../../../Atmel_lib/BitCloud_MEGARF_1_14_0/BitCloud/lib/libBc_EndDevice_Atmega128rfa1_Atmega128rfa1_Gcc.a(machwiAssociateHandler.o)
                              ./../../../../../../Atmel_lib/BitCloud_MEGARF_1_14_0/BitCloud/lib/libBc_EndDevice_Atmega128rfa1_Atmega128rfa1_Gcc.a(machwiResetHandler.o) (machwiResetAssociateHandler)
./../../../../../../Atmel_lib/BitCloud_MEGARF_1_14_0/BitCloud/lib/libBc_EndDevice_Atmega128rfa1_Atmega128rfa1_Gcc.a(machwiDataHandler.o)
                              ./../../../../../../Atmel_lib/BitCloud_MEGARF_1_14_0/BitCloud/lib/libBc_EndDevice_Atmega128rfa1_Atmega128rfa1_Gcc.a(machwiPollHandler.o) (machwiConvertmachwdDataConfirmTypes)
./../../../../../../Atmel_lib/BitCloud_MEGARF_1_14_0/BitCloud/lib/libBc_EndDevice_Atmega128rfa1_Atmega128rfa1_Gcc.a(phyCalib.o)
                              ./../../../../../../Atmel_lib/BitCloud_MEGARF_1_14_0/BitCloud/lib/libBc_EndDevice_Atmega128rfa1_Atmega128rfa1_Gcc.a(machwdCalibHandler.o) (PHY_CalibReq)
./../../../../../../Atmel_lib/BitCloud_MEGARF_1_14_0/BitCloud/lib/libBc_EndDevice_Atmega128rfa1_Atmega128rfa1_Gcc.a(phyEd.o)
                              ./../../../../../../Atmel_lib/BitCloud_MEGARF_1_14_0/BitCloud/lib/libBc_EndDevice_Atmega128rfa1_Atmega128rfa1_Gcc.a(machwdEdHandler.o) (PHY_EdReq)
./../../../../../../Atmel_lib/BitCloud_MEGARF_1_14_0/BitCloud/lib/libBc_EndDevice_Atmega128rfa1_Atmega128rfa1_Gcc.a(phyRtimerIrqDispatcher.o)
                              ./../../../../../../Atmel_lib/BitCloud_MEGARF_1_14_0/BitCloud/lib/libBc_EndDevice_Atmega128rfa1_Atmega128rfa1_Gcc.a(phyRxFrame.o) (phySetRTimerSource)
./../../../../../../Atmel_lib/BitCloud_MEGARF_1_14_0/BitCloud/lib/libHAL_AtmlStk600_Atmega128rfa1_8Mhz_Gcc.a(halInit.o)
                              ./../../../../../../Atmel_lib/BitCloud_MEGARF_1_14_0/BitCloud/lib/libBc_EndDevice_Atmega128rfa1_Atmega128rfa1_Gcc.a(taskManager.o) (HAL_Init)
./../../../../../../Atmel_lib/BitCloud_MEGARF_1_14_0/BitCloud/lib/libHAL_AtmlStk600_Atmega128rfa1_8Mhz_Gcc.a(halRfCtrl.o)
                              ./../../../../../../Atmel_lib/BitCloud_MEGARF_1_14_0/BitCloud/lib/libBc_EndDevice_Atmega128rfa1_Atmega128rfa1_Gcc.a(phyInit.o) (HAL_EnableRxTxSwitcher)
./../../../../../../Atmel_lib/BitCloud_MEGARF_1_14_0/BitCloud/lib/libHAL_AtmlStk600_Atmega128rfa1_8Mhz_Gcc.a(halUid.o)
                              ./../../../../../../Atmel_lib/BitCloud_MEGARF_1_14_0/BitCloud/lib/libHAL_AtmlStk600_Atmega128rfa1_8Mhz_Gcc.a(halInit.o) (halReadUid)
./../../../../../../Atmel_lib/BitCloud_MEGARF_1_14_0/BitCloud/lib/libHAL_AtmlStk600_Atmega128rfa1_8Mhz_Gcc.a(halMacIsr.o)
                              ./../../../../../../Atmel_lib/BitCloud_MEGARF_1_14_0/BitCloud/lib/libBc_EndDevice_Atmega128rfa1_Atmega128rfa1_Gcc.a(phyInit.o) (HAL_InitMacIsr)
c:/program files (x86)/atmel/avr tools/avr toolchain/bin/../lib/gcc/avr/4.5.1/avr51\libgcc.a(_mulsi3.o)
                              ./../../../../../../Atmel_lib/BitCloud_MEGARF_1_14_0/BitCloud/lib/libHAL_AtmlStk600_Atmega128rfa1_8Mhz_Gcc.a(halSleepTimerClock.o) (__mulsi3)
c:/program files (x86)/atmel/avr tools/avr toolchain/bin/../lib/gcc/avr/4.5.1/avr51\libgcc.a(_udivmodqi4.o)
                              ./../../../../../../Atmel_lib/BitCloud_MEGARF_1_14_0/BitCloud/lib/libBc_EndDevice_Atmega128rfa1_Atmega128rfa1_Gcc.a(aps.o) (__udivmodqi4)
c:/program files (x86)/atmel/avr tools/avr toolchain/bin/../lib/gcc/avr/4.5.1/avr51\libgcc.a(_udivmodhi4.o)
                              EndDevice_Stk600_Atmega128rfa1_8Mhz_Gcc/Obj/pdsInit.o (__udivmodhi4)
c:/program files (x86)/atmel/avr tools/avr toolchain/bin/../lib/gcc/avr/4.5.1/avr51\libgcc.a(_udivmodsi4.o)
                              ./../../../../../../Atmel_lib/BitCloud_MEGARF_1_14_0/BitCloud/lib/libHAL_AtmlStk600_Atmega128rfa1_8Mhz_Gcc.a(sleepTimer.o) (__udivmodsi4)
c:/program files (x86)/atmel/avr tools/avr toolchain/bin/../lib/gcc/avr/4.5.1/avr51\libgcc.a(_prologue.o)
                              EndDevice_Stk600_Atmega128rfa1_8Mhz_Gcc/Obj/WSNEndDevice.o (__prologue_saves__)
c:/program files (x86)/atmel/avr tools/avr toolchain/bin/../lib/gcc/avr/4.5.1/avr51\libgcc.a(_epilogue.o)
                              EndDevice_Stk600_Atmega128rfa1_8Mhz_Gcc/Obj/WSNEndDevice.o (__epilogue_restores__)
c:/program files (x86)/atmel/avr tools/avr toolchain/bin/../lib/gcc/avr/4.5.1/avr51\libgcc.a(_exit.o)
                              c:/program files (x86)/atmel/avr tools/avr toolchain/bin/../lib/gcc/avr/4.5.1/../../../../avr/lib/avr51/crtm128rfa1.o (exit)
c:/program files (x86)/atmel/avr tools/avr toolchain/bin/../lib/gcc/avr/4.5.1/avr51\libgcc.a(_tablejump.o)
                              ./../../../../../../Atmel_lib/BitCloud_MEGARF_1_14_0/BitCloud/lib/libBc_EndDevice_Atmega128rfa1_Atmega128rfa1_Gcc.a(macenvPib.o) (__tablejump2__)
c:/program files (x86)/atmel/avr tools/avr toolchain/bin/../lib/gcc/avr/4.5.1/avr51\libgcc.a(_copy_data.o)
                              EndDevice_Stk600_Atmega128rfa1_8Mhz_Gcc/Obj/WSNDemoApp.o (__do_copy_data)
c:/program files (x86)/atmel/avr tools/avr toolchain/bin/../lib/gcc/avr/4.5.1/avr51\libgcc.a(_clear_bss.o)
                              EndDevice_Stk600_Atmega128rfa1_8Mhz_Gcc/Obj/WSNSensorManager.o (__do_clear_bss)
c:/program files (x86)/atmel/avr tools/avr toolchain/bin/../lib/gcc/avr/4.5.1/avr51\libgcc.a(_ashldi3.o)
                              ./../../../../../../Atmel_lib/BitCloud_MEGARF_1_14_0/BitCloud/lib/libHAL_AtmlStk600_Atmega128rfa1_8Mhz_Gcc.a(appTimer.o) (__ashldi3)
c:/program files (x86)/atmel/avr tools/avr toolchain/bin/../lib/gcc/avr/4.5.1/../../../../avr/lib/avr51\libc.a(rand.o)
                              ./../../../../../../Atmel_lib/BitCloud_MEGARF_1_14_0/BitCloud/lib/libBc_EndDevice_Atmega128rfa1_Atmega128rfa1_Gcc.a(aps.o) (rand)
c:/program files (x86)/atmel/avr tools/avr toolchain/bin/../lib/gcc/avr/4.5.1/../../../../avr/lib/avr51\libc.a(memcpy_P.o)
                              EndDevice_Stk600_Atmega128rfa1_8Mhz_Gcc/Obj/WSNDemoApp.o (memcpy_P)
c:/program files (x86)/atmel/avr tools/avr toolchain/bin/../lib/gcc/avr/4.5.1/../../../../avr/lib/avr51\libc.a(memcmp.o)
                              ./../../../../../../Atmel_lib/BitCloud_MEGARF_1_14_0/BitCloud/lib/libBc_EndDevice_Atmega128rfa1_Atmega128rfa1_Gcc.a(aps.o) (memcmp)
c:/program files (x86)/atmel/avr tools/avr toolchain/bin/../lib/gcc/avr/4.5.1/../../../../avr/lib/avr51\libc.a(memcpy.o)
                              EndDevice_Stk600_Atmega128rfa1_8Mhz_Gcc/Obj/configServer.o (memcpy)
c:/program files (x86)/atmel/avr tools/avr toolchain/bin/../lib/gcc/avr/4.5.1/../../../../avr/lib/avr51\libc.a(memmove.o)
                              ./../../../../../../Atmel_lib/BitCloud_MEGARF_1_14_0/BitCloud/lib/libBc_EndDevice_Atmega128rfa1_Atmega128rfa1_Gcc.a(nwk.o) (memmove)
c:/program files (x86)/atmel/avr tools/avr toolchain/bin/../lib/gcc/avr/4.5.1/../../../../avr/lib/avr51\libc.a(memset.o)
                              EndDevice_Stk600_Atmega128rfa1_8Mhz_Gcc/Obj/pdsMemAccess.o (memset)
c:/program files (x86)/atmel/avr tools/avr toolchain/bin/../lib/gcc/avr/4.5.1/avr51\libgcc.a(_divmodsi4.o)
                              c:/program files (x86)/atmel/avr tools/avr toolchain/bin/../lib/gcc/avr/4.5.1/../../../../avr/lib/avr51\libc.a(rand.o) (__divmodsi4)

Allocating common symbols
Common symbol       size              file

stackBuffers        0x741             EndDevice_Stk600_Atmega128rfa1_8Mhz_Gcc/Obj/csMem.o
readBatteryDataCallback
                    0x2               EndDevice_Stk600_Atmega128rfa1_8Mhz_Gcc/Obj/fakeBSP.o
csAIB               0x2               EndDevice_Stk600_Atmega128rfa1_8Mhz_Gcc/Obj/csMem.o
macMem              0x73              ./../../../../../../Atmel_lib/BitCloud_MEGARF_1_14_0/BitCloud/lib/libBc_EndDevice_Atmega128rfa1_Atmega128rfa1_Gcc.a(macMem.o)
extHandler          0x2               ./../../../../../../Atmel_lib/BitCloud_MEGARF_1_14_0/BitCloud/lib/libHAL_AtmlStk600_Atmega128rfa1_8Mhz_Gcc.a(halTaskManager.o)
nwkMem              0xfc              ./../../../../../../Atmel_lib/BitCloud_MEGARF_1_14_0/BitCloud/lib/libBc_EndDevice_Atmega128rfa1_Atmega128rfa1_Gcc.a(nwk.o)
csZIB               0x2f              EndDevice_Stk600_Atmega128rfa1_8Mhz_Gcc/Obj/csMem.o
csPIB               0x32              EndDevice_Stk600_Atmega128rfa1_8Mhz_Gcc/Obj/csMem.o
halEepromParams     0x6               ./../../../../../../Atmel_lib/BitCloud_MEGARF_1_14_0/BitCloud/lib/libHAL_AtmlStk600_Atmega128rfa1_8Mhz_Gcc.a(eeprom.o)
zdoMem              0x3bd             ./../../../../../../Atmel_lib/BitCloud_MEGARF_1_14_0/BitCloud/lib/libBc_EndDevice_Atmega128rfa1_Atmega128rfa1_Gcc.a(zdo.o)
readTemperatureDataCallback
                    0x2               EndDevice_Stk600_Atmega128rfa1_8Mhz_Gcc/Obj/fakeBSP.o
csSIB               0x3c              EndDevice_Stk600_Atmega128rfa1_8Mhz_Gcc/Obj/csMem.o
__energyLevel       0x1               ./../../../../../../Atmel_lib/BitCloud_MEGARF_1_14_0/BitCloud/lib/libBc_EndDevice_Atmega128rfa1_Atmega128rfa1_Gcc.a(machwdEdHandler.o)
apsMem              0xbc              ./../../../../../../Atmel_lib/BitCloud_MEGARF_1_14_0/BitCloud/lib/libBc_EndDevice_Atmega128rfa1_Atmega128rfa1_Gcc.a(aps.o)
rxSlaveBuffer       0xa               ./../../../../../../Atmel_lib/BitCloud_MEGARF_1_14_0/BitCloud/lib/libHAL_AtmlStk600_Atmega128rfa1_8Mhz_Gcc.a(halSpi.o)
txBuffer            0x21              ./../../../../../../Atmel_lib/BitCloud_MEGARF_1_14_0/BitCloud/lib/libBc_EndDevice_Atmega128rfa1_Atmega128rfa1_Gcc.a(machwdFrameRoutine.o)
__rtimer            0x5               ./../../../../../../Atmel_lib/BitCloud_MEGARF_1_14_0/BitCloud/lib/libHAL_AtmlStk600_Atmega128rfa1_8Mhz_Gcc.a(halMacIsr.o)
pdsMem              0x2e              EndDevice_Stk600_Atmega128rfa1_8Mhz_Gcc/Obj/pdsMem.o
__necessaryPhyTrxState
                    0x1               ./../../../../../../Atmel_lib/BitCloud_MEGARF_1_14_0/BitCloud/lib/libBc_EndDevice_Atmega128rfa1_Atmega128rfa1_Gcc.a(phySetTrxState.o)
__sourceHandler     0x1               ./../../../../../../Atmel_lib/BitCloud_MEGARF_1_14_0/BitCloud/lib/libBc_EndDevice_Atmega128rfa1_Atmega128rfa1_Gcc.a(machwdTrxCtrl.o)
readLightDataCallback
                    0x2               EndDevice_Stk600_Atmega128rfa1_8Mhz_Gcc/Obj/fakeBSP.o
halEepromDone       0x2               ./../../../../../../Atmel_lib/BitCloud_MEGARF_1_14_0/BitCloud/lib/libHAL_AtmlStk600_Atmega128rfa1_8Mhz_Gcc.a(eeprom.o)
csNIB               0x86              EndDevice_Stk600_Atmega128rfa1_8Mhz_Gcc/Obj/csMem.o

Discarded input sections

 .data          0x00000000        0x0 c:/program files (x86)/atmel/avr tools/avr toolchain/bin/../lib/gcc/avr/4.5.1/../../../../avr/lib/avr51/crtm128rfa1.o
 .bss           0x00000000        0x0 c:/program files (x86)/atmel/avr tools/avr toolchain/bin/../lib/gcc/avr/4.5.1/../../../../avr/lib/avr51/crtm128rfa1.o
 .init9         0x00000000        0x8 c:/program files (x86)/atmel/avr tools/avr toolchain/bin/../lib/gcc/avr/4.5.1/../../../../avr/lib/avr51/crtm128rfa1.o
 .text          0x00000000        0x0 EndDevice_Stk600_Atmega128rfa1_8Mhz_Gcc/Obj/WSNSensorManager.o
 .data          0x00000000        0x0 EndDevice_Stk600_Atmega128rfa1_8Mhz_Gcc/Obj/WSNSensorManager.o
 .text          0x00000000        0x0 EndDevice_Stk600_Atmega128rfa1_8Mhz_Gcc/Obj/WSNVisualizer.o
 .data          0x00000000        0x0 EndDevice_Stk600_Atmega128rfa1_8Mhz_Gcc/Obj/WSNVisualizer.o
 .bss           0x00000000        0x0 EndDevice_Stk600_Atmega128rfa1_8Mhz_Gcc/Obj/WSNVisualizer.o
 .text.visualizeSerialTx
                0x00000000        0x8 EndDevice_Stk600_Atmega128rfa1_8Mhz_Gcc/Obj/WSNVisualizer.o
 .text          0x00000000        0x0 EndDevice_Stk600_Atmega128rfa1_8Mhz_Gcc/Obj/WSNEndDevice.o
 .data          0x00000000        0x0 EndDevice_Stk600_Atmega128rfa1_8Mhz_Gcc/Obj/WSNEndDevice.o
 .text          0x00000000        0x0 EndDevice_Stk600_Atmega128rfa1_8Mhz_Gcc/Obj/WSNCoord.o
 .data          0x00000000        0x0 EndDevice_Stk600_Atmega128rfa1_8Mhz_Gcc/Obj/WSNCoord.o
 .bss           0x00000000        0x0 EndDevice_Stk600_Atmega128rfa1_8Mhz_Gcc/Obj/WSNCoord.o
 .text          0x00000000        0x0 EndDevice_Stk600_Atmega128rfa1_8Mhz_Gcc/Obj/WSNMessageSender.o
 .data          0x00000000        0x0 EndDevice_Stk600_Atmega128rfa1_8Mhz_Gcc/Obj/WSNMessageSender.o
 .text          0x00000000        0x0 EndDevice_Stk600_Atmega128rfa1_8Mhz_Gcc/Obj/WSNCommandHandler.o
 .data          0x00000000        0x0 EndDevice_Stk600_Atmega128rfa1_8Mhz_Gcc/Obj/WSNCommandHandler.o
 .text          0x00000000        0x0 EndDevice_Stk600_Atmega128rfa1_8Mhz_Gcc/Obj/WSNRouter.o
 .data          0x00000000        0x0 EndDevice_Stk600_Atmega128rfa1_8Mhz_Gcc/Obj/WSNRouter.o
 .bss           0x00000000        0x0 EndDevice_Stk600_Atmega128rfa1_8Mhz_Gcc/Obj/WSNRouter.o
 .text          0x00000000        0x0 EndDevice_Stk600_Atmega128rfa1_8Mhz_Gcc/Obj/WSNDemoApp.o
 .text.appPcCmdReceived
                0x00000000       0x20 EndDevice_Stk600_Atmega128rfa1_8Mhz_Gcc/Obj/WSNDemoApp.o
 .text          0x00000000        0x0 EndDevice_Stk600_Atmega128rfa1_8Mhz_Gcc/Obj/WSNUARTManager.o
 .data          0x00000000        0x0 EndDevice_Stk600_Atmega128rfa1_8Mhz_Gcc/Obj/WSNUARTManager.o
 .bss           0x00000000        0x0 EndDevice_Stk600_Atmega128rfa1_8Mhz_Gcc/Obj/WSNUARTManager.o
 .text          0x00000000        0x0 EndDevice_Stk600_Atmega128rfa1_8Mhz_Gcc/Obj/pdsMem.o
 .data          0x00000000        0x0 EndDevice_Stk600_Atmega128rfa1_8Mhz_Gcc/Obj/pdsMem.o
 .bss           0x00000000        0x0 EndDevice_Stk600_Atmega128rfa1_8Mhz_Gcc/Obj/pdsMem.o
 .text          0x00000000        0x0 EndDevice_Stk600_Atmega128rfa1_8Mhz_Gcc/Obj/pdsWriteData.o
 .data          0x00000000        0x0 EndDevice_Stk600_Atmega128rfa1_8Mhz_Gcc/Obj/pdsWriteData.o
 .text.pdsUpdate
                0x00000000       0x98 EndDevice_Stk600_Atmega128rfa1_8Mhz_Gcc/Obj/pdsWriteData.o
 .text.pdsCorruptFiles
                0x00000000       0xa4 EndDevice_Stk600_Atmega128rfa1_8Mhz_Gcc/Obj/pdsWriteData.o
 .text          0x00000000        0x0 EndDevice_Stk600_Atmega128rfa1_8Mhz_Gcc/Obj/pdsDataServer.o
 .data          0x00000000        0x0 EndDevice_Stk600_Atmega128rfa1_8Mhz_Gcc/Obj/pdsDataServer.o
 .bss           0x00000000        0x0 EndDevice_Stk600_Atmega128rfa1_8Mhz_Gcc/Obj/pdsDataServer.o
 .text.PDS_Restore
                0x00000000       0x80 EndDevice_Stk600_Atmega128rfa1_8Mhz_Gcc/Obj/pdsDataServer.o
 .text.PDS_BlockingStore
                0x00000000       0x1a EndDevice_Stk600_Atmega128rfa1_8Mhz_Gcc/Obj/pdsDataServer.o
 .text.PDS_IsAbleToRestore
                0x00000000       0x44 EndDevice_Stk600_Atmega128rfa1_8Mhz_Gcc/Obj/pdsDataServer.o
 .text.PDS_IsAbleToStore
                0x00000000       0x2e EndDevice_Stk600_Atmega128rfa1_8Mhz_Gcc/Obj/pdsDataServer.o
 .text.PDS_ClearRestoredMemory
                0x00000000       0x3a EndDevice_Stk600_Atmega128rfa1_8Mhz_Gcc/Obj/pdsDataServer.o
 .text.PDS_ResetStorage
                0x00000000       0x54 EndDevice_Stk600_Atmega128rfa1_8Mhz_Gcc/Obj/pdsDataServer.o
 .text.PDS_FlushData
                0x00000000        0x6 EndDevice_Stk600_Atmega128rfa1_8Mhz_Gcc/Obj/pdsDataServer.o
 .text.PDS_ReadUserData
                0x00000000       0x6e EndDevice_Stk600_Atmega128rfa1_8Mhz_Gcc/Obj/pdsDataServer.o
 .text.PDS_WriteUserData
                0x00000000       0x6e EndDevice_Stk600_Atmega128rfa1_8Mhz_Gcc/Obj/pdsDataServer.o
 .text          0x00000000        0x0 EndDevice_Stk600_Atmega128rfa1_8Mhz_Gcc/Obj/pdsInit.o
 .data          0x00000000        0x0 EndDevice_Stk600_Atmega128rfa1_8Mhz_Gcc/Obj/pdsInit.o
 .bss           0x00000000        0x0 EndDevice_Stk600_Atmega128rfa1_8Mhz_Gcc/Obj/pdsInit.o
 .text          0x00000000        0x0 EndDevice_Stk600_Atmega128rfa1_8Mhz_Gcc/Obj/pdsTimer.o
 .data          0x00000000        0x0 EndDevice_Stk600_Atmega128rfa1_8Mhz_Gcc/Obj/pdsTimer.o
 .bss           0x00000000        0x0 EndDevice_Stk600_Atmega128rfa1_8Mhz_Gcc/Obj/pdsTimer.o
 .text.PDS_StoreByTimer
                0x00000000       0x5c EndDevice_Stk600_Atmega128rfa1_8Mhz_Gcc/Obj/pdsTimer.o
 .text.PDS_Stop
                0x00000000       0x1e EndDevice_Stk600_Atmega128rfa1_8Mhz_Gcc/Obj/pdsTimer.o
 .text.PDS_Run  0x00000000       0x1e EndDevice_Stk600_Atmega128rfa1_8Mhz_Gcc/Obj/pdsTimer.o
 .text          0x00000000        0x0 EndDevice_Stk600_Atmega128rfa1_8Mhz_Gcc/Obj/pdsEvents.o
 .data          0x00000000        0x8 EndDevice_Stk600_Atmega128rfa1_8Mhz_Gcc/Obj/pdsEvents.o
 .bss           0x00000000        0x0 EndDevice_Stk600_Atmega128rfa1_8Mhz_Gcc/Obj/pdsEvents.o
 .text.pdsObserver
                0x00000000       0x58 EndDevice_Stk600_Atmega128rfa1_8Mhz_Gcc/Obj/pdsEvents.o
 .text.PDS_StoreByEvents
                0x00000000       0xfc EndDevice_Stk600_Atmega128rfa1_8Mhz_Gcc/Obj/pdsEvents.o
 .progmem.data  0x00000000       0x39 EndDevice_Stk600_Atmega128rfa1_8Mhz_Gcc/Obj/pdsEvents.o
 .text          0x00000000        0x0 EndDevice_Stk600_Atmega128rfa1_8Mhz_Gcc/Obj/pdsMemAccess.o
 .data          0x00000000        0x0 EndDevice_Stk600_Atmega128rfa1_8Mhz_Gcc/Obj/pdsMemAccess.o
 .bss           0x00000000        0x0 EndDevice_Stk600_Atmega128rfa1_8Mhz_Gcc/Obj/pdsMemAccess.o
 .text.pdsGetDirectoryDescrRec
                0x00000000       0x66 EndDevice_Stk600_Atmega128rfa1_8Mhz_Gcc/Obj/pdsMemAccess.o
 .text          0x00000000        0x0 EndDevice_Stk600_Atmega128rfa1_8Mhz_Gcc/Obj/pdsCrcService.o
 .data          0x00000000        0x0 EndDevice_Stk600_Atmega128rfa1_8Mhz_Gcc/Obj/pdsCrcService.o
 .bss           0x00000000        0x0 EndDevice_Stk600_Atmega128rfa1_8Mhz_Gcc/Obj/pdsCrcService.o
 .text          0x00000000        0x0 EndDevice_Stk600_Atmega128rfa1_8Mhz_Gcc/Obj/fakeBSP.o
 .data          0x00000000        0x0 EndDevice_Stk600_Atmega128rfa1_8Mhz_Gcc/Obj/fakeBSP.o
 .bss           0x00000000        0x0 EndDevice_Stk600_Atmega128rfa1_8Mhz_Gcc/Obj/fakeBSP.o
 .text.BSP_ReadSliders
                0x00000000        0x4 EndDevice_Stk600_Atmega128rfa1_8Mhz_Gcc/Obj/fakeBSP.o
 .text.BSP_OpenJoystick
                0x00000000        0x4 EndDevice_Stk600_Atmega128rfa1_8Mhz_Gcc/Obj/fakeBSP.o
 .text.BSP_CloseJoystick
                0x00000000        0x4 EndDevice_Stk600_Atmega128rfa1_8Mhz_Gcc/Obj/fakeBSP.o
 .text.BSP_ReadJoystickState
                0x00000000        0x4 EndDevice_Stk600_Atmega128rfa1_8Mhz_Gcc/Obj/fakeBSP.o
 .text          0x00000000        0x0 EndDevice_Stk600_Atmega128rfa1_8Mhz_Gcc/Obj/buttons.o
 .data          0x00000000        0x0 EndDevice_Stk600_Atmega128rfa1_8Mhz_Gcc/Obj/buttons.o
 .text.GPIO_D0_read
                0x00000000        0x6 EndDevice_Stk600_Atmega128rfa1_8Mhz_Gcc/Obj/buttons.o
 .text.GPIO_D0_make_pullup
                0x00000000        0x4 EndDevice_Stk600_Atmega128rfa1_8Mhz_Gcc/Obj/buttons.o
 .text.GPIO_D1_read
                0x00000000        0x8 EndDevice_Stk600_Atmega128rfa1_8Mhz_Gcc/Obj/buttons.o
 .text.GPIO_D1_make_pullup
                0x00000000        0x4 EndDevice_Stk600_Atmega128rfa1_8Mhz_Gcc/Obj/buttons.o
 .text.GPIO_D5_read
                0x00000000        0x8 EndDevice_Stk600_Atmega128rfa1_8Mhz_Gcc/Obj/buttons.o
 .text.GPIO_D5_make_pullup
                0x00000000        0x4 EndDevice_Stk600_Atmega128rfa1_8Mhz_Gcc/Obj/buttons.o
 .text.bspAddButton
                0x00000000       0x48 EndDevice_Stk600_Atmega128rfa1_8Mhz_Gcc/Obj/buttons.o
 .text.bspKeysInterruptHandler
                0x00000000       0x9a EndDevice_Stk600_Atmega128rfa1_8Mhz_Gcc/Obj/buttons.o
 .text.BSP_OpenButtons
                0x00000000       0xec EndDevice_Stk600_Atmega128rfa1_8Mhz_Gcc/Obj/buttons.o
 .text.BSP_CloseButtons
                0x00000000       0x42 EndDevice_Stk600_Atmega128rfa1_8Mhz_Gcc/Obj/buttons.o
 .text.BSP_ReadButtonsState
                0x00000000       0x36 EndDevice_Stk600_Atmega128rfa1_8Mhz_Gcc/Obj/buttons.o
 .text          0x00000000        0x0 EndDevice_Stk600_Atmega128rfa1_8Mhz_Gcc/Obj/leds.o
 .data          0x00000000        0x0 EndDevice_Stk600_Atmega128rfa1_8Mhz_Gcc/Obj/leds.o
 .bss           0x00000000        0x0 EndDevice_Stk600_Atmega128rfa1_8Mhz_Gcc/Obj/leds.o
 .text          0x00000000        0x0 EndDevice_Stk600_Atmega128rfa1_8Mhz_Gcc/Obj/bspTaskManager.o
 .data          0x00000000        0x0 EndDevice_Stk600_Atmega128rfa1_8Mhz_Gcc/Obj/bspTaskManager.o
 .text          0x00000000        0x0 EndDevice_Stk600_Atmega128rfa1_8Mhz_Gcc/Obj/csPersistentMem.o
 .data          0x00000000        0x0 EndDevice_Stk600_Atmega128rfa1_8Mhz_Gcc/Obj/csPersistentMem.o
 .bss           0x00000000        0x0 EndDevice_Stk600_Atmega128rfa1_8Mhz_Gcc/Obj/csPersistentMem.o
 .text          0x00000000        0x0 EndDevice_Stk600_Atmega128rfa1_8Mhz_Gcc/Obj/csMem.o
 .data          0x00000000        0x0 EndDevice_Stk600_Atmega128rfa1_8Mhz_Gcc/Obj/csMem.o
 .bss           0x00000000        0x0 EndDevice_Stk600_Atmega128rfa1_8Mhz_Gcc/Obj/csMem.o
 .text          0x00000000        0x0 EndDevice_Stk600_Atmega128rfa1_8Mhz_Gcc/Obj/configServer.o
 .data          0x00000000        0x0 EndDevice_Stk600_Atmega128rfa1_8Mhz_Gcc/Obj/configServer.o
 .bss           0x00000000        0x0 EndDevice_Stk600_Atmega128rfa1_8Mhz_Gcc/Obj/configServer.o
 .text.CS_PdsDefaultValue
                0x00000000       0xf4 EndDevice_Stk600_Atmega128rfa1_8Mhz_Gcc/Obj/configServer.o
 .text          0x00000000        0x0 ./../../../../../../Atmel_lib/BitCloud_MEGARF_1_14_0/BitCloud/lib/libHAL_AtmlStk600_Atmega128rfa1_8Mhz_Gcc.a(halDelay.o)
 .data          0x00000000        0x0 ./../../../../../../Atmel_lib/BitCloud_MEGARF_1_14_0/BitCloud/lib/libHAL_AtmlStk600_Atmega128rfa1_8Mhz_Gcc.a(halDelay.o)
 .bss           0x00000000        0x0 ./../../../../../../Atmel_lib/BitCloud_MEGARF_1_14_0/BitCloud/lib/libHAL_AtmlStk600_Atmega128rfa1_8Mhz_Gcc.a(halDelay.o)
 .data          0x00000000        0x0 ./../../../../../../Atmel_lib/BitCloud_MEGARF_1_14_0/BitCloud/lib/libHAL_AtmlStk600_Atmega128rfa1_8Mhz_Gcc.a(halW1.o)
 .bss           0x00000000        0x0 ./../../../../../../Atmel_lib/BitCloud_MEGARF_1_14_0/BitCloud/lib/libHAL_AtmlStk600_Atmega128rfa1_8Mhz_Gcc.a(halW1.o)
 .text          0x00000000        0x0 ./../../../../../../Atmel_lib/BitCloud_MEGARF_1_14_0/BitCloud/lib/libHAL_AtmlStk600_Atmega128rfa1_8Mhz_Gcc.a(appTimer.o)
 .data          0x00000000        0x0 ./../../../../../../Atmel_lib/BitCloud_MEGARF_1_14_0/BitCloud/lib/libHAL_AtmlStk600_Atmega128rfa1_8Mhz_Gcc.a(appTimer.o)
 .text          0x00000000        0x0 ./../../../../../../Atmel_lib/BitCloud_MEGARF_1_14_0/BitCloud/lib/libHAL_AtmlStk600_Atmega128rfa1_8Mhz_Gcc.a(irq.o)
 .data          0x00000000        0x0 ./../../../../../../Atmel_lib/BitCloud_MEGARF_1_14_0/BitCloud/lib/libHAL_AtmlStk600_Atmega128rfa1_8Mhz_Gcc.a(irq.o)
 .bss           0x00000000        0x0 ./../../../../../../Atmel_lib/BitCloud_MEGARF_1_14_0/BitCloud/lib/libHAL_AtmlStk600_Atmega128rfa1_8Mhz_Gcc.a(irq.o)
 .text.HAL_RegisterIrq
                0x00000000       0x5a ./../../../../../../Atmel_lib/BitCloud_MEGARF_1_14_0/BitCloud/lib/libHAL_AtmlStk600_Atmega128rfa1_8Mhz_Gcc.a(irq.o)
 .text.HAL_EnableIrq
                0x00000000       0x3c ./../../../../../../Atmel_lib/BitCloud_MEGARF_1_14_0/BitCloud/lib/libHAL_AtmlStk600_Atmega128rfa1_8Mhz_Gcc.a(irq.o)
 .text.HAL_DisableIrq
                0x00000000       0x3e ./../../../../../../Atmel_lib/BitCloud_MEGARF_1_14_0/BitCloud/lib/libHAL_AtmlStk600_Atmega128rfa1_8Mhz_Gcc.a(irq.o)
 .text.HAL_UnregisterIrq
                0x00000000       0x50 ./../../../../../../Atmel_lib/BitCloud_MEGARF_1_14_0/BitCloud/lib/libHAL_AtmlStk600_Atmega128rfa1_8Mhz_Gcc.a(irq.o)
 .text          0x00000000        0x0 ./../../../../../../Atmel_lib/BitCloud_MEGARF_1_14_0/BitCloud/lib/libHAL_AtmlStk600_Atmega128rfa1_8Mhz_Gcc.a(eeprom.o)
 .data          0x00000000        0x0 ./../../../../../../Atmel_lib/BitCloud_MEGARF_1_14_0/BitCloud/lib/libHAL_AtmlStk600_Atmega128rfa1_8Mhz_Gcc.a(eeprom.o)
 .text          0x00000000        0x0 ./../../../../../../Atmel_lib/BitCloud_MEGARF_1_14_0/BitCloud/lib/libHAL_AtmlStk600_Atmega128rfa1_8Mhz_Gcc.a(timer.o)
 .data          0x00000000        0x0 ./../../../../../../Atmel_lib/BitCloud_MEGARF_1_14_0/BitCloud/lib/libHAL_AtmlStk600_Atmega128rfa1_8Mhz_Gcc.a(timer.o)
 .bss           0x00000000        0x0 ./../../../../../../Atmel_lib/BitCloud_MEGARF_1_14_0/BitCloud/lib/libHAL_AtmlStk600_Atmega128rfa1_8Mhz_Gcc.a(timer.o)
 .text          0x00000000        0x0 ./../../../../../../Atmel_lib/BitCloud_MEGARF_1_14_0/BitCloud/lib/libHAL_AtmlStk600_Atmega128rfa1_8Mhz_Gcc.a(halSleepTimerClock.o)
 .data          0x00000000        0x0 ./../../../../../../Atmel_lib/BitCloud_MEGARF_1_14_0/BitCloud/lib/libHAL_AtmlStk600_Atmega128rfa1_8Mhz_Gcc.a(halSleepTimerClock.o)
 .text          0x00000000        0x0 ./../../../../../../Atmel_lib/BitCloud_MEGARF_1_14_0/BitCloud/lib/libHAL_AtmlStk600_Atmega128rfa1_8Mhz_Gcc.a(halAppClock.o)
 .data          0x00000000        0x0 ./../../../../../../Atmel_lib/BitCloud_MEGARF_1_14_0/BitCloud/lib/libHAL_AtmlStk600_Atmega128rfa1_8Mhz_Gcc.a(halAppClock.o)
 .text.halGetSystemTimeUs
                0x00000000       0x58 ./../../../../../../Atmel_lib/BitCloud_MEGARF_1_14_0/BitCloud/lib/libHAL_AtmlStk600_Atmega128rfa1_8Mhz_Gcc.a(halAppClock.o)
 .text          0x00000000        0x0 ./../../../../../../Atmel_lib/BitCloud_MEGARF_1_14_0/BitCloud/lib/libHAL_AtmlStk600_Atmega128rfa1_8Mhz_Gcc.a(halIrq.o)
 .data          0x00000000        0x0 ./../../../../../../Atmel_lib/BitCloud_MEGARF_1_14_0/BitCloud/lib/libHAL_AtmlStk600_Atmega128rfa1_8Mhz_Gcc.a(halIrq.o)
 .text.halSetIrqConfig
                0x00000000       0xd0 ./../../../../../../Atmel_lib/BitCloud_MEGARF_1_14_0/BitCloud/lib/libHAL_AtmlStk600_Atmega128rfa1_8Mhz_Gcc.a(halIrq.o)
 .text.halClrIrqConfig
                0x00000000       0x7e ./../../../../../../Atmel_lib/BitCloud_MEGARF_1_14_0/BitCloud/lib/libHAL_AtmlStk600_Atmega128rfa1_8Mhz_Gcc.a(halIrq.o)
 .text          0x00000000        0x0 ./../../../../../../Atmel_lib/BitCloud_MEGARF_1_14_0/BitCloud/lib/libHAL_AtmlStk600_Atmega128rfa1_8Mhz_Gcc.a(halEeprom.o)
 .data          0x00000000        0x0 ./../../../../../../Atmel_lib/BitCloud_MEGARF_1_14_0/BitCloud/lib/libHAL_AtmlStk600_Atmega128rfa1_8Mhz_Gcc.a(halEeprom.o)
 .bss           0x00000000        0x0 ./../../../../../../Atmel_lib/BitCloud_MEGARF_1_14_0/BitCloud/lib/libHAL_AtmlStk600_Atmega128rfa1_8Mhz_Gcc.a(halEeprom.o)
 .text          0x00000000        0x0 ./../../../../../../Atmel_lib/BitCloud_MEGARF_1_14_0/BitCloud/lib/libHAL_AtmlStk600_Atmega128rfa1_8Mhz_Gcc.a(halSleep.o)
 .data          0x00000000        0x0 ./../../../../../../Atmel_lib/BitCloud_MEGARF_1_14_0/BitCloud/lib/libHAL_AtmlStk600_Atmega128rfa1_8Mhz_Gcc.a(halSleep.o)
 .text.HAL_IdleMode
                0x00000000        0xa ./../../../../../../Atmel_lib/BitCloud_MEGARF_1_14_0/BitCloud/lib/libHAL_AtmlStk600_Atmega128rfa1_8Mhz_Gcc.a(halSleep.o)
 .text          0x00000000        0x0 ./../../../../../../Atmel_lib/BitCloud_MEGARF_1_14_0/BitCloud/lib/libHAL_AtmlStk600_Atmega128rfa1_8Mhz_Gcc.a(calibration.o)
 .data          0x00000000        0x0 ./../../../../../../Atmel_lib/BitCloud_MEGARF_1_14_0/BitCloud/lib/libHAL_AtmlStk600_Atmega128rfa1_8Mhz_Gcc.a(calibration.o)
 .bss           0x00000000        0x0 ./../../../../../../Atmel_lib/BitCloud_MEGARF_1_14_0/BitCloud/lib/libHAL_AtmlStk600_Atmega128rfa1_8Mhz_Gcc.a(calibration.o)
 .data          0x00000000        0x0 ./../../../../../../Atmel_lib/BitCloud_MEGARF_1_14_0/BitCloud/lib/libHAL_AtmlStk600_Atmega128rfa1_8Mhz_Gcc.a(halCalibration.o)
 .bss           0x00000000        0x0 ./../../../../../../Atmel_lib/BitCloud_MEGARF_1_14_0/BitCloud/lib/libHAL_AtmlStk600_Atmega128rfa1_8Mhz_Gcc.a(halCalibration.o)
 .text          0x00000000        0x0 ./../../../../../../Atmel_lib/BitCloud_MEGARF_1_14_0/BitCloud/lib/libHAL_AtmlStk600_Atmega128rfa1_8Mhz_Gcc.a(halTaskManager.o)
 .data          0x00000000        0x0 ./../../../../../../Atmel_lib/BitCloud_MEGARF_1_14_0/BitCloud/lib/libHAL_AtmlStk600_Atmega128rfa1_8Mhz_Gcc.a(halTaskManager.o)
 .text          0x00000000        0x0 ./../../../../../../Atmel_lib/BitCloud_MEGARF_1_14_0/BitCloud/lib/libHAL_AtmlStk600_Atmega128rfa1_8Mhz_Gcc.a(usart.o)
 .data          0x00000000        0x9 ./../../../../../../Atmel_lib/BitCloud_MEGARF_1_14_0/BitCloud/lib/libHAL_AtmlStk600_Atmega128rfa1_8Mhz_Gcc.a(usart.o)
 .text.halSetUsartClockPinDirection
                0x00000000       0x36 ./../../../../../../Atmel_lib/BitCloud_MEGARF_1_14_0/BitCloud/lib/libHAL_AtmlStk600_Atmega128rfa1_8Mhz_Gcc.a(usart.o)
 .text.HAL_EnableDtrWakeUp
                0x00000000       0x10 ./../../../../../../Atmel_lib/BitCloud_MEGARF_1_14_0/BitCloud/lib/libHAL_AtmlStk600_Atmega128rfa1_8Mhz_Gcc.a(usart.o)
 .text.HAL_DisableDtrWakeUp
                0x00000000        0x6 ./../../../../../../Atmel_lib/BitCloud_MEGARF_1_14_0/BitCloud/lib/libHAL_AtmlStk600_Atmega128rfa1_8Mhz_Gcc.a(usart.o)
 .text.halIsUsartChannelCorrect
                0x00000000       0x16 ./../../../../../../Atmel_lib/BitCloud_MEGARF_1_14_0/BitCloud/lib/libHAL_AtmlStk600_Atmega128rfa1_8Mhz_Gcc.a(usart.o)
 .text.HAL_IsTxEmpty
                0x00000000       0x6c ./../../../../../../Atmel_lib/BitCloud_MEGARF_1_14_0/BitCloud/lib/libHAL_AtmlStk600_Atmega128rfa1_8Mhz_Gcc.a(usart.o)
 .text.HAL_ReadUsart
                0x00000000       0xc6 ./../../../../../../Atmel_lib/BitCloud_MEGARF_1_14_0/BitCloud/lib/libHAL_AtmlStk600_Atmega128rfa1_8Mhz_Gcc.a(usart.o)
 .text.HAL_WriteUsart
                0x00000000       0xfc ./../../../../../../Atmel_lib/BitCloud_MEGARF_1_14_0/BitCloud/lib/libHAL_AtmlStk600_Atmega128rfa1_8Mhz_Gcc.a(usart.o)
 .text.HAL_CloseUsart
                0x00000000       0x7e ./../../../../../../Atmel_lib/BitCloud_MEGARF_1_14_0/BitCloud/lib/libHAL_AtmlStk600_Atmega128rfa1_8Mhz_Gcc.a(usart.o)
 .text.HAL_OpenUsart
                0x00000000       0x92 ./../../../../../../Atmel_lib/BitCloud_MEGARF_1_14_0/BitCloud/lib/libHAL_AtmlStk600_Atmega128rfa1_8Mhz_Gcc.a(usart.o)
 .text          0x00000000        0x0 ./../../../../../../Atmel_lib/BitCloud_MEGARF_1_14_0/BitCloud/lib/libHAL_AtmlStk600_Atmega128rfa1_8Mhz_Gcc.a(i2cPacket.o)
 .data          0x00000000        0x0 ./../../../../../../Atmel_lib/BitCloud_MEGARF_1_14_0/BitCloud/lib/libHAL_AtmlStk600_Atmega128rfa1_8Mhz_Gcc.a(i2cPacket.o)
 .text.HAL_OpenI2cPacket
                0x00000000       0x40 ./../../../../../../Atmel_lib/BitCloud_MEGARF_1_14_0/BitCloud/lib/libHAL_AtmlStk600_Atmega128rfa1_8Mhz_Gcc.a(i2cPacket.o)
 .text.HAL_CloseI2cPacket
                0x00000000       0x32 ./../../../../../../Atmel_lib/BitCloud_MEGARF_1_14_0/BitCloud/lib/libHAL_AtmlStk600_Atmega128rfa1_8Mhz_Gcc.a(i2cPacket.o)
 .text.HAL_WriteI2cPacket
                0x00000000       0x52 ./../../../../../../Atmel_lib/BitCloud_MEGARF_1_14_0/BitCloud/lib/libHAL_AtmlStk600_Atmega128rfa1_8Mhz_Gcc.a(i2cPacket.o)
 .text.HAL_ReadI2cPacket
                0x00000000       0x52 ./../../../../../../Atmel_lib/BitCloud_MEGARF_1_14_0/BitCloud/lib/libHAL_AtmlStk600_Atmega128rfa1_8Mhz_Gcc.a(i2cPacket.o)
 .text          0x00000000        0x0 ./../../../../../../Atmel_lib/BitCloud_MEGARF_1_14_0/BitCloud/lib/libHAL_AtmlStk600_Atmega128rfa1_8Mhz_Gcc.a(adc.o)
 .data          0x00000000        0x0 ./../../../../../../Atmel_lib/BitCloud_MEGARF_1_14_0/BitCloud/lib/libHAL_AtmlStk600_Atmega128rfa1_8Mhz_Gcc.a(adc.o)
 .text.HAL_OpenAdc
                0x00000000       0x54 ./../../../../../../Atmel_lib/BitCloud_MEGARF_1_14_0/BitCloud/lib/libHAL_AtmlStk600_Atmega128rfa1_8Mhz_Gcc.a(adc.o)
 .text.HAL_ReadAdc
                0x00000000       0x2e ./../../../../../../Atmel_lib/BitCloud_MEGARF_1_14_0/BitCloud/lib/libHAL_AtmlStk600_Atmega128rfa1_8Mhz_Gcc.a(adc.o)
 .text.HAL_CloseAdc
                0x00000000       0x28 ./../../../../../../Atmel_lib/BitCloud_MEGARF_1_14_0/BitCloud/lib/libHAL_AtmlStk600_Atmega128rfa1_8Mhz_Gcc.a(adc.o)
 .text          0x00000000        0x0 ./../../../../../../Atmel_lib/BitCloud_MEGARF_1_14_0/BitCloud/lib/libHAL_AtmlStk600_Atmega128rfa1_8Mhz_Gcc.a(spi.o)
 .data          0x00000000        0x0 ./../../../../../../Atmel_lib/BitCloud_MEGARF_1_14_0/BitCloud/lib/libHAL_AtmlStk600_Atmega128rfa1_8Mhz_Gcc.a(spi.o)
 .bss           0x00000000        0x0 ./../../../../../../Atmel_lib/BitCloud_MEGARF_1_14_0/BitCloud/lib/libHAL_AtmlStk600_Atmega128rfa1_8Mhz_Gcc.a(spi.o)
 .text.isClosedPd
                0x00000000        0xc ./../../../../../../Atmel_lib/BitCloud_MEGARF_1_14_0/BitCloud/lib/libHAL_AtmlStk600_Atmega128rfa1_8Mhz_Gcc.a(spi.o)
 .text.isOpenedPd
                0x00000000        0xc ./../../../../../../Atmel_lib/BitCloud_MEGARF_1_14_0/BitCloud/lib/libHAL_AtmlStk600_Atmega128rfa1_8Mhz_Gcc.a(spi.o)
 .text.halCheckSpiDescriptor
                0x00000000       0x2a ./../../../../../../Atmel_lib/BitCloud_MEGARF_1_14_0/BitCloud/lib/libHAL_AtmlStk600_Atmega128rfa1_8Mhz_Gcc.a(spi.o)
 .text.halCheckUsartDescriptor
                0x00000000       0x5a ./../../../../../../Atmel_lib/BitCloud_MEGARF_1_14_0/BitCloud/lib/libHAL_AtmlStk600_Atmega128rfa1_8Mhz_Gcc.a(spi.o)
 .text.HAL_OpenSpi
                0x00000000       0x8c ./../../../../../../Atmel_lib/BitCloud_MEGARF_1_14_0/BitCloud/lib/libHAL_AtmlStk600_Atmega128rfa1_8Mhz_Gcc.a(spi.o)
 .text.HAL_CloseSpi
                0x00000000       0x64 ./../../../../../../Atmel_lib/BitCloud_MEGARF_1_14_0/BitCloud/lib/libHAL_AtmlStk600_Atmega128rfa1_8Mhz_Gcc.a(spi.o)
 .text.HAL_WriteSpi
                0x00000000      0x120 ./../../../../../../Atmel_lib/BitCloud_MEGARF_1_14_0/BitCloud/lib/libHAL_AtmlStk600_Atmega128rfa1_8Mhz_Gcc.a(spi.o)
 .text.HAL_ReadSpi
                0x00000000      0x146 ./../../../../../../Atmel_lib/BitCloud_MEGARF_1_14_0/BitCloud/lib/libHAL_AtmlStk600_Atmega128rfa1_8Mhz_Gcc.a(spi.o)
 .text          0x00000000        0x0 ./../../../../../../Atmel_lib/BitCloud_MEGARF_1_14_0/BitCloud/lib/libHAL_AtmlStk600_Atmega128rfa1_8Mhz_Gcc.a(sleep.o)
 .data          0x00000000        0x0 ./../../../../../../Atmel_lib/BitCloud_MEGARF_1_14_0/BitCloud/lib/libHAL_AtmlStk600_Atmega128rfa1_8Mhz_Gcc.a(sleep.o)
 .text          0x00000000        0x0 ./../../../../../../Atmel_lib/BitCloud_MEGARF_1_14_0/BitCloud/lib/libHAL_AtmlStk600_Atmega128rfa1_8Mhz_Gcc.a(halSecurityModule.o)
 .data          0x00000000        0x0 ./../../../../../../Atmel_lib/BitCloud_MEGARF_1_14_0/BitCloud/lib/libHAL_AtmlStk600_Atmega128rfa1_8Mhz_Gcc.a(halSecurityModule.o)
 .text.HAL_SmEncryptReq
                0x00000000       0x2e ./../../../../../../Atmel_lib/BitCloud_MEGARF_1_14_0/BitCloud/lib/libHAL_AtmlStk600_Atmega128rfa1_8Mhz_Gcc.a(halSecurityModule.o)
 .text          0x00000000        0x0 ./../../../../../../Atmel_lib/BitCloud_MEGARF_1_14_0/BitCloud/lib/libHAL_AtmlStk600_Atmega128rfa1_8Mhz_Gcc.a(halClkCtrl.o)
 .data          0x00000000        0x0 ./../../../../../../Atmel_lib/BitCloud_MEGARF_1_14_0/BitCloud/lib/libHAL_AtmlStk600_Atmega128rfa1_8Mhz_Gcc.a(halClkCtrl.o)
 .text.HAL_ReadFreq
                0x00000000        0xa ./../../../../../../Atmel_lib/BitCloud_MEGARF_1_14_0/BitCloud/lib/libHAL_AtmlStk600_Atmega128rfa1_8Mhz_Gcc.a(halClkCtrl.o)
 .text          0x00000000        0x0 ./../../../../../../Atmel_lib/BitCloud_MEGARF_1_14_0/BitCloud/lib/libHAL_AtmlStk600_Atmega128rfa1_8Mhz_Gcc.a(halUsart.o)
 .data          0x00000000        0x0 ./../../../../../../Atmel_lib/BitCloud_MEGARF_1_14_0/BitCloud/lib/libHAL_AtmlStk600_Atmega128rfa1_8Mhz_Gcc.a(halUsart.o)
 .bss           0x00000000        0x0 ./../../../../../../Atmel_lib/BitCloud_MEGARF_1_14_0/BitCloud/lib/libHAL_AtmlStk600_Atmega128rfa1_8Mhz_Gcc.a(halUsart.o)
 .text.halSetUsartConfig
                0x00000000       0xb2 ./../../../../../../Atmel_lib/BitCloud_MEGARF_1_14_0/BitCloud/lib/libHAL_AtmlStk600_Atmega128rfa1_8Mhz_Gcc.a(halUsart.o)
 .text          0x00000000        0x0 ./../../../../../../Atmel_lib/BitCloud_MEGARF_1_14_0/BitCloud/lib/libHAL_AtmlStk600_Atmega128rfa1_8Mhz_Gcc.a(halTwi.o)
 .data          0x00000000        0x0 ./../../../../../../Atmel_lib/BitCloud_MEGARF_1_14_0/BitCloud/lib/libHAL_AtmlStk600_Atmega128rfa1_8Mhz_Gcc.a(halTwi.o)
 .bss           0x00000000        0x0 ./../../../../../../Atmel_lib/BitCloud_MEGARF_1_14_0/BitCloud/lib/libHAL_AtmlStk600_Atmega128rfa1_8Mhz_Gcc.a(halTwi.o)
 .text.halInitI2c
                0x00000000        0xe ./../../../../../../Atmel_lib/BitCloud_MEGARF_1_14_0/BitCloud/lib/libHAL_AtmlStk600_Atmega128rfa1_8Mhz_Gcc.a(halTwi.o)
 .text          0x00000000        0x0 ./../../../../../../Atmel_lib/BitCloud_MEGARF_1_14_0/BitCloud/lib/libHAL_AtmlStk600_Atmega128rfa1_8Mhz_Gcc.a(halAdc.o)
 .data          0x00000000        0x0 ./../../../../../../Atmel_lib/BitCloud_MEGARF_1_14_0/BitCloud/lib/libHAL_AtmlStk600_Atmega128rfa1_8Mhz_Gcc.a(halAdc.o)
 .bss           0x00000000        0x0 ./../../../../../../Atmel_lib/BitCloud_MEGARF_1_14_0/BitCloud/lib/libHAL_AtmlStk600_Atmega128rfa1_8Mhz_Gcc.a(halAdc.o)
 .text.halOpenAdc
                0x00000000       0x56 ./../../../../../../Atmel_lib/BitCloud_MEGARF_1_14_0/BitCloud/lib/libHAL_AtmlStk600_Atmega128rfa1_8Mhz_Gcc.a(halAdc.o)
 .text.halStartAdc
                0x00000000       0xa6 ./../../../../../../Atmel_lib/BitCloud_MEGARF_1_14_0/BitCloud/lib/libHAL_AtmlStk600_Atmega128rfa1_8Mhz_Gcc.a(halAdc.o)
 .text.halCloseAdc
                0x00000000        0xe ./../../../../../../Atmel_lib/BitCloud_MEGARF_1_14_0/BitCloud/lib/libHAL_AtmlStk600_Atmega128rfa1_8Mhz_Gcc.a(halAdc.o)
 .progmem.data  0x00000000        0x5 ./../../../../../../Atmel_lib/BitCloud_MEGARF_1_14_0/BitCloud/lib/libHAL_AtmlStk600_Atmega128rfa1_8Mhz_Gcc.a(halAdc.o)
 .text          0x00000000        0x0 ./../../../../../../Atmel_lib/BitCloud_MEGARF_1_14_0/BitCloud/lib/libHAL_AtmlStk600_Atmega128rfa1_8Mhz_Gcc.a(halSpi.o)
 .data          0x00000000        0x0 ./../../../../../../Atmel_lib/BitCloud_MEGARF_1_14_0/BitCloud/lib/libHAL_AtmlStk600_Atmega128rfa1_8Mhz_Gcc.a(halSpi.o)
 .text.halSetUsartSpiConfig
                0x00000000       0x98 ./../../../../../../Atmel_lib/BitCloud_MEGARF_1_14_0/BitCloud/lib/libHAL_AtmlStk600_Atmega128rfa1_8Mhz_Gcc.a(halSpi.o)
 .text.halClearUsartSpi
                0x00000000       0x16 ./../../../../../../Atmel_lib/BitCloud_MEGARF_1_14_0/BitCloud/lib/libHAL_AtmlStk600_Atmega128rfa1_8Mhz_Gcc.a(halSpi.o)
 .text.halSetSlaveSpiConfig
                0x00000000       0x58 ./../../../../../../Atmel_lib/BitCloud_MEGARF_1_14_0/BitCloud/lib/libHAL_AtmlStk600_Atmega128rfa1_8Mhz_Gcc.a(halSpi.o)
 .text.halSyncUsartSpiWriteData
                0x00000000       0x3c ./../../../../../../Atmel_lib/BitCloud_MEGARF_1_14_0/BitCloud/lib/libHAL_AtmlStk600_Atmega128rfa1_8Mhz_Gcc.a(halSpi.o)
 .text.halSyncUsartSpiReadData
                0x00000000       0x3c ./../../../../../../Atmel_lib/BitCloud_MEGARF_1_14_0/BitCloud/lib/libHAL_AtmlStk600_Atmega128rfa1_8Mhz_Gcc.a(halSpi.o)
 .text          0x00000000        0x0 ./../../../../../../Atmel_lib/BitCloud_MEGARF_1_14_0/BitCloud/lib/libHAL_AtmlStk600_Atmega128rfa1_8Mhz_Gcc.a(sleepTimer.o)
 .data          0x00000000        0x0 ./../../../../../../Atmel_lib/BitCloud_MEGARF_1_14_0/BitCloud/lib/libHAL_AtmlStk600_Atmega128rfa1_8Mhz_Gcc.a(sleepTimer.o)
 .bss           0x00000000        0x0 ./../../../../../../Atmel_lib/BitCloud_MEGARF_1_14_0/BitCloud/lib/libHAL_AtmlStk600_Atmega128rfa1_8Mhz_Gcc.a(sleepTimer.o)
 .text.HAL_StopSleepTimer
                0x00000000       0x24 ./../../../../../../Atmel_lib/BitCloud_MEGARF_1_14_0/BitCloud/lib/libHAL_AtmlStk600_Atmega128rfa1_8Mhz_Gcc.a(sleepTimer.o)
 .text          0x00000000        0x0 ./../../../../../../Atmel_lib/BitCloud_MEGARF_1_14_0/BitCloud/lib/libBc_EndDevice_Atmega128rfa1_Atmega128rfa1_Gcc.a(aps.o)
 .data          0x00000000        0x0 ./../../../../../../Atmel_lib/BitCloud_MEGARF_1_14_0/BitCloud/lib/libBc_EndDevice_Atmega128rfa1_Atmega128rfa1_Gcc.a(aps.o)
 .text.APS_DeactivateBindRecords
                0x00000000       0x5a ./../../../../../../Atmel_lib/BitCloud_MEGARF_1_14_0/BitCloud/lib/libBc_EndDevice_Atmega128rfa1_Atmega128rfa1_Gcc.a(aps.o)
 .text.APS_ActivateBindRecords
                0x00000000       0x5a ./../../../../../../Atmel_lib/BitCloud_MEGARF_1_14_0/BitCloud/lib/libBc_EndDevice_Atmega128rfa1_Atmega128rfa1_Gcc.a(aps.o)
 .text.APS_NextBindingEntry
                0x00000000       0x46 ./../../../../../../Atmel_lib/BitCloud_MEGARF_1_14_0/BitCloud/lib/libBc_EndDevice_Atmega128rfa1_Atmega128rfa1_Gcc.a(aps.o)
 .text.APS_UnregisterEndpointReq
                0x00000000       0x2c ./../../../../../../Atmel_lib/BitCloud_MEGARF_1_14_0/BitCloud/lib/libBc_EndDevice_Atmega128rfa1_Atmega128rfa1_Gcc.a(aps.o)
 .text.apsSetNoIndicationFlag
                0x00000000       0x42 ./../../../../../../Atmel_lib/BitCloud_MEGARF_1_14_0/BitCloud/lib/libBc_EndDevice_Atmega128rfa1_Atmega128rfa1_Gcc.a(aps.o)
 .text.APS_StopEndpointIndication
                0x00000000        0x8 ./../../../../../../Atmel_lib/BitCloud_MEGARF_1_14_0/BitCloud/lib/libBc_EndDevice_Atmega128rfa1_Atmega128rfa1_Gcc.a(aps.o)
 .text.APS_ResumeEndpointIndication
                0x00000000        0x8 ./../../../../../../Atmel_lib/BitCloud_MEGARF_1_14_0/BitCloud/lib/libBc_EndDevice_Atmega128rfa1_Atmega128rfa1_Gcc.a(aps.o)
 .text.APS_AddGroupReq
                0x00000000       0x22 ./../../../../../../Atmel_lib/BitCloud_MEGARF_1_14_0/BitCloud/lib/libBc_EndDevice_Atmega128rfa1_Atmega128rfa1_Gcc.a(aps.o)
 .text.APS_RemoveGroupReq
                0x00000000       0x22 ./../../../../../../Atmel_lib/BitCloud_MEGARF_1_14_0/BitCloud/lib/libBc_EndDevice_Atmega128rfa1_Atmega128rfa1_Gcc.a(aps.o)
 .text.APS_RemoveAllGroupsReq
                0x00000000       0x1e ./../../../../../../Atmel_lib/BitCloud_MEGARF_1_14_0/BitCloud/lib/libBc_EndDevice_Atmega128rfa1_Atmega128rfa1_Gcc.a(aps.o)
 .text.APS_IsStarted
                0x00000000       0x16 ./../../../../../../Atmel_lib/BitCloud_MEGARF_1_14_0/BitCloud/lib/libBc_EndDevice_Atmega128rfa1_Atmega128rfa1_Gcc.a(aps.o)
 .text          0x00000000        0x0 ./../../../../../../Atmel_lib/BitCloud_MEGARF_1_14_0/BitCloud/lib/libBc_EndDevice_Atmega128rfa1_Atmega128rfa1_Gcc.a(macenvPib.o)
 .data          0x00000000        0x0 ./../../../../../../Atmel_lib/BitCloud_MEGARF_1_14_0/BitCloud/lib/libBc_EndDevice_Atmega128rfa1_Atmega128rfa1_Gcc.a(macenvPib.o)
 .bss           0x00000000        0x0 ./../../../../../../Atmel_lib/BitCloud_MEGARF_1_14_0/BitCloud/lib/libBc_EndDevice_Atmega128rfa1_Atmega128rfa1_Gcc.a(macenvPib.o)
 .text          0x00000000        0x0 ./../../../../../../Atmel_lib/BitCloud_MEGARF_1_14_0/BitCloud/lib/libBc_EndDevice_Atmega128rfa1_Atmega128rfa1_Gcc.a(nwk.o)
 .bss           0x00000000       0x12 ./../../../../../../Atmel_lib/BitCloud_MEGARF_1_14_0/BitCloud/lib/libBc_EndDevice_Atmega128rfa1_Atmega128rfa1_Gcc.a(nwk.o)
 .text.nwkAddressMacSetConf
                0x00000000       0x5a ./../../../../../../Atmel_lib/BitCloud_MEGARF_1_14_0/BitCloud/lib/libBc_EndDevice_Atmega128rfa1_Atmega128rfa1_Gcc.a(nwk.o)
 .text.NWK_SetShortAddr
                0x00000000       0x52 ./../../../../../../Atmel_lib/BitCloud_MEGARF_1_14_0/BitCloud/lib/libBc_EndDevice_Atmega128rfa1_Atmega128rfa1_Gcc.a(nwk.o)
 .text.NWK_AddGroup
                0x00000000       0x36 ./../../../../../../Atmel_lib/BitCloud_MEGARF_1_14_0/BitCloud/lib/libBc_EndDevice_Atmega128rfa1_Atmega128rfa1_Gcc.a(nwk.o)
 .text.NWK_RemoveGroup
                0x00000000       0x58 ./../../../../../../Atmel_lib/BitCloud_MEGARF_1_14_0/BitCloud/lib/libBc_EndDevice_Atmega128rfa1_Atmega128rfa1_Gcc.a(nwk.o)
 .text.NWK_RemoveAllGroups
                0x00000000       0x42 ./../../../../../../Atmel_lib/BitCloud_MEGARF_1_14_0/BitCloud/lib/libBc_EndDevice_Atmega128rfa1_Atmega128rfa1_Gcc.a(nwk.o)
 .text.NWK_GroupCapacity
                0x00000000       0x24 ./../../../../../../Atmel_lib/BitCloud_MEGARF_1_14_0/BitCloud/lib/libBc_EndDevice_Atmega128rfa1_Atmega128rfa1_Gcc.a(nwk.o)
 .text.NWK_NextGroup
                0x00000000       0x32 ./../../../../../../Atmel_lib/BitCloud_MEGARF_1_14_0/BitCloud/lib/libBc_EndDevice_Atmega128rfa1_Atmega128rfa1_Gcc.a(nwk.o)
 .text.NWK_GetUpdateId
                0x00000000        0x6 ./../../../../../../Atmel_lib/BitCloud_MEGARF_1_14_0/BitCloud/lib/libBc_EndDevice_Atmega128rfa1_Atmega128rfa1_Gcc.a(nwk.o)
 .text.NWK_SetSymLink
                0x00000000        0x6 ./../../../../../../Atmel_lib/BitCloud_MEGARF_1_14_0/BitCloud/lib/libBc_EndDevice_Atmega128rfa1_Atmega128rfa1_Gcc.a(nwk.o)
 .text.NWK_GetProtocolVersion
                0x00000000        0x6 ./../../../../../../Atmel_lib/BitCloud_MEGARF_1_14_0/BitCloud/lib/libBc_EndDevice_Atmega128rfa1_Atmega128rfa1_Gcc.a(nwk.o)
 .text.NWK_FindAnyRouteAtFirstTime
                0x00000000        0x6 ./../../../../../../Atmel_lib/BitCloud_MEGARF_1_14_0/BitCloud/lib/libBc_EndDevice_Atmega128rfa1_Atmega128rfa1_Gcc.a(nwk.o)
 .text.MAC_OrphanInd
                0x00000000        0x2 ./../../../../../../Atmel_lib/BitCloud_MEGARF_1_14_0/BitCloud/lib/libBc_EndDevice_Atmega128rfa1_Atmega128rfa1_Gcc.a(nwk.o)
 .text.NWK_GetNextHop
                0x00000000       0x2e ./../../../../../../Atmel_lib/BitCloud_MEGARF_1_14_0/BitCloud/lib/libBc_EndDevice_Atmega128rfa1_Atmega128rfa1_Gcc.a(nwk.o)
 .text.MAC_PollInd
                0x00000000        0x2 ./../../../../../../Atmel_lib/BitCloud_MEGARF_1_14_0/BitCloud/lib/libBc_EndDevice_Atmega128rfa1_Atmega128rfa1_Gcc.a(nwk.o)
 .text          0x00000000        0x0 ./../../../../../../Atmel_lib/BitCloud_MEGARF_1_14_0/BitCloud/lib/libBc_EndDevice_Atmega128rfa1_Atmega128rfa1_Gcc.a(phyRxTxIndicator.o)
 .data          0x00000000        0x0 ./../../../../../../Atmel_lib/BitCloud_MEGARF_1_14_0/BitCloud/lib/libBc_EndDevice_Atmega128rfa1_Atmega128rfa1_Gcc.a(phyRxTxIndicator.o)
 .bss           0x00000000        0x0 ./../../../../../../Atmel_lib/BitCloud_MEGARF_1_14_0/BitCloud/lib/libBc_EndDevice_Atmega128rfa1_Atmega128rfa1_Gcc.a(phyRxTxIndicator.o)
 .text          0x00000000        0x0 ./../../../../../../Atmel_lib/BitCloud_MEGARF_1_14_0/BitCloud/lib/libBc_EndDevice_Atmega128rfa1_Atmega128rfa1_Gcc.a(phyStateMachine.o)
 .data          0x00000000        0x0 ./../../../../../../Atmel_lib/BitCloud_MEGARF_1_14_0/BitCloud/lib/libBc_EndDevice_Atmega128rfa1_Atmega128rfa1_Gcc.a(phyStateMachine.o)
 .text          0x00000000        0x0 ./../../../../../../Atmel_lib/BitCloud_MEGARF_1_14_0/BitCloud/lib/libBc_EndDevice_Atmega128rfa1_Atmega128rfa1_Gcc.a(queue.o)
 .data          0x00000000        0x0 ./../../../../../../Atmel_lib/BitCloud_MEGARF_1_14_0/BitCloud/lib/libBc_EndDevice_Atmega128rfa1_Atmega128rfa1_Gcc.a(queue.o)
 .bss           0x00000000        0x0 ./../../../../../../Atmel_lib/BitCloud_MEGARF_1_14_0/BitCloud/lib/libBc_EndDevice_Atmega128rfa1_Atmega128rfa1_Gcc.a(queue.o)
 .text          0x00000000        0x0 ./../../../../../../Atmel_lib/BitCloud_MEGARF_1_14_0/BitCloud/lib/libBc_EndDevice_Atmega128rfa1_Atmega128rfa1_Gcc.a(sysDuplicateTable.o)
 .data          0x00000000        0x0 ./../../../../../../Atmel_lib/BitCloud_MEGARF_1_14_0/BitCloud/lib/libBc_EndDevice_Atmega128rfa1_Atmega128rfa1_Gcc.a(sysDuplicateTable.o)
 .bss           0x00000000        0x0 ./../../../../../../Atmel_lib/BitCloud_MEGARF_1_14_0/BitCloud/lib/libBc_EndDevice_Atmega128rfa1_Atmega128rfa1_Gcc.a(sysDuplicateTable.o)
 .text          0x00000000        0x0 ./../../../../../../Atmel_lib/BitCloud_MEGARF_1_14_0/BitCloud/lib/libBc_EndDevice_Atmega128rfa1_Atmega128rfa1_Gcc.a(sysEvents.o)
 .data          0x00000000        0x0 ./../../../../../../Atmel_lib/BitCloud_MEGARF_1_14_0/BitCloud/lib/libBc_EndDevice_Atmega128rfa1_Atmega128rfa1_Gcc.a(sysEvents.o)
 .text.SYS_UnsubscribeFromEvent
                0x00000000       0x7c ./../../../../../../Atmel_lib/BitCloud_MEGARF_1_14_0/BitCloud/lib/libBc_EndDevice_Atmega128rfa1_Atmega128rfa1_Gcc.a(sysEvents.o)
 .text          0x00000000        0x0 ./../../../../../../Atmel_lib/BitCloud_MEGARF_1_14_0/BitCloud/lib/libBc_EndDevice_Atmega128rfa1_Atmega128rfa1_Gcc.a(sysTimer.o)
 .data          0x00000000        0x0 ./../../../../../../Atmel_lib/BitCloud_MEGARF_1_14_0/BitCloud/lib/libBc_EndDevice_Atmega128rfa1_Atmega128rfa1_Gcc.a(sysTimer.o)
 .bss           0x00000000        0x0 ./../../../../../../Atmel_lib/BitCloud_MEGARF_1_14_0/BitCloud/lib/libBc_EndDevice_Atmega128rfa1_Atmega128rfa1_Gcc.a(sysTimer.o)
 .text          0x00000000        0x0 ./../../../../../../Atmel_lib/BitCloud_MEGARF_1_14_0/BitCloud/lib/libBc_EndDevice_Atmega128rfa1_Atmega128rfa1_Gcc.a(taskManager.o)
 .text          0x00000000        0x0 ./../../../../../../Atmel_lib/BitCloud_MEGARF_1_14_0/BitCloud/lib/libBc_EndDevice_Atmega128rfa1_Atmega128rfa1_Gcc.a(zdo.o)
 .bss           0x00000000        0x0 ./../../../../../../Atmel_lib/BitCloud_MEGARF_1_14_0/BitCloud/lib/libBc_EndDevice_Atmega128rfa1_Atmega128rfa1_Gcc.a(zdo.o)
 .text.setTxPowerConf
                0x00000000       0x30 ./../../../../../../Atmel_lib/BitCloud_MEGARF_1_14_0/BitCloud/lib/libBc_EndDevice_Atmega128rfa1_Atmega128rfa1_Gcc.a(zdo.o)
 .text.ZDO_GetNwkStatus
                0x00000000       0x10 ./../../../../../../Atmel_lib/BitCloud_MEGARF_1_14_0/BitCloud/lib/libBc_EndDevice_Atmega128rfa1_Atmega128rfa1_Gcc.a(zdo.o)
 .text.ZDO_NotifyGeneral
                0x00000000        0x6 ./../../../../../../Atmel_lib/BitCloud_MEGARF_1_14_0/BitCloud/lib/libBc_EndDevice_Atmega128rfa1_Atmega128rfa1_Gcc.a(zdo.o)
 .text.ZDO_GetParentAddr
                0x00000000       0x62 ./../../../../../../Atmel_lib/BitCloud_MEGARF_1_14_0/BitCloud/lib/libBc_EndDevice_Atmega128rfa1_Atmega128rfa1_Gcc.a(zdo.o)
 .text.ZDO_GetChildrenAddr
                0x00000000       0xd0 ./../../../../../../Atmel_lib/BitCloud_MEGARF_1_14_0/BitCloud/lib/libBc_EndDevice_Atmega128rfa1_Atmega128rfa1_Gcc.a(zdo.o)
 .text.ZDO_SetTxPowerReq
                0x00000000       0x4c ./../../../../../../Atmel_lib/BitCloud_MEGARF_1_14_0/BitCloud/lib/libBc_EndDevice_Atmega128rfa1_Atmega128rfa1_Gcc.a(zdo.o)
 .text.ZDO_GetNeibAmount
                0x00000000       0x66 ./../../../../../../Atmel_lib/BitCloud_MEGARF_1_14_0/BitCloud/lib/libBc_EndDevice_Atmega128rfa1_Atmega128rfa1_Gcc.a(zdo.o)
 .text.ZDO_GetNeibTable
                0x00000000      0x176 ./../../../../../../Atmel_lib/BitCloud_MEGARF_1_14_0/BitCloud/lib/libBc_EndDevice_Atmega128rfa1_Atmega128rfa1_Gcc.a(zdo.o)
 .text.ZDO_WakeUpReq
                0x00000000       0x1e ./../../../../../../Atmel_lib/BitCloud_MEGARF_1_14_0/BitCloud/lib/libBc_EndDevice_Atmega128rfa1_Atmega128rfa1_Gcc.a(zdo.o)
 .text.zdoResetNetworkConf
                0x00000000       0x3c ./../../../../../../Atmel_lib/BitCloud_MEGARF_1_14_0/BitCloud/lib/libBc_EndDevice_Atmega128rfa1_Atmega128rfa1_Gcc.a(zdo.o)
 .text.ZDO_SoftwareResetReq
                0x00000000       0x18 ./../../../../../../Atmel_lib/BitCloud_MEGARF_1_14_0/BitCloud/lib/libBc_EndDevice_Atmega128rfa1_Atmega128rfa1_Gcc.a(zdo.o)
 .text.ZDO_ResetNetworkReq
                0x00000000       0x2a ./../../../../../../Atmel_lib/BitCloud_MEGARF_1_14_0/BitCloud/lib/libBc_EndDevice_Atmega128rfa1_Atmega128rfa1_Gcc.a(zdo.o)
 .text          0x00000000        0x0 ./../../../../../../Atmel_lib/BitCloud_MEGARF_1_14_0/BitCloud/lib/libBc_EndDevice_Atmega128rfa1_Atmega128rfa1_Gcc.a(bcSysSleep.o)
 .data          0x00000000        0x0 ./../../../../../../Atmel_lib/BitCloud_MEGARF_1_14_0/BitCloud/lib/libBc_EndDevice_Atmega128rfa1_Atmega128rfa1_Gcc.a(bcSysSleep.o)
 .bss           0x00000000        0x0 ./../../../../../../Atmel_lib/BitCloud_MEGARF_1_14_0/BitCloud/lib/libBc_EndDevice_Atmega128rfa1_Atmega128rfa1_Gcc.a(bcSysSleep.o)
 .text          0x00000000        0x0 ./../../../../../../Atmel_lib/BitCloud_MEGARF_1_14_0/BitCloud/lib/libBc_EndDevice_Atmega128rfa1_Atmega128rfa1_Gcc.a(macMem.o)
 .data          0x00000000        0x0 ./../../../../../../Atmel_lib/BitCloud_MEGARF_1_14_0/BitCloud/lib/libBc_EndDevice_Atmega128rfa1_Atmega128rfa1_Gcc.a(macMem.o)
 .bss           0x00000000        0x0 ./../../../../../../Atmel_lib/BitCloud_MEGARF_1_14_0/BitCloud/lib/libBc_EndDevice_Atmega128rfa1_Atmega128rfa1_Gcc.a(macMem.o)
 .text          0x00000000        0x0 ./../../../../../../Atmel_lib/BitCloud_MEGARF_1_14_0/BitCloud/lib/libBc_EndDevice_Atmega128rfa1_Atmega128rfa1_Gcc.a(machwdManager.o)
 .data          0x00000000        0x0 ./../../../../../../Atmel_lib/BitCloud_MEGARF_1_14_0/BitCloud/lib/libBc_EndDevice_Atmega128rfa1_Atmega128rfa1_Gcc.a(machwdManager.o)
 .text.RF_RandomSeqReq
                0x00000000        0xc ./../../../../../../Atmel_lib/BitCloud_MEGARF_1_14_0/BitCloud/lib/libBc_EndDevice_Atmega128rfa1_Atmega128rfa1_Gcc.a(machwdManager.o)
 .text.RF_CalibrationReq
                0x00000000        0xc ./../../../../../../Atmel_lib/BitCloud_MEGARF_1_14_0/BitCloud/lib/libBc_EndDevice_Atmega128rfa1_Atmega128rfa1_Gcc.a(machwdManager.o)
 .text.RF_RegWriteReq
                0x00000000        0xc ./../../../../../../Atmel_lib/BitCloud_MEGARF_1_14_0/BitCloud/lib/libBc_EndDevice_Atmega128rfa1_Atmega128rfa1_Gcc.a(machwdManager.o)
 .text.RF_RegReadReq
                0x00000000        0xc ./../../../../../../Atmel_lib/BitCloud_MEGARF_1_14_0/BitCloud/lib/libBc_EndDevice_Atmega128rfa1_Atmega128rfa1_Gcc.a(machwdManager.o)
 .text          0x00000000        0x0 ./../../../../../../Atmel_lib/BitCloud_MEGARF_1_14_0/BitCloud/lib/libBc_EndDevice_Atmega128rfa1_Atmega128rfa1_Gcc.a(machwdRegAccessHandler.o)
 .data          0x00000000        0x0 ./../../../../../../Atmel_lib/BitCloud_MEGARF_1_14_0/BitCloud/lib/libBc_EndDevice_Atmega128rfa1_Atmega128rfa1_Gcc.a(machwdRegAccessHandler.o)
 .text.machwdResetRegAccessHandler
                0x00000000        0x6 ./../../../../../../Atmel_lib/BitCloud_MEGARF_1_14_0/BitCloud/lib/libBc_EndDevice_Atmega128rfa1_Atmega128rfa1_Gcc.a(machwdRegAccessHandler.o)
 .text          0x00000000        0x0 ./../../../../../../Atmel_lib/BitCloud_MEGARF_1_14_0/BitCloud/lib/libBc_EndDevice_Atmega128rfa1_Atmega128rfa1_Gcc.a(machwdResetHandler.o)
 .data          0x00000000        0x0 ./../../../../../../Atmel_lib/BitCloud_MEGARF_1_14_0/BitCloud/lib/libBc_EndDevice_Atmega128rfa1_Atmega128rfa1_Gcc.a(machwdResetHandler.o)
 .bss           0x00000000        0x0 ./../../../../../../Atmel_lib/BitCloud_MEGARF_1_14_0/BitCloud/lib/libBc_EndDevice_Atmega128rfa1_Atmega128rfa1_Gcc.a(machwdResetHandler.o)
 .text          0x00000000        0x0 ./../../../../../../Atmel_lib/BitCloud_MEGARF_1_14_0/BitCloud/lib/libBc_EndDevice_Atmega128rfa1_Atmega128rfa1_Gcc.a(machwdRndHandler.o)
 .data          0x00000000        0x0 ./../../../../../../Atmel_lib/BitCloud_MEGARF_1_14_0/BitCloud/lib/libBc_EndDevice_Atmega128rfa1_Atmega128rfa1_Gcc.a(machwdRndHandler.o)
 .text          0x00000000        0x0 ./../../../../../../Atmel_lib/BitCloud_MEGARF_1_14_0/BitCloud/lib/libBc_EndDevice_Atmega128rfa1_Atmega128rfa1_Gcc.a(machwdRxBuffer.o)
 .data          0x00000000        0x0 ./../../../../../../Atmel_lib/BitCloud_MEGARF_1_14_0/BitCloud/lib/libBc_EndDevice_Atmega128rfa1_Atmega128rfa1_Gcc.a(machwdRxBuffer.o)
 .bss           0x00000000        0x0 ./../../../../../../Atmel_lib/BitCloud_MEGARF_1_14_0/BitCloud/lib/libBc_EndDevice_Atmega128rfa1_Atmega128rfa1_Gcc.a(machwdRxBuffer.o)
 .text          0x00000000        0x0 ./../../../../../../Atmel_lib/BitCloud_MEGARF_1_14_0/BitCloud/lib/libBc_EndDevice_Atmega128rfa1_Atmega128rfa1_Gcc.a(machwdRxFrameHandler.o)
 .data          0x00000000        0x0 ./../../../../../../Atmel_lib/BitCloud_MEGARF_1_14_0/BitCloud/lib/libBc_EndDevice_Atmega128rfa1_Atmega128rfa1_Gcc.a(machwdRxFrameHandler.o)
 .bss           0x00000000        0x0 ./../../../../../../Atmel_lib/BitCloud_MEGARF_1_14_0/BitCloud/lib/libBc_EndDevice_Atmega128rfa1_Atmega128rfa1_Gcc.a(machwdRxFrameHandler.o)
 .text          0x00000000        0x0 ./../../../../../../Atmel_lib/BitCloud_MEGARF_1_14_0/BitCloud/lib/libBc_EndDevice_Atmega128rfa1_Atmega128rfa1_Gcc.a(machwdSetHandler.o)
 .data          0x00000000        0x0 ./../../../../../../Atmel_lib/BitCloud_MEGARF_1_14_0/BitCloud/lib/libBc_EndDevice_Atmega128rfa1_Atmega128rfa1_Gcc.a(machwdSetHandler.o)
 .text.machwdIsBeaconRxMode
                0x00000000        0x6 ./../../../../../../Atmel_lib/BitCloud_MEGARF_1_14_0/BitCloud/lib/libBc_EndDevice_Atmega128rfa1_Atmega128rfa1_Gcc.a(machwdSetHandler.o)
 .text          0x00000000        0x0 ./../../../../../../Atmel_lib/BitCloud_MEGARF_1_14_0/BitCloud/lib/libBc_EndDevice_Atmega128rfa1_Atmega128rfa1_Gcc.a(machwdTrxCtrl.o)
 .bss           0x00000000        0x0 ./../../../../../../Atmel_lib/BitCloud_MEGARF_1_14_0/BitCloud/lib/libBc_EndDevice_Atmega128rfa1_Atmega128rfa1_Gcc.a(machwdTrxCtrl.o)
 .text          0x00000000        0x0 ./../../../../../../Atmel_lib/BitCloud_MEGARF_1_14_0/BitCloud/lib/libBc_EndDevice_Atmega128rfa1_Atmega128rfa1_Gcc.a(machwdTrxHandler.o)
 .data          0x00000000        0x0 ./../../../../../../Atmel_lib/BitCloud_MEGARF_1_14_0/BitCloud/lib/libBc_EndDevice_Atmega128rfa1_Atmega128rfa1_Gcc.a(machwdTrxHandler.o)
 .text          0x00000000        0x0 ./../../../../../../Atmel_lib/BitCloud_MEGARF_1_14_0/BitCloud/lib/libBc_EndDevice_Atmega128rfa1_Atmega128rfa1_Gcc.a(machwdTxFrameHandler.o)
 .data          0x00000000        0x0 ./../../../../../../Atmel_lib/BitCloud_MEGARF_1_14_0/BitCloud/lib/libBc_EndDevice_Atmega128rfa1_Atmega128rfa1_Gcc.a(machwdTxFrameHandler.o)
 .text          0x00000000        0x0 ./../../../../../../Atmel_lib/BitCloud_MEGARF_1_14_0/BitCloud/lib/libBc_EndDevice_Atmega128rfa1_Atmega128rfa1_Gcc.a(machwiManager.o)
 .data          0x00000000        0x0 ./../../../../../../Atmel_lib/BitCloud_MEGARF_1_14_0/BitCloud/lib/libBc_EndDevice_Atmega128rfa1_Atmega128rfa1_Gcc.a(machwiManager.o)
 .bss           0x00000000        0x0 ./../../../../../../Atmel_lib/BitCloud_MEGARF_1_14_0/BitCloud/lib/libBc_EndDevice_Atmega128rfa1_Atmega128rfa1_Gcc.a(machwiManager.o)
 .text          0x00000000        0x0 ./../../../../../../Atmel_lib/BitCloud_MEGARF_1_14_0/BitCloud/lib/libBc_EndDevice_Atmega128rfa1_Atmega128rfa1_Gcc.a(machwiPanServer.o)
 .data          0x00000000        0x0 ./../../../../../../Atmel_lib/BitCloud_MEGARF_1_14_0/BitCloud/lib/libBc_EndDevice_Atmega128rfa1_Atmega128rfa1_Gcc.a(machwiPanServer.o)
 .bss           0x00000000        0x0 ./../../../../../../Atmel_lib/BitCloud_MEGARF_1_14_0/BitCloud/lib/libBc_EndDevice_Atmega128rfa1_Atmega128rfa1_Gcc.a(machwiPanServer.o)
 .text          0x00000000        0x0 ./../../../../../../Atmel_lib/BitCloud_MEGARF_1_14_0/BitCloud/lib/libBc_EndDevice_Atmega128rfa1_Atmega128rfa1_Gcc.a(machwiPollHandler.o)
 .data          0x00000000        0x0 ./../../../../../../Atmel_lib/BitCloud_MEGARF_1_14_0/BitCloud/lib/libBc_EndDevice_Atmega128rfa1_Atmega128rfa1_Gcc.a(machwiPollHandler.o)
 .bss           0x00000000        0x0 ./../../../../../../Atmel_lib/BitCloud_MEGARF_1_14_0/BitCloud/lib/libBc_EndDevice_Atmega128rfa1_Atmega128rfa1_Gcc.a(machwiPollHandler.o)
 .text          0x00000000        0x0 ./../../../../../../Atmel_lib/BitCloud_MEGARF_1_14_0/BitCloud/lib/libBc_EndDevice_Atmega128rfa1_Atmega128rfa1_Gcc.a(machwiResetHandler.o)
 .data          0x00000000        0x0 ./../../../../../../Atmel_lib/BitCloud_MEGARF_1_14_0/BitCloud/lib/libBc_EndDevice_Atmega128rfa1_Atmega128rfa1_Gcc.a(machwiResetHandler.o)
 .bss           0x00000000        0x0 ./../../../../../../Atmel_lib/BitCloud_MEGARF_1_14_0/BitCloud/lib/libBc_EndDevice_Atmega128rfa1_Atmega128rfa1_Gcc.a(machwiResetHandler.o)
 .text          0x00000000        0x0 ./../../../../../../Atmel_lib/BitCloud_MEGARF_1_14_0/BitCloud/lib/libBc_EndDevice_Atmega128rfa1_Atmega128rfa1_Gcc.a(machwiRxEnableHandler.o)
 .data          0x00000000        0x0 ./../../../../../../Atmel_lib/BitCloud_MEGARF_1_14_0/BitCloud/lib/libBc_EndDevice_Atmega128rfa1_Atmega128rfa1_Gcc.a(machwiRxEnableHandler.o)
 .bss           0x00000000        0x0 ./../../../../../../Atmel_lib/BitCloud_MEGARF_1_14_0/BitCloud/lib/libBc_EndDevice_Atmega128rfa1_Atmega128rfa1_Gcc.a(machwiRxEnableHandler.o)
 .text          0x00000000        0x0 ./../../../../../../Atmel_lib/BitCloud_MEGARF_1_14_0/BitCloud/lib/libBc_EndDevice_Atmega128rfa1_Atmega128rfa1_Gcc.a(machwiScanHandler.o)
 .data          0x00000000        0x0 ./../../../../../../Atmel_lib/BitCloud_MEGARF_1_14_0/BitCloud/lib/libBc_EndDevice_Atmega128rfa1_Atmega128rfa1_Gcc.a(machwiScanHandler.o)
 .text          0x00000000        0x0 ./../../../../../../Atmel_lib/BitCloud_MEGARF_1_14_0/BitCloud/lib/libBc_EndDevice_Atmega128rfa1_Atmega128rfa1_Gcc.a(machwiSetGetHandler.o)
 .bss           0x00000000        0x0 ./../../../../../../Atmel_lib/BitCloud_MEGARF_1_14_0/BitCloud/lib/libBc_EndDevice_Atmega128rfa1_Atmega128rfa1_Gcc.a(machwiSetGetHandler.o)
 .text          0x00000000        0x0 ./../../../../../../Atmel_lib/BitCloud_MEGARF_1_14_0/BitCloud/lib/libBc_EndDevice_Atmega128rfa1_Atmega128rfa1_Gcc.a(machwiSwitchRxCtrl.o)
 .data          0x00000000        0x0 ./../../../../../../Atmel_lib/BitCloud_MEGARF_1_14_0/BitCloud/lib/libBc_EndDevice_Atmega128rfa1_Atmega128rfa1_Gcc.a(machwiSwitchRxCtrl.o)
 .bss           0x00000000        0x0 ./../../../../../../Atmel_lib/BitCloud_MEGARF_1_14_0/BitCloud/lib/libBc_EndDevice_Atmega128rfa1_Atmega128rfa1_Gcc.a(machwiSwitchRxCtrl.o)
 .text          0x00000000        0x0 ./../../../../../../Atmel_lib/BitCloud_MEGARF_1_14_0/BitCloud/lib/libBc_EndDevice_Atmega128rfa1_Atmega128rfa1_Gcc.a(phyInit.o)
 .data          0x00000000        0x0 ./../../../../../../Atmel_lib/BitCloud_MEGARF_1_14_0/BitCloud/lib/libBc_EndDevice_Atmega128rfa1_Atmega128rfa1_Gcc.a(phyInit.o)
 .bss           0x00000000        0x0 ./../../../../../../Atmel_lib/BitCloud_MEGARF_1_14_0/BitCloud/lib/libBc_EndDevice_Atmega128rfa1_Atmega128rfa1_Gcc.a(phyInit.o)
 .text          0x00000000        0x0 ./../../../../../../Atmel_lib/BitCloud_MEGARF_1_14_0/BitCloud/lib/libBc_EndDevice_Atmega128rfa1_Atmega128rfa1_Gcc.a(phyRegAccess.o)
 .data          0x00000000        0x0 ./../../../../../../Atmel_lib/BitCloud_MEGARF_1_14_0/BitCloud/lib/libBc_EndDevice_Atmega128rfa1_Atmega128rfa1_Gcc.a(phyRegAccess.o)
 .bss           0x00000000        0x0 ./../../../../../../Atmel_lib/BitCloud_MEGARF_1_14_0/BitCloud/lib/libBc_EndDevice_Atmega128rfa1_Atmega128rfa1_Gcc.a(phyRegAccess.o)
 .text          0x00000000        0x0 ./../../../../../../Atmel_lib/BitCloud_MEGARF_1_14_0/BitCloud/lib/libBc_EndDevice_Atmega128rfa1_Atmega128rfa1_Gcc.a(phyReset.o)
 .data          0x00000000        0x0 ./../../../../../../Atmel_lib/BitCloud_MEGARF_1_14_0/BitCloud/lib/libBc_EndDevice_Atmega128rfa1_Atmega128rfa1_Gcc.a(phyReset.o)
 .bss           0x00000000        0x0 ./../../../../../../Atmel_lib/BitCloud_MEGARF_1_14_0/BitCloud/lib/libBc_EndDevice_Atmega128rfa1_Atmega128rfa1_Gcc.a(phyReset.o)
 .text          0x00000000        0x0 ./../../../../../../Atmel_lib/BitCloud_MEGARF_1_14_0/BitCloud/lib/libBc_EndDevice_Atmega128rfa1_Atmega128rfa1_Gcc.a(phyRfIrqDispatcher.o)
 .text          0x00000000        0x0 ./../../../../../../Atmel_lib/BitCloud_MEGARF_1_14_0/BitCloud/lib/libBc_EndDevice_Atmega128rfa1_Atmega128rfa1_Gcc.a(phyRnd.o)
 .data          0x00000000        0x0 ./../../../../../../Atmel_lib/BitCloud_MEGARF_1_14_0/BitCloud/lib/libBc_EndDevice_Atmega128rfa1_Atmega128rfa1_Gcc.a(phyRnd.o)
 .bss           0x00000000        0x0 ./../../../../../../Atmel_lib/BitCloud_MEGARF_1_14_0/BitCloud/lib/libBc_EndDevice_Atmega128rfa1_Atmega128rfa1_Gcc.a(phyRnd.o)
 .text          0x00000000        0x0 ./../../../../../../Atmel_lib/BitCloud_MEGARF_1_14_0/BitCloud/lib/libBc_EndDevice_Atmega128rfa1_Atmega128rfa1_Gcc.a(phyRxFrame.o)
 .data          0x00000000        0x0 ./../../../../../../Atmel_lib/BitCloud_MEGARF_1_14_0/BitCloud/lib/libBc_EndDevice_Atmega128rfa1_Atmega128rfa1_Gcc.a(phyRxFrame.o)
 .bss           0x00000000        0x0 ./../../../../../../Atmel_lib/BitCloud_MEGARF_1_14_0/BitCloud/lib/libBc_EndDevice_Atmega128rfa1_Atmega128rfa1_Gcc.a(phyRxFrame.o)
 .text          0x00000000        0x0 ./../../../../../../Atmel_lib/BitCloud_MEGARF_1_14_0/BitCloud/lib/libBc_EndDevice_Atmega128rfa1_Atmega128rfa1_Gcc.a(phySet.o)
 .data          0x00000000        0x0 ./../../../../../../Atmel_lib/BitCloud_MEGARF_1_14_0/BitCloud/lib/libBc_EndDevice_Atmega128rfa1_Atmega128rfa1_Gcc.a(phySet.o)
 .text          0x00000000        0x0 ./../../../../../../Atmel_lib/BitCloud_MEGARF_1_14_0/BitCloud/lib/libBc_EndDevice_Atmega128rfa1_Atmega128rfa1_Gcc.a(phySetTrxState.o)
 .data          0x00000000        0x0 ./../../../../../../Atmel_lib/BitCloud_MEGARF_1_14_0/BitCloud/lib/libBc_EndDevice_Atmega128rfa1_Atmega128rfa1_Gcc.a(phySetTrxState.o)
 .bss           0x00000000        0x0 ./../../../../../../Atmel_lib/BitCloud_MEGARF_1_14_0/BitCloud/lib/libBc_EndDevice_Atmega128rfa1_Atmega128rfa1_Gcc.a(phySetTrxState.o)
 COMMON         0x00000000        0x1 ./../../../../../../Atmel_lib/BitCloud_MEGARF_1_14_0/BitCloud/lib/libBc_EndDevice_Atmega128rfa1_Atmega128rfa1_Gcc.a(phySetTrxState.o)
 .text          0x00000000        0x0 ./../../../../../../Atmel_lib/BitCloud_MEGARF_1_14_0/BitCloud/lib/libBc_EndDevice_Atmega128rfa1_Atmega128rfa1_Gcc.a(phyTxFrame.o)
 .data          0x00000000        0x0 ./../../../../../../Atmel_lib/BitCloud_MEGARF_1_14_0/BitCloud/lib/libBc_EndDevice_Atmega128rfa1_Atmega128rfa1_Gcc.a(phyTxFrame.o)
 .bss           0x00000000        0x0 ./../../../../../../Atmel_lib/BitCloud_MEGARF_1_14_0/BitCloud/lib/libBc_EndDevice_Atmega128rfa1_Atmega128rfa1_Gcc.a(phyTxFrame.o)
 .text          0x00000000        0x0 ./../../../../../../Atmel_lib/BitCloud_MEGARF_1_14_0/BitCloud/lib/libBc_EndDevice_Atmega128rfa1_Atmega128rfa1_Gcc.a(machwdCalibHandler.o)
 .data          0x00000000        0x0 ./../../../../../../Atmel_lib/BitCloud_MEGARF_1_14_0/BitCloud/lib/libBc_EndDevice_Atmega128rfa1_Atmega128rfa1_Gcc.a(machwdCalibHandler.o)
 .text          0x00000000        0x0 ./../../../../../../Atmel_lib/BitCloud_MEGARF_1_14_0/BitCloud/lib/libBc_EndDevice_Atmega128rfa1_Atmega128rfa1_Gcc.a(machwdEdHandler.o)
 .data          0x00000000        0x0 ./../../../../../../Atmel_lib/BitCloud_MEGARF_1_14_0/BitCloud/lib/libBc_EndDevice_Atmega128rfa1_Atmega128rfa1_Gcc.a(machwdEdHandler.o)
 .text          0x00000000        0x0 ./../../../../../../Atmel_lib/BitCloud_MEGARF_1_14_0/BitCloud/lib/libBc_EndDevice_Atmega128rfa1_Atmega128rfa1_Gcc.a(machwdFrameRoutine.o)
 .bss           0x00000000        0x0 ./../../../../../../Atmel_lib/BitCloud_MEGARF_1_14_0/BitCloud/lib/libBc_EndDevice_Atmega128rfa1_Atmega128rfa1_Gcc.a(machwdFrameRoutine.o)
 .text          0x00000000        0x0 ./../../../../../../Atmel_lib/BitCloud_MEGARF_1_14_0/BitCloud/lib/libBc_EndDevice_Atmega128rfa1_Atmega128rfa1_Gcc.a(machwdHandlerCtrl.o)
 .data          0x00000000        0x0 ./../../../../../../Atmel_lib/BitCloud_MEGARF_1_14_0/BitCloud/lib/libBc_EndDevice_Atmega128rfa1_Atmega128rfa1_Gcc.a(machwdHandlerCtrl.o)
 .text          0x00000000        0x0 ./../../../../../../Atmel_lib/BitCloud_MEGARF_1_14_0/BitCloud/lib/libBc_EndDevice_Atmega128rfa1_Atmega128rfa1_Gcc.a(machwiAssociateHandler.o)
 .data          0x00000000        0x0 ./../../../../../../Atmel_lib/BitCloud_MEGARF_1_14_0/BitCloud/lib/libBc_EndDevice_Atmega128rfa1_Atmega128rfa1_Gcc.a(machwiAssociateHandler.o)
 .bss           0x00000000        0x0 ./../../../../../../Atmel_lib/BitCloud_MEGARF_1_14_0/BitCloud/lib/libBc_EndDevice_Atmega128rfa1_Atmega128rfa1_Gcc.a(machwiAssociateHandler.o)
 .text          0x00000000        0x0 ./../../../../../../Atmel_lib/BitCloud_MEGARF_1_14_0/BitCloud/lib/libBc_EndDevice_Atmega128rfa1_Atmega128rfa1_Gcc.a(machwiDataHandler.o)
 .bss           0x00000000        0x0 ./../../../../../../Atmel_lib/BitCloud_MEGARF_1_14_0/BitCloud/lib/libBc_EndDevice_Atmega128rfa1_Atmega128rfa1_Gcc.a(machwiDataHandler.o)
 .text          0x00000000        0x0 ./../../../../../../Atmel_lib/BitCloud_MEGARF_1_14_0/BitCloud/lib/libBc_EndDevice_Atmega128rfa1_Atmega128rfa1_Gcc.a(phyCalib.o)
 .data          0x00000000        0x0 ./../../../../../../Atmel_lib/BitCloud_MEGARF_1_14_0/BitCloud/lib/libBc_EndDevice_Atmega128rfa1_Atmega128rfa1_Gcc.a(phyCalib.o)
 .bss           0x00000000        0x0 ./../../../../../../Atmel_lib/BitCloud_MEGARF_1_14_0/BitCloud/lib/libBc_EndDevice_Atmega128rfa1_Atmega128rfa1_Gcc.a(phyCalib.o)
 .text          0x00000000        0x0 ./../../../../../../Atmel_lib/BitCloud_MEGARF_1_14_0/BitCloud/lib/libBc_EndDevice_Atmega128rfa1_Atmega128rfa1_Gcc.a(phyEd.o)
 .data          0x00000000        0x0 ./../../../../../../Atmel_lib/BitCloud_MEGARF_1_14_0/BitCloud/lib/libBc_EndDevice_Atmega128rfa1_Atmega128rfa1_Gcc.a(phyEd.o)
 .bss           0x00000000        0x0 ./../../../../../../Atmel_lib/BitCloud_MEGARF_1_14_0/BitCloud/lib/libBc_EndDevice_Atmega128rfa1_Atmega128rfa1_Gcc.a(phyEd.o)
 .text          0x00000000        0x0 ./../../../../../../Atmel_lib/BitCloud_MEGARF_1_14_0/BitCloud/lib/libBc_EndDevice_Atmega128rfa1_Atmega128rfa1_Gcc.a(phyRtimerIrqDispatcher.o)
 .data          0x00000000        0x0 ./../../../../../../Atmel_lib/BitCloud_MEGARF_1_14_0/BitCloud/lib/libBc_EndDevice_Atmega128rfa1_Atmega128rfa1_Gcc.a(phyRtimerIrqDispatcher.o)
 .bss           0x00000000        0x0 ./../../../../../../Atmel_lib/BitCloud_MEGARF_1_14_0/BitCloud/lib/libBc_EndDevice_Atmega128rfa1_Atmega128rfa1_Gcc.a(phyRtimerIrqDispatcher.o)
 .text          0x00000000        0x0 ./../../../../../../Atmel_lib/BitCloud_MEGARF_1_14_0/BitCloud/lib/WdtInitatmega128rfa1_Gcc.o
 .data          0x00000000        0x0 ./../../../../../../Atmel_lib/BitCloud_MEGARF_1_14_0/BitCloud/lib/WdtInitatmega128rfa1_Gcc.o
 .bss           0x00000000        0x0 ./../../../../../../Atmel_lib/BitCloud_MEGARF_1_14_0/BitCloud/lib/WdtInitatmega128rfa1_Gcc.o
 .text          0x00000000        0x0 ./../../../../../../Atmel_lib/BitCloud_MEGARF_1_14_0/BitCloud/lib/libHAL_AtmlStk600_Atmega128rfa1_8Mhz_Gcc.a(halInit.o)
 .data          0x00000000        0x0 ./../../../../../../Atmel_lib/BitCloud_MEGARF_1_14_0/BitCloud/lib/libHAL_AtmlStk600_Atmega128rfa1_8Mhz_Gcc.a(halInit.o)
 .bss           0x00000000        0x0 ./../../../../../../Atmel_lib/BitCloud_MEGARF_1_14_0/BitCloud/lib/libHAL_AtmlStk600_Atmega128rfa1_8Mhz_Gcc.a(halInit.o)
 .text          0x00000000        0x0 ./../../../../../../Atmel_lib/BitCloud_MEGARF_1_14_0/BitCloud/lib/libHAL_AtmlStk600_Atmega128rfa1_8Mhz_Gcc.a(halRfCtrl.o)
 .data          0x00000000        0x0 ./../../../../../../Atmel_lib/BitCloud_MEGARF_1_14_0/BitCloud/lib/libHAL_AtmlStk600_Atmega128rfa1_8Mhz_Gcc.a(halRfCtrl.o)
 .bss           0x00000000        0x0 ./../../../../../../Atmel_lib/BitCloud_MEGARF_1_14_0/BitCloud/lib/libHAL_AtmlStk600_Atmega128rfa1_8Mhz_Gcc.a(halRfCtrl.o)
 .text          0x00000000        0x0 ./../../../../../../Atmel_lib/BitCloud_MEGARF_1_14_0/BitCloud/lib/libHAL_AtmlStk600_Atmega128rfa1_8Mhz_Gcc.a(halUid.o)
 .data          0x00000000        0x0 ./../../../../../../Atmel_lib/BitCloud_MEGARF_1_14_0/BitCloud/lib/libHAL_AtmlStk600_Atmega128rfa1_8Mhz_Gcc.a(halUid.o)
 .text          0x00000000        0x0 ./../../../../../../Atmel_lib/BitCloud_MEGARF_1_14_0/BitCloud/lib/libHAL_AtmlStk600_Atmega128rfa1_8Mhz_Gcc.a(halMacIsr.o)
 .data          0x00000000        0x0 ./../../../../../../Atmel_lib/BitCloud_MEGARF_1_14_0/BitCloud/lib/libHAL_AtmlStk600_Atmega128rfa1_8Mhz_Gcc.a(halMacIsr.o)
 .bss           0x00000000        0x0 ./../../../../../../Atmel_lib/BitCloud_MEGARF_1_14_0/BitCloud/lib/libHAL_AtmlStk600_Atmega128rfa1_8Mhz_Gcc.a(halMacIsr.o)
 .text          0x00000000        0x0 c:/program files (x86)/atmel/avr tools/avr toolchain/bin/../lib/gcc/avr/4.5.1/avr51\libgcc.a(_mulsi3.o)
 .data          0x00000000        0x0 c:/program files (x86)/atmel/avr tools/avr toolchain/bin/../lib/gcc/avr/4.5.1/avr51\libgcc.a(_mulsi3.o)
 .bss           0x00000000        0x0 c:/program files (x86)/atmel/avr tools/avr toolchain/bin/../lib/gcc/avr/4.5.1/avr51\libgcc.a(_mulsi3.o)
 .text          0x00000000        0x0 c:/program files (x86)/atmel/avr tools/avr toolchain/bin/../lib/gcc/avr/4.5.1/avr51\libgcc.a(_udivmodqi4.o)
 .data          0x00000000        0x0 c:/program files (x86)/atmel/avr tools/avr toolchain/bin/../lib/gcc/avr/4.5.1/avr51\libgcc.a(_udivmodqi4.o)
 .bss           0x00000000        0x0 c:/program files (x86)/atmel/avr tools/avr toolchain/bin/../lib/gcc/avr/4.5.1/avr51\libgcc.a(_udivmodqi4.o)
 .text          0x00000000        0x0 c:/program files (x86)/atmel/avr tools/avr toolchain/bin/../lib/gcc/avr/4.5.1/avr51\libgcc.a(_udivmodhi4.o)
 .data          0x00000000        0x0 c:/program files (x86)/atmel/avr tools/avr toolchain/bin/../lib/gcc/avr/4.5.1/avr51\libgcc.a(_udivmodhi4.o)
 .bss           0x00000000        0x0 c:/program files (x86)/atmel/avr tools/avr toolchain/bin/../lib/gcc/avr/4.5.1/avr51\libgcc.a(_udivmodhi4.o)
 .text          0x00000000        0x0 c:/program files (x86)/atmel/avr tools/avr toolchain/bin/../lib/gcc/avr/4.5.1/avr51\libgcc.a(_udivmodsi4.o)
 .data          0x00000000        0x0 c:/program files (x86)/atmel/avr tools/avr toolchain/bin/../lib/gcc/avr/4.5.1/avr51\libgcc.a(_udivmodsi4.o)
 .bss           0x00000000        0x0 c:/program files (x86)/atmel/avr tools/avr toolchain/bin/../lib/gcc/avr/4.5.1/avr51\libgcc.a(_udivmodsi4.o)
 .text          0x00000000        0x0 c:/program files (x86)/atmel/avr tools/avr toolchain/bin/../lib/gcc/avr/4.5.1/avr51\libgcc.a(_prologue.o)
 .data          0x00000000        0x0 c:/program files (x86)/atmel/avr tools/avr toolchain/bin/../lib/gcc/avr/4.5.1/avr51\libgcc.a(_prologue.o)
 .bss           0x00000000        0x0 c:/program files (x86)/atmel/avr tools/avr toolchain/bin/../lib/gcc/avr/4.5.1/avr51\libgcc.a(_prologue.o)
 .text          0x00000000        0x0 c:/program files (x86)/atmel/avr tools/avr toolchain/bin/../lib/gcc/avr/4.5.1/avr51\libgcc.a(_epilogue.o)
 .data          0x00000000        0x0 c:/program files (x86)/atmel/avr tools/avr toolchain/bin/../lib/gcc/avr/4.5.1/avr51\libgcc.a(_epilogue.o)
 .bss           0x00000000        0x0 c:/program files (x86)/atmel/avr tools/avr toolchain/bin/../lib/gcc/avr/4.5.1/avr51\libgcc.a(_epilogue.o)
 .text          0x00000000        0x0 c:/program files (x86)/atmel/avr tools/avr toolchain/bin/../lib/gcc/avr/4.5.1/avr51\libgcc.a(_exit.o)
 .data          0x00000000        0x0 c:/program files (x86)/atmel/avr tools/avr toolchain/bin/../lib/gcc/avr/4.5.1/avr51\libgcc.a(_exit.o)
 .bss           0x00000000        0x0 c:/program files (x86)/atmel/avr tools/avr toolchain/bin/../lib/gcc/avr/4.5.1/avr51\libgcc.a(_exit.o)
 .text.libgcc   0x00000000        0x0 c:/program files (x86)/atmel/avr tools/avr toolchain/bin/../lib/gcc/avr/4.5.1/avr51\libgcc.a(_exit.o)
 .fini9         0x00000000        0x0 c:/program files (x86)/atmel/avr tools/avr toolchain/bin/../lib/gcc/avr/4.5.1/avr51\libgcc.a(_exit.o)
 .fini0         0x00000000        0x4 c:/program files (x86)/atmel/avr tools/avr toolchain/bin/../lib/gcc/avr/4.5.1/avr51\libgcc.a(_exit.o)
 .text          0x00000000        0x0 c:/program files (x86)/atmel/avr tools/avr toolchain/bin/../lib/gcc/avr/4.5.1/avr51\libgcc.a(_tablejump.o)
 .data          0x00000000        0x0 c:/program files (x86)/atmel/avr tools/avr toolchain/bin/../lib/gcc/avr/4.5.1/avr51\libgcc.a(_tablejump.o)
 .bss           0x00000000        0x0 c:/program files (x86)/atmel/avr tools/avr toolchain/bin/../lib/gcc/avr/4.5.1/avr51\libgcc.a(_tablejump.o)
 .text          0x00000000        0x0 c:/program files (x86)/atmel/avr tools/avr toolchain/bin/../lib/gcc/avr/4.5.1/avr51\libgcc.a(_copy_data.o)
 .data          0x00000000        0x0 c:/program files (x86)/atmel/avr tools/avr toolchain/bin/../lib/gcc/avr/4.5.1/avr51\libgcc.a(_copy_data.o)
 .bss           0x00000000        0x0 c:/program files (x86)/atmel/avr tools/avr toolchain/bin/../lib/gcc/avr/4.5.1/avr51\libgcc.a(_copy_data.o)
 .text.libgcc   0x00000000        0x0 c:/program files (x86)/atmel/avr tools/avr toolchain/bin/../lib/gcc/avr/4.5.1/avr51\libgcc.a(_copy_data.o)
 .text          0x00000000        0x0 c:/program files (x86)/atmel/avr tools/avr toolchain/bin/../lib/gcc/avr/4.5.1/avr51\libgcc.a(_clear_bss.o)
 .data          0x00000000        0x0 c:/program files (x86)/atmel/avr tools/avr toolchain/bin/../lib/gcc/avr/4.5.1/avr51\libgcc.a(_clear_bss.o)
 .bss           0x00000000        0x0 c:/program files (x86)/atmel/avr tools/avr toolchain/bin/../lib/gcc/avr/4.5.1/avr51\libgcc.a(_clear_bss.o)
 .text.libgcc   0x00000000        0x0 c:/program files (x86)/atmel/avr tools/avr toolchain/bin/../lib/gcc/avr/4.5.1/avr51\libgcc.a(_clear_bss.o)
 .data          0x00000000        0x0 c:/program files (x86)/atmel/avr tools/avr toolchain/bin/../lib/gcc/avr/4.5.1/avr51\libgcc.a(_ashldi3.o)
 .bss           0x00000000        0x0 c:/program files (x86)/atmel/avr tools/avr toolchain/bin/../lib/gcc/avr/4.5.1/avr51\libgcc.a(_ashldi3.o)
 .text          0x00000000        0x0 c:/program files (x86)/atmel/avr tools/avr toolchain/bin/../lib/gcc/avr/4.5.1/../../../../avr/lib/avr51\libc.a(rand.o)
 .bss           0x00000000        0x0 c:/program files (x86)/atmel/avr tools/avr toolchain/bin/../lib/gcc/avr/4.5.1/../../../../avr/lib/avr51\libc.a(rand.o)
 .text          0x00000000        0x0 c:/program files (x86)/atmel/avr tools/avr toolchain/bin/../lib/gcc/avr/4.5.1/../../../../avr/lib/avr51\libc.a(memcpy_P.o)
 .data          0x00000000        0x0 c:/program files (x86)/atmel/avr tools/avr toolchain/bin/../lib/gcc/avr/4.5.1/../../../../avr/lib/avr51\libc.a(memcpy_P.o)
 .bss           0x00000000        0x0 c:/program files (x86)/atmel/avr tools/avr toolchain/bin/../lib/gcc/avr/4.5.1/../../../../avr/lib/avr51\libc.a(memcpy_P.o)
 .text          0x00000000        0x0 c:/program files (x86)/atmel/avr tools/avr toolchain/bin/../lib/gcc/avr/4.5.1/../../../../avr/lib/avr51\libc.a(memcmp.o)
 .data          0x00000000        0x0 c:/program files (x86)/atmel/avr tools/avr toolchain/bin/../lib/gcc/avr/4.5.1/../../../../avr/lib/avr51\libc.a(memcmp.o)
 .bss           0x00000000        0x0 c:/program files (x86)/atmel/avr tools/avr toolchain/bin/../lib/gcc/avr/4.5.1/../../../../avr/lib/avr51\libc.a(memcmp.o)
 .text          0x00000000        0x0 c:/program files (x86)/atmel/avr tools/avr toolchain/bin/../lib/gcc/avr/4.5.1/../../../../avr/lib/avr51\libc.a(memcpy.o)
 .data          0x00000000        0x0 c:/program files (x86)/atmel/avr tools/avr toolchain/bin/../lib/gcc/avr/4.5.1/../../../../avr/lib/avr51\libc.a(memcpy.o)
 .bss           0x00000000        0x0 c:/program files (x86)/atmel/avr tools/avr toolchain/bin/../lib/gcc/avr/4.5.1/../../../../avr/lib/avr51\libc.a(memcpy.o)
 .text          0x00000000        0x0 c:/program files (x86)/atmel/avr tools/avr toolchain/bin/../lib/gcc/avr/4.5.1/../../../../avr/lib/avr51\libc.a(memmove.o)
 .data          0x00000000        0x0 c:/program files (x86)/atmel/avr tools/avr toolchain/bin/../lib/gcc/avr/4.5.1/../../../../avr/lib/avr51\libc.a(memmove.o)
 .bss           0x00000000        0x0 c:/program files (x86)/atmel/avr tools/avr toolchain/bin/../lib/gcc/avr/4.5.1/../../../../avr/lib/avr51\libc.a(memmove.o)
 .text          0x00000000        0x0 c:/program files (x86)/atmel/avr tools/avr toolchain/bin/../lib/gcc/avr/4.5.1/../../../../avr/lib/avr51\libc.a(memset.o)
 .data          0x00000000        0x0 c:/program files (x86)/atmel/avr tools/avr toolchain/bin/../lib/gcc/avr/4.5.1/../../../../avr/lib/avr51\libc.a(memset.o)
 .bss           0x00000000        0x0 c:/program files (x86)/atmel/avr tools/avr toolchain/bin/../lib/gcc/avr/4.5.1/../../../../avr/lib/avr51\libc.a(memset.o)
 .text          0x00000000        0x0 c:/program files (x86)/atmel/avr tools/avr toolchain/bin/../lib/gcc/avr/4.5.1/avr51\libgcc.a(_divmodsi4.o)
 .data          0x00000000        0x0 c:/program files (x86)/atmel/avr tools/avr toolchain/bin/../lib/gcc/avr/4.5.1/avr51\libgcc.a(_divmodsi4.o)
 .bss           0x00000000        0x0 c:/program files (x86)/atmel/avr tools/avr toolchain/bin/../lib/gcc/avr/4.5.1/avr51\libgcc.a(_divmodsi4.o)

Memory Configuration

Name             Origin             Length             Attributes
text             0x00000000         0x00020000         xr
data             0x00800190         0x00003e0c         rw !x
eeprom           0x00810000         0x00001000         rw !x
*default*        0x00000000         0xffffffff

Linker script and memory map

Address of section .data set to 0x800200
LOAD c:/program files (x86)/atmel/avr tools/avr toolchain/bin/../lib/gcc/avr/4.5.1/../../../../avr/lib/avr51/crtm128rfa1.o

.text           0x00000000    0x12252
                0x00000000                PROVIDE (__text_start, .)
 *(.vectors)
 .vectors       0x00000000      0x120 c:/program files (x86)/atmel/avr tools/avr toolchain/bin/../lib/gcc/avr/4.5.1/../../../../avr/lib/avr51/crtm128rfa1.o
                0x00000000                __vector_default
                0x00000000                __vectors
 *(.vectors)
                0x00000120                PROVIDE (__pds_ff_start, .)
 *(.pds_ff)
 .pds_ff        0x00000120       0x8a EndDevice_Stk600_Atmega128rfa1_8Mhz_Gcc/Obj/csPersistentMem.o
                0x00000120                csGeneralFileDescriptors
                0x00000180                csExtendedFileDescriptors
                0x00000198                csNeighborTableFileDescriptor
                0x0000019e                csGroupTableFileDescriptor
                0x000001a4                csBindingTableFileDescriptor
                0x000001aa                PROVIDE (__pds_ff_end, .)
                0x000001aa                PROVIDE (__pds_fd_start, .)
 *(.pds_fd)
 .pds_fd        0x000001aa       0x24 EndDevice_Stk600_Atmega128rfa1_8Mhz_Gcc/Obj/csPersistentMem.o
                0x000001aa                csGeneralParamsDirDescr
                0x000001b0                csExtendedParamsDirDescr
                0x000001b6                csNwkSecurityTablesDirDescr
                0x000001bc                BCSystemDirDescr
                0x000001c2                BCExtGenParamsDirDescr
                0x000001c8                BCRejoinParamsDirDescr
                0x000001ce                PROVIDE (__pds_fd_end, .)
 *(.progmem.gcc*)
 .progmem.gcc_sw_table
                0x000001ce      0x108 ./../../../../../../Atmel_lib/BitCloud_MEGARF_1_14_0/BitCloud/lib/libBc_EndDevice_Atmega128rfa1_Atmega128rfa1_Gcc.a(macenvPib.o)
 .progmem.gcc_sw_table
                0x000002d6       0x1e ./../../../../../../Atmel_lib/BitCloud_MEGARF_1_14_0/BitCloud/lib/libBc_EndDevice_Atmega128rfa1_Atmega128rfa1_Gcc.a(nwk.o)
 .progmem.gcc_sw_table
                0x000002f4       0x58 ./../../../../../../Atmel_lib/BitCloud_MEGARF_1_14_0/BitCloud/lib/libBc_EndDevice_Atmega128rfa1_Atmega128rfa1_Gcc.a(zdo.o)
 .progmem.gcc_sw_table
                0x0000034c       0x28 ./../../../../../../Atmel_lib/BitCloud_MEGARF_1_14_0/BitCloud/lib/libBc_EndDevice_Atmega128rfa1_Atmega128rfa1_Gcc.a(machwdManager.o)
 .progmem.gcc_sw_table
                0x00000374       0x28 ./../../../../../../Atmel_lib/BitCloud_MEGARF_1_14_0/BitCloud/lib/libBc_EndDevice_Atmega128rfa1_Atmega128rfa1_Gcc.a(machwiManager.o)
 .progmem.gcc_sw_table
                0x0000039c       0x20 ./../../../../../../Atmel_lib/BitCloud_MEGARF_1_14_0/BitCloud/lib/libBc_EndDevice_Atmega128rfa1_Atmega128rfa1_Gcc.a(machwiScanHandler.o)
 *(.progmem*)
 .progmem.data  0x000003bc        0x6 EndDevice_Stk600_Atmega128rfa1_8Mhz_Gcc/Obj/WSNEndDevice.o
                0x000003bc                appEndDeviceCmdDescTable
 .progmem.data  0x000003c2       0xa4 EndDevice_Stk600_Atmega128rfa1_8Mhz_Gcc/Obj/csPersistentMem.o
                0x000003c2                CsGeneralMemoryIdsTable
                0x000003e2                CsExtendedMemoryIdsTable
                0x000003ea                CsNwkSecurityMemoryIdsTable
                0x000003ee                BCSystemMemoryIdsTable
                0x0000041c                BCExtGenParamsMemoryIdsTable
                0x00000444                BCRejoinParamsMemoryIdsTable
 .progmem.data  0x00000466      0x25e EndDevice_Stk600_Atmega128rfa1_8Mhz_Gcc/Obj/csMem.o
                0x00000466                defaultNIB
                0x000004ec                defaultZIB
                0x0000051b                defaultAIB
                0x0000051d                defaultSIB
                0x00000559                csReadOnlyItems
                0x00000578                csMemoryItems
 .progmem.data  0x000006c4        0xc ./../../../../../../Atmel_lib/BitCloud_MEGARF_1_14_0/BitCloud/lib/libHAL_AtmlStk600_Atmega128rfa1_8Mhz_Gcc.a(usart.o)
 .progmem.data  0x000006d0       0x10 ./../../../../../../Atmel_lib/BitCloud_MEGARF_1_14_0/BitCloud/lib/libBc_EndDevice_Atmega128rfa1_Atmega128rfa1_Gcc.a(aps.o)
 .progmem.data  0x000006e0      0x132 ./../../../../../../Atmel_lib/BitCloud_MEGARF_1_14_0/BitCloud/lib/libBc_EndDevice_Atmega128rfa1_Atmega128rfa1_Gcc.a(nwk.o)
                0x00000812                . = ALIGN (0x2)
 *(.trampolines*)
 .trampolines   0x00000812        0x0 linker stubs
 *(.jumptables*)
 *(.lowtext*)
 *(.init0)
 .init0         0x00000812        0x0 c:/program files (x86)/atmel/avr tools/avr toolchain/bin/../lib/gcc/avr/4.5.1/../../../../avr/lib/avr51/crtm128rfa1.o
                0x00000812                __init
 .init0         0x00000812       0x30 ./../../../../../../Atmel_lib/BitCloud_MEGARF_1_14_0/BitCloud/lib/WdtInitatmega128rfa1_Gcc.o
                0x00000812                halWdtInit
 *(.init0)
 *(.init1)
 *(.init1)
 *(.init2)
 .init2         0x00000842        0xc c:/program files (x86)/atmel/avr tools/avr toolchain/bin/../lib/gcc/avr/4.5.1/../../../../avr/lib/avr51/crtm128rfa1.o
 *(.init2)
 *(.init3)
 *(.init3)
 *(.init4)
 .init4         0x0000084e       0x1a c:/program files (x86)/atmel/avr tools/avr toolchain/bin/../lib/gcc/avr/4.5.1/avr51\libgcc.a(_copy_data.o)
                0x0000084e                __do_copy_data
 .init4         0x00000868       0x10 c:/program files (x86)/atmel/avr tools/avr toolchain/bin/../lib/gcc/avr/4.5.1/avr51\libgcc.a(_clear_bss.o)
                0x00000868                __do_clear_bss
 *(.init4)
 *(.init5)
 *(.init5)
 *(.init6)
 *(.init6)
 *(.init7)
 *(.init7)
 *(.init8)
 *(.init8)
 *(.text.main)
 .text.main     0x00000878        0xa EndDevice_Stk600_Atmega128rfa1_8Mhz_Gcc/Obj/WSNDemoApp.o
                0x00000878                main
 *(.text.main)
 *(.text)
 .text          0x00000882        0x4 c:/program files (x86)/atmel/avr tools/avr toolchain/bin/../lib/gcc/avr/4.5.1/../../../../avr/lib/avr51/crtm128rfa1.o
                0x00000882                __vector_22
                0x00000882                __vector_28
                0x00000882                __vector_67
                0x00000882                __vector_32
                0x00000882                __vector_71
                0x00000882                __vector_34
                0x00000882                __vector_62
                0x00000882                __vector_12
                0x00000882                __vector_55
                0x00000882                __vector_69
                0x00000882                __vector_46
                0x00000882                __bad_interrupt
                0x00000882                __vector_31
                0x00000882                __vector_35
                0x00000882                __vector_23
                0x00000882                __vector_68
                0x00000882                __vector_45
                0x00000882                __vector_61
                0x00000882                __vector_11
                0x00000882                __vector_54
                0x00000882                __vector_17
                0x00000882                __vector_19
                0x00000882                __vector_56
                0x00000882                __vector_49
                0x00000882                __vector_41
                0x00000882                __vector_64
                0x00000882                __vector_33
                0x00000882                __vector_47
                0x00000882                __vector_52
                0x00000882                __vector_44
                0x00000882                __vector_51
                0x00000882                __vector_9
                0x00000882                __vector_21
                0x00000882                __vector_66
                0x00000882                __vector_58
                0x00000882                __vector_70
                0x00000882                __vector_40
                0x00000882                __vector_48
                0x00000882                __vector_14
                0x00000882                __vector_57
                0x00000882                __vector_53
                0x00000882                __vector_10
                0x00000882                __vector_50
                0x00000882                __vector_16
                0x00000882                __vector_59
                0x00000882                __vector_18
                0x00000882                __vector_20
                0x00000882                __vector_65
 .text          0x00000886       0xce ./../../../../../../Atmel_lib/BitCloud_MEGARF_1_14_0/BitCloud/lib/libHAL_AtmlStk600_Atmega128rfa1_8Mhz_Gcc.a(halW1.o)
                0x00000886                halResetW1
                0x000008ba                halReadW1Bit
                0x000008ea                halReadW1
                0x00000906                halWriteW1bit
                0x00000932                halWriteW1
                0x00000944                __delay_us
 .text          0x00000954       0x3a ./../../../../../../Atmel_lib/BitCloud_MEGARF_1_14_0/BitCloud/lib/libHAL_AtmlStk600_Atmega128rfa1_8Mhz_Gcc.a(halCalibration.o)
                0x00000954                halMeasurement
 .text          0x0000098e       0xe2 c:/program files (x86)/atmel/avr tools/avr toolchain/bin/../lib/gcc/avr/4.5.1/avr51\libgcc.a(_ashldi3.o)
                0x0000098e                __ashldi3
 *(.text.*)
 .text.batteryDataReady
                0x00000a70       0x24 EndDevice_Stk600_Atmega128rfa1_8Mhz_Gcc/Obj/WSNSensorManager.o
 .text.temperatureDataReady
                0x00000a94       0x38 EndDevice_Stk600_Atmega128rfa1_8Mhz_Gcc/Obj/WSNSensorManager.o
 .text.lightDataReady
                0x00000acc       0x38 EndDevice_Stk600_Atmega128rfa1_8Mhz_Gcc/Obj/WSNSensorManager.o
 .text.appStartSensorManager
                0x00000b04        0xe EndDevice_Stk600_Atmega128rfa1_8Mhz_Gcc/Obj/WSNSensorManager.o
                0x00000b04                appStartSensorManager
 .text.appStopSensorManager
                0x00000b12        0xe EndDevice_Stk600_Atmega128rfa1_8Mhz_Gcc/Obj/WSNSensorManager.o
                0x00000b12                appStopSensorManager
 .text.appGetSensorData
                0x00000b20       0x12 EndDevice_Stk600_Atmega128rfa1_8Mhz_Gcc/Obj/WSNSensorManager.o
                0x00000b20                appGetSensorData
 .text.visualizeAppStarting
                0x00000b32        0x6 EndDevice_Stk600_Atmega128rfa1_8Mhz_Gcc/Obj/WSNVisualizer.o
                0x00000b32                visualizeAppStarting
 .text.visualizeNwkStarting
                0x00000b38       0x14 EndDevice_Stk600_Atmega128rfa1_8Mhz_Gcc/Obj/WSNVisualizer.o
                0x00000b38                visualizeNwkStarting
 .text.visualizeNwkStarted
                0x00000b4c       0x14 EndDevice_Stk600_Atmega128rfa1_8Mhz_Gcc/Obj/WSNVisualizer.o
                0x00000b4c                visualizeNwkStarted
 .text.visualizeNwkLeaving
                0x00000b60        0x8 EndDevice_Stk600_Atmega128rfa1_8Mhz_Gcc/Obj/WSNVisualizer.o
                0x00000b60                visualizeNwkLeaving
 .text.visualizeNwkLeft
                0x00000b68        0x8 EndDevice_Stk600_Atmega128rfa1_8Mhz_Gcc/Obj/WSNVisualizer.o
                0x00000b68                visualizeNwkLeft
 .text.visualizeAirTxStarted
                0x00000b70        0x8 EndDevice_Stk600_Atmega128rfa1_8Mhz_Gcc/Obj/WSNVisualizer.o
                0x00000b70                visualizeAirTxStarted
 .text.visualizeAirTxFInished
                0x00000b78        0x8 EndDevice_Stk600_Atmega128rfa1_8Mhz_Gcc/Obj/WSNVisualizer.o
                0x00000b78                visualizeAirTxFInished
 .text.visualizeAirRxFinished
                0x00000b80        0x8 EndDevice_Stk600_Atmega128rfa1_8Mhz_Gcc/Obj/WSNVisualizer.o
                0x00000b80                visualizeAirRxFinished
 .text.visualizeWakeUp
                0x00000b88        0xc EndDevice_Stk600_Atmega128rfa1_8Mhz_Gcc/Obj/WSNVisualizer.o
                0x00000b88                visualizeWakeUp
 .text.visualizeSleep
                0x00000b94        0x6 EndDevice_Stk600_Atmega128rfa1_8Mhz_Gcc/Obj/WSNVisualizer.o
                0x00000b94                visualizeSleep
 .text.visualizeIdentity
                0x00000b9a        0x8 EndDevice_Stk600_Atmega128rfa1_8Mhz_Gcc/Obj/WSNVisualizer.o
                0x00000b9a                visualizeIdentity
 .text.appEndDeviceWakeUpInd
                0x00000ba2       0x10 EndDevice_Stk600_Atmega128rfa1_8Mhz_Gcc/Obj/WSNEndDevice.o
 .text.appEndDeviceTaskReset
                0x00000bb2        0xa EndDevice_Stk600_Atmega128rfa1_8Mhz_Gcc/Obj/WSNEndDevice.o
 .text.appEndDeviceSleepConf
                0x00000bbc       0x1c EndDevice_Stk600_Atmega128rfa1_8Mhz_Gcc/Obj/WSNEndDevice.o
 .text.deviceTimerFired
                0x00000bd8       0x18 EndDevice_Stk600_Atmega128rfa1_8Mhz_Gcc/Obj/WSNEndDevice.o
 .text.appEndDeviceTaskHandler
                0x00000bf0       0xf0 EndDevice_Stk600_Atmega128rfa1_8Mhz_Gcc/Obj/WSNEndDevice.o
 .text.appSensorsGot
                0x00000ce0       0x10 EndDevice_Stk600_Atmega128rfa1_8Mhz_Gcc/Obj/WSNEndDevice.o
 .text.appEndDeviceInitialization
                0x00000cf0       0x26 EndDevice_Stk600_Atmega128rfa1_8Mhz_Gcc/Obj/WSNEndDevice.o
 .text.appEndDeviceIdentifyCmdHandler
                0x00000d16       0x12 EndDevice_Stk600_Atmega128rfa1_8Mhz_Gcc/Obj/WSNEndDevice.o
                0x00000d16                appEndDeviceIdentifyCmdHandler
 .text.appEndDeviceNwkInfoCmdHandler
                0x00000d28       0x70 EndDevice_Stk600_Atmega128rfa1_8Mhz_Gcc/Obj/WSNEndDevice.o
                0x00000d28                appEndDeviceNwkInfoCmdHandler
 .text.appEndDeviceGetInterface
                0x00000d98       0x30 EndDevice_Stk600_Atmega128rfa1_8Mhz_Gcc/Obj/WSNEndDevice.o
                0x00000d98                appEndDeviceGetInterface
 .text.appRemoveQueueElement
                0x00000dc8       0x3a EndDevice_Stk600_Atmega128rfa1_8Mhz_Gcc/Obj/WSNMessageSender.o
 .text.msgSenderApsDataConf
                0x00000e02       0x5a EndDevice_Stk600_Atmega128rfa1_8Mhz_Gcc/Obj/WSNMessageSender.o
 .text.appInitMsgSender
                0x00000e5c       0x46 EndDevice_Stk600_Atmega128rfa1_8Mhz_Gcc/Obj/WSNMessageSender.o
                0x00000e5c                appInitMsgSender
 .text.appMsgSender
                0x00000ea2       0xbe EndDevice_Stk600_Atmega128rfa1_8Mhz_Gcc/Obj/WSNMessageSender.o
                0x00000ea2                appMsgSender
 .text.appIsTxQueueFree
                0x00000f60       0x36 EndDevice_Stk600_Atmega128rfa1_8Mhz_Gcc/Obj/WSNMessageSender.o
                0x00000f60                appIsTxQueueFree
 .text.appCreateTxFrame
                0x00000f96       0xa8 EndDevice_Stk600_Atmega128rfa1_8Mhz_Gcc/Obj/WSNMessageSender.o
                0x00000f96                appCreateTxFrame
 .text.appInitCmdHandler
                0x0000103e       0x4c EndDevice_Stk600_Atmega128rfa1_8Mhz_Gcc/Obj/WSNCommandHandler.o
                0x0000103e                appInitCmdHandler
 .text.appCmdHandler
                0x0000108a       0x66 EndDevice_Stk600_Atmega128rfa1_8Mhz_Gcc/Obj/WSNCommandHandler.o
                0x0000108a                appCmdHandler
 .text.appIsCmdQueueFree
                0x000010f0       0x24 EndDevice_Stk600_Atmega128rfa1_8Mhz_Gcc/Obj/WSNCommandHandler.o
                0x000010f0                appIsCmdQueueFree
 .text.appCreateCommand
                0x00001114       0x68 EndDevice_Stk600_Atmega128rfa1_8Mhz_Gcc/Obj/WSNCommandHandler.o
                0x00001114                appCreateCommand
 .text.appPostGlobalTask
                0x0000117c       0x1a EndDevice_Stk600_Atmega128rfa1_8Mhz_Gcc/Obj/WSNDemoApp.o
 .text.appZdpLeaveResp
                0x00001196       0x16 EndDevice_Stk600_Atmega128rfa1_8Mhz_Gcc/Obj/WSNDemoApp.o
 .text.manageBlinkingDuringRejoin
                0x000011ac       0x2e EndDevice_Stk600_Atmega128rfa1_8Mhz_Gcc/Obj/WSNDemoApp.o
 .text.identifyTimerFired
                0x000011da       0x52 EndDevice_Stk600_Atmega128rfa1_8Mhz_Gcc/Obj/WSNDemoApp.o
 .text.appZdoStartNetworkConf
                0x0000122c       0x60 EndDevice_Stk600_Atmega128rfa1_8Mhz_Gcc/Obj/WSNDemoApp.o
 .text.startingNetworkTimerFired
                0x0000128c        0x6 EndDevice_Stk600_Atmega128rfa1_8Mhz_Gcc/Obj/WSNDemoApp.o
 .text.appApsDataIndHandler
                0x00001292       0x2a EndDevice_Stk600_Atmega128rfa1_8Mhz_Gcc/Obj/WSNDemoApp.o
 .text.APL_TaskHandler
                0x000012bc      0x1e6 EndDevice_Stk600_Atmega128rfa1_8Mhz_Gcc/Obj/WSNDemoApp.o
                0x000012bc                APL_TaskHandler
 .text.ZDO_MgmtNwkUpdateNotf
                0x000014a2       0xac EndDevice_Stk600_Atmega128rfa1_8Mhz_Gcc/Obj/WSNDemoApp.o
                0x000014a2                ZDO_MgmtNwkUpdateNotf
 .text.ZDO_WakeUpInd
                0x0000154e       0x10 EndDevice_Stk600_Atmega128rfa1_8Mhz_Gcc/Obj/WSNDemoApp.o
                0x0000154e                ZDO_WakeUpInd
 .text.appReadLqiRssi
                0x0000155e       0x34 EndDevice_Stk600_Atmega128rfa1_8Mhz_Gcc/Obj/WSNDemoApp.o
                0x0000155e                appReadLqiRssi
 .text.appPostSubTaskTask
                0x00001592       0x2c EndDevice_Stk600_Atmega128rfa1_8Mhz_Gcc/Obj/WSNDemoApp.o
                0x00001592                appPostSubTaskTask
 .text.appPostCmdHandlerTask
                0x000015be       0x2c EndDevice_Stk600_Atmega128rfa1_8Mhz_Gcc/Obj/WSNDemoApp.o
                0x000015be                appPostCmdHandlerTask
 .text.appPostMsgSenderTask
                0x000015ea       0x2c EndDevice_Stk600_Atmega128rfa1_8Mhz_Gcc/Obj/WSNDemoApp.o
                0x000015ea                appPostMsgSenderTask
 .text.appLeaveNetwork
                0x00001616       0x14 EndDevice_Stk600_Atmega128rfa1_8Mhz_Gcc/Obj/WSNDemoApp.o
                0x00001616                appLeaveNetwork
 .text.appIsSleepPermitted
                0x0000162a       0x26 EndDevice_Stk600_Atmega128rfa1_8Mhz_Gcc/Obj/WSNDemoApp.o
                0x0000162a                appIsSleepPermitted
 .text.appStartIdentifyVisualization
                0x00001650       0x52 EndDevice_Stk600_Atmega128rfa1_8Mhz_Gcc/Obj/WSNDemoApp.o
                0x00001650                appStartIdentifyVisualization
 .text.appGetCmdDescriptor
                0x000016a2       0x6a EndDevice_Stk600_Atmega128rfa1_8Mhz_Gcc/Obj/WSNDemoApp.o
                0x000016a2                appGetCmdDescriptor
 .text.ZDO_BindIndication
                0x0000170c        0x2 EndDevice_Stk600_Atmega128rfa1_8Mhz_Gcc/Obj/WSNDemoApp.o
                0x0000170c                ZDO_BindIndication
 .text.ZDO_UnbindIndication
                0x0000170e        0x2 EndDevice_Stk600_Atmega128rfa1_8Mhz_Gcc/Obj/WSNDemoApp.o
                0x0000170e                ZDO_UnbindIndication
 .text.pdsDummyCallback
                0x00001710        0x2 EndDevice_Stk600_Atmega128rfa1_8Mhz_Gcc/Obj/pdsWriteData.o
                0x00001710                pdsDummyCallback
 .text.pdsAddDataForCommitment
                0x00001712       0x70 EndDevice_Stk600_Atmega128rfa1_8Mhz_Gcc/Obj/pdsWriteData.o
                0x00001712                pdsAddDataForCommitment
 .text.pdsWaitMemoryFree
                0x00001782       0x10 EndDevice_Stk600_Atmega128rfa1_8Mhz_Gcc/Obj/pdsWriteData.o
                0x00001782                pdsWaitMemoryFree
 .text.pdsRead  0x00001792       0x3e EndDevice_Stk600_Atmega128rfa1_8Mhz_Gcc/Obj/pdsWriteData.o
                0x00001792                pdsRead
 .text.pdsWrite
                0x000017d0       0x3e EndDevice_Stk600_Atmega128rfa1_8Mhz_Gcc/Obj/pdsWriteData.o
                0x000017d0                pdsWrite
 .text.pdsStartCommitment
                0x0000180e      0x1e6 EndDevice_Stk600_Atmega128rfa1_8Mhz_Gcc/Obj/pdsWriteData.o
                0x0000180e                pdsStartCommitment
 .text.pdsMemMaskIsAnyBitSet
                0x000019f4       0x1c EndDevice_Stk600_Atmega128rfa1_8Mhz_Gcc/Obj/pdsDataServer.o
 .text.pdsInitMemMask
                0x00001a10       0x3c EndDevice_Stk600_Atmega128rfa1_8Mhz_Gcc/Obj/pdsDataServer.o
 .text.pdsGetMemoryAllowed
                0x00001a4c       0x38 EndDevice_Stk600_Atmega128rfa1_8Mhz_Gcc/Obj/pdsDataServer.o
 .text.PDS_Store
                0x00001a84       0x14 EndDevice_Stk600_Atmega128rfa1_8Mhz_Gcc/Obj/pdsDataServer.o
                0x00001a84                PDS_Store
 .text.PDS_IsMemoryRestored
                0x00001a98       0x54 EndDevice_Stk600_Atmega128rfa1_8Mhz_Gcc/Obj/pdsDataServer.o
                0x00001a98                PDS_IsMemoryRestored
 .text.PDS_Init
                0x00001aec      0x226 EndDevice_Stk600_Atmega128rfa1_8Mhz_Gcc/Obj/pdsInit.o
                0x00001aec                PDS_Init
 .text.pdsTimerFired
                0x00001d12        0xe EndDevice_Stk600_Atmega128rfa1_8Mhz_Gcc/Obj/pdsTimer.o
 .text.pdsTimerInit
                0x00001d20       0x12 EndDevice_Stk600_Atmega128rfa1_8Mhz_Gcc/Obj/pdsTimer.o
                0x00001d20                pdsTimerInit
 .text.pdsGetFileDescrRec
                0x00001d32       0x66 EndDevice_Stk600_Atmega128rfa1_8Mhz_Gcc/Obj/pdsMemAccess.o
                0x00001d32                pdsGetFileDescrRec
 .text.pdsGetFileOffset
                0x00001d98      0x112 EndDevice_Stk600_Atmega128rfa1_8Mhz_Gcc/Obj/pdsMemAccess.o
                0x00001d98                pdsGetFileOffset
 .text.pdsPrepareMemoryAccess
                0x00001eaa       0xc0 EndDevice_Stk600_Atmega128rfa1_8Mhz_Gcc/Obj/pdsMemAccess.o
                0x00001eaa                pdsPrepareMemoryAccess
 .text.pdsExpandMemoryMask
                0x00001f6a      0x162 EndDevice_Stk600_Atmega128rfa1_8Mhz_Gcc/Obj/pdsMemAccess.o
                0x00001f6a                pdsExpandMemoryMask
 .text.pdsPrepareAccessContext
                0x000020cc       0x40 EndDevice_Stk600_Atmega128rfa1_8Mhz_Gcc/Obj/pdsMemAccess.o
                0x000020cc                pdsPrepareAccessContext
 .text.pdsCalculateRAMDataCrc
                0x0000210c       0x1c EndDevice_Stk600_Atmega128rfa1_8Mhz_Gcc/Obj/pdsCrcService.o
                0x0000210c                pdsCalculateRAMDataCrc
 .text.pdsCheckFile
                0x00002128       0xc8 EndDevice_Stk600_Atmega128rfa1_8Mhz_Gcc/Obj/pdsCrcService.o
                0x00002128                pdsCheckFile
 .text.pdsCheckStorage
                0x000021f0       0x8e EndDevice_Stk600_Atmega128rfa1_8Mhz_Gcc/Obj/pdsCrcService.o
                0x000021f0                pdsCheckStorage
 .text.BSP_OpenTemperatureSensor
                0x0000227e        0x4 EndDevice_Stk600_Atmega128rfa1_8Mhz_Gcc/Obj/fakeBSP.o
                0x0000227e                BSP_OpenTemperatureSensor
 .text.BSP_CloseTemperatureSensor
                0x00002282        0x4 EndDevice_Stk600_Atmega128rfa1_8Mhz_Gcc/Obj/fakeBSP.o
                0x00002282                BSP_CloseTemperatureSensor
 .text.BSP_ReadTemperatureData
                0x00002286       0x2e EndDevice_Stk600_Atmega128rfa1_8Mhz_Gcc/Obj/fakeBSP.o
                0x00002286                BSP_ReadTemperatureData
 .text.bspTemperatureSensorHandler
                0x000022b4       0x12 EndDevice_Stk600_Atmega128rfa1_8Mhz_Gcc/Obj/fakeBSP.o
                0x000022b4                bspTemperatureSensorHandler
 .text.BSP_OpenLightSensor
                0x000022c6        0x4 EndDevice_Stk600_Atmega128rfa1_8Mhz_Gcc/Obj/fakeBSP.o
                0x000022c6                BSP_OpenLightSensor
 .text.BSP_CloseLightSensor
                0x000022ca        0x4 EndDevice_Stk600_Atmega128rfa1_8Mhz_Gcc/Obj/fakeBSP.o
                0x000022ca                BSP_CloseLightSensor
 .text.BSP_ReadLightData
                0x000022ce       0x2e EndDevice_Stk600_Atmega128rfa1_8Mhz_Gcc/Obj/fakeBSP.o
                0x000022ce                BSP_ReadLightData
 .text.bspLightSensorHandler
                0x000022fc       0x12 EndDevice_Stk600_Atmega128rfa1_8Mhz_Gcc/Obj/fakeBSP.o
                0x000022fc                bspLightSensorHandler
 .text.BSP_OpenBatterySensor
                0x0000230e        0x4 EndDevice_Stk600_Atmega128rfa1_8Mhz_Gcc/Obj/fakeBSP.o
                0x0000230e                BSP_OpenBatterySensor
 .text.BSP_CloseBatterySensor
                0x00002312        0x4 EndDevice_Stk600_Atmega128rfa1_8Mhz_Gcc/Obj/fakeBSP.o
                0x00002312                BSP_CloseBatterySensor
 .text.BSP_ReadBatteryData
                0x00002316       0x2e EndDevice_Stk600_Atmega128rfa1_8Mhz_Gcc/Obj/fakeBSP.o
                0x00002316                BSP_ReadBatteryData
 .text.bspEmptyBatteryHandler
                0x00002344       0x10 EndDevice_Stk600_Atmega128rfa1_8Mhz_Gcc/Obj/fakeBSP.o
                0x00002344                bspEmptyBatteryHandler
 .text.bspButtonsHandler
                0x00002354       0x8a EndDevice_Stk600_Atmega128rfa1_8Mhz_Gcc/Obj/buttons.o
                0x00002354                bspButtonsHandler
 .text.BSP_OpenLeds
                0x000023de       0x10 EndDevice_Stk600_Atmega128rfa1_8Mhz_Gcc/Obj/leds.o
                0x000023de                BSP_OpenLeds
 .text.BSP_CloseLeds
                0x000023ee       0x10 EndDevice_Stk600_Atmega128rfa1_8Mhz_Gcc/Obj/leds.o
                0x000023ee                BSP_CloseLeds
 .text.BSP_OnLed
                0x000023fe       0x1a EndDevice_Stk600_Atmega128rfa1_8Mhz_Gcc/Obj/leds.o
                0x000023fe                BSP_OnLed
 .text.BSP_OffLed
                0x00002418       0x1a EndDevice_Stk600_Atmega128rfa1_8Mhz_Gcc/Obj/leds.o
                0x00002418                BSP_OffLed
 .text.BSP_ToggleLed
                0x00002432       0x28 EndDevice_Stk600_Atmega128rfa1_8Mhz_Gcc/Obj/leds.o
                0x00002432                BSP_ToggleLed
 .text.BSP_TaskHandler
                0x0000245a       0x7a EndDevice_Stk600_Atmega128rfa1_8Mhz_Gcc/Obj/bspTaskManager.o
                0x0000245a                BSP_TaskHandler
 .text.csSetToDefault
                0x000024d4       0x88 EndDevice_Stk600_Atmega128rfa1_8Mhz_Gcc/Obj/csMem.o
                0x000024d4                csSetToDefault
 .text.csGetItem
                0x0000255c       0x38 EndDevice_Stk600_Atmega128rfa1_8Mhz_Gcc/Obj/configServer.o
 .text.CS_Init  0x00002594        0xa EndDevice_Stk600_Atmega128rfa1_8Mhz_Gcc/Obj/configServer.o
                0x00002594                CS_Init
 .text.CS_ReadParameter
                0x0000259e       0x36 EndDevice_Stk600_Atmega128rfa1_8Mhz_Gcc/Obj/configServer.o
                0x0000259e                CS_ReadParameter
 .text.CS_WriteParameter
                0x000025d4       0x34 EndDevice_Stk600_Atmega128rfa1_8Mhz_Gcc/Obj/configServer.o
                0x000025d4                CS_WriteParameter
 .text.CS_GetMemory
                0x00002608       0x18 EndDevice_Stk600_Atmega128rfa1_8Mhz_Gcc/Obj/configServer.o
                0x00002608                CS_GetMemory
 .text.HAL_Delay
                0x00002620        0x6 ./../../../../../../Atmel_lib/BitCloud_MEGARF_1_14_0/BitCloud/lib/libHAL_AtmlStk600_Atmega128rfa1_8Mhz_Gcc.a(halDelay.o)
                0x00002620                HAL_Delay
 .text.halAppTimerHandler
                0x00002626       0x8a ./../../../../../../Atmel_lib/BitCloud_MEGARF_1_14_0/BitCloud/lib/libHAL_AtmlStk600_Atmega128rfa1_8Mhz_Gcc.a(appTimer.o)
                0x00002626                halAppTimerHandler
 .text.HAL_StartAppTimer
                0x000026b0       0x58 ./../../../../../../Atmel_lib/BitCloud_MEGARF_1_14_0/BitCloud/lib/libHAL_AtmlStk600_Atmega128rfa1_8Mhz_Gcc.a(appTimer.o)
                0x000026b0                HAL_StartAppTimer
 .text.HAL_StopAppTimer
                0x00002708       0x4a ./../../../../../../Atmel_lib/BitCloud_MEGARF_1_14_0/BitCloud/lib/libHAL_AtmlStk600_Atmega128rfa1_8Mhz_Gcc.a(appTimer.o)
                0x00002708                HAL_StopAppTimer
 .text.HAL_GetSystemTime
                0x00002752       0x4e ./../../../../../../Atmel_lib/BitCloud_MEGARF_1_14_0/BitCloud/lib/libHAL_AtmlStk600_Atmega128rfa1_8Mhz_Gcc.a(appTimer.o)
                0x00002752                HAL_GetSystemTime
 .text.HAL_ReadEeprom
                0x000027a0       0xc8 ./../../../../../../Atmel_lib/BitCloud_MEGARF_1_14_0/BitCloud/lib/libHAL_AtmlStk600_Atmega128rfa1_8Mhz_Gcc.a(eeprom.o)
                0x000027a0                HAL_ReadEeprom
 .text.HAL_WriteEeprom
                0x00002868       0xea ./../../../../../../Atmel_lib/BitCloud_MEGARF_1_14_0/BitCloud/lib/libHAL_AtmlStk600_Atmega128rfa1_8Mhz_Gcc.a(eeprom.o)
                0x00002868                HAL_WriteEeprom
 .text.HAL_IsEepromBusy
                0x00002952        0xe ./../../../../../../Atmel_lib/BitCloud_MEGARF_1_14_0/BitCloud/lib/libHAL_AtmlStk600_Atmega128rfa1_8Mhz_Gcc.a(eeprom.o)
                0x00002952                HAL_IsEepromBusy
 .text.halSigEepromReadyHandler
                0x00002960       0x60 ./../../../../../../Atmel_lib/BitCloud_MEGARF_1_14_0/BitCloud/lib/libHAL_AtmlStk600_Atmega128rfa1_8Mhz_Gcc.a(eeprom.o)
                0x00002960                halSigEepromReadyHandler
 .text.halAddTimer
                0x000029c0      0x370 ./../../../../../../Atmel_lib/BitCloud_MEGARF_1_14_0/BitCloud/lib/libHAL_AtmlStk600_Atmega128rfa1_8Mhz_Gcc.a(timer.o)
                0x000029c0                halAddTimer
 .text.halRemoveTimer
                0x00002d30       0x3e ./../../../../../../Atmel_lib/BitCloud_MEGARF_1_14_0/BitCloud/lib/libHAL_AtmlStk600_Atmega128rfa1_8Mhz_Gcc.a(timer.o)
                0x00002d30                halRemoveTimer
 .text.halFindPrevTimer
                0x00002d6e       0x1e ./../../../../../../Atmel_lib/BitCloud_MEGARF_1_14_0/BitCloud/lib/libHAL_AtmlStk600_Atmega128rfa1_8Mhz_Gcc.a(timer.o)
                0x00002d6e                halFindPrevTimer
 .text.halClearTimeControl
                0x00002d8c       0x14 ./../../../../../../Atmel_lib/BitCloud_MEGARF_1_14_0/BitCloud/lib/libHAL_AtmlStk600_Atmega128rfa1_8Mhz_Gcc.a(halSleepTimerClock.o)
                0x00002d8c                halClearTimeControl
 .text.halWakeupFromIrq
                0x00002da0       0x28 ./../../../../../../Atmel_lib/BitCloud_MEGARF_1_14_0/BitCloud/lib/libHAL_AtmlStk600_Atmega128rfa1_8Mhz_Gcc.a(halSleepTimerClock.o)
                0x00002da0                halWakeupFromIrq
 .text.halStartSleepTimerClock
                0x00002dc8       0x48 ./../../../../../../Atmel_lib/BitCloud_MEGARF_1_14_0/BitCloud/lib/libHAL_AtmlStk600_Atmega128rfa1_8Mhz_Gcc.a(halSleepTimerClock.o)
                0x00002dc8                halStartSleepTimerClock
 .text.halStopSleepTimerClock
                0x00002e10       0x42 ./../../../../../../Atmel_lib/BitCloud_MEGARF_1_14_0/BitCloud/lib/libHAL_AtmlStk600_Atmega128rfa1_8Mhz_Gcc.a(halSleepTimerClock.o)
                0x00002e10                halStopSleepTimerClock
 .text.halSetSleepTimerInterval
                0x00002e52       0x6a ./../../../../../../Atmel_lib/BitCloud_MEGARF_1_14_0/BitCloud/lib/libHAL_AtmlStk600_Atmega128rfa1_8Mhz_Gcc.a(halSleepTimerClock.o)
                0x00002e52                halSetSleepTimerInterval
 .text.halGetTimeOfSleepTimer
                0x00002ebc       0xbc ./../../../../../../Atmel_lib/BitCloud_MEGARF_1_14_0/BitCloud/lib/libHAL_AtmlStk600_Atmega128rfa1_8Mhz_Gcc.a(halSleepTimerClock.o)
                0x00002ebc                halGetTimeOfSleepTimer
 .text.halSleepTimerFrequency
                0x00002f78        0xa ./../../../../../../Atmel_lib/BitCloud_MEGARF_1_14_0/BitCloud/lib/libHAL_AtmlStk600_Atmega128rfa1_8Mhz_Gcc.a(halSleepTimerClock.o)
                0x00002f78                halSleepTimerFrequency
 .text.halSleepSystemTimeSynchronize
                0x00002f82       0x62 ./../../../../../../Atmel_lib/BitCloud_MEGARF_1_14_0/BitCloud/lib/libHAL_AtmlStk600_Atmega128rfa1_8Mhz_Gcc.a(halSleepTimerClock.o)
                0x00002f82                halSleepSystemTimeSynchronize
 .text.__vector_13
                0x00002fe4       0x92 ./../../../../../../Atmel_lib/BitCloud_MEGARF_1_14_0/BitCloud/lib/libHAL_AtmlStk600_Atmega128rfa1_8Mhz_Gcc.a(halSleepTimerClock.o)
                0x00002fe4                __vector_13
 .text.__vector_15
                0x00003076      0x10a ./../../../../../../Atmel_lib/BitCloud_MEGARF_1_14_0/BitCloud/lib/libHAL_AtmlStk600_Atmega128rfa1_8Mhz_Gcc.a(halSleepTimerClock.o)
                0x00003076                __vector_15
 .text.halInitAppClock
                0x00003180       0x26 ./../../../../../../Atmel_lib/BitCloud_MEGARF_1_14_0/BitCloud/lib/libHAL_AtmlStk600_Atmega128rfa1_8Mhz_Gcc.a(halAppClock.o)
                0x00003180                halInitAppClock
 .text.halAdjustSleepInterval
                0x000031a6       0x50 ./../../../../../../Atmel_lib/BitCloud_MEGARF_1_14_0/BitCloud/lib/libHAL_AtmlStk600_Atmega128rfa1_8Mhz_Gcc.a(halAppClock.o)
                0x000031a6                halAdjustSleepInterval
 .text.halAppSystemTimeSynchronize
                0x000031f6       0x62 ./../../../../../../Atmel_lib/BitCloud_MEGARF_1_14_0/BitCloud/lib/libHAL_AtmlStk600_Atmega128rfa1_8Mhz_Gcc.a(halAppClock.o)
                0x000031f6                halAppSystemTimeSynchronize
 .text.halGetTimeOfAppTimer
                0x00003258       0x16 ./../../../../../../Atmel_lib/BitCloud_MEGARF_1_14_0/BitCloud/lib/libHAL_AtmlStk600_Atmega128rfa1_8Mhz_Gcc.a(halAppClock.o)
                0x00003258                halGetTimeOfAppTimer
 .text.__vector_42
                0x0000326e       0x4c ./../../../../../../Atmel_lib/BitCloud_MEGARF_1_14_0/BitCloud/lib/libHAL_AtmlStk600_Atmega128rfa1_8Mhz_Gcc.a(halAppClock.o)
                0x0000326e                __vector_42
 .text.__vector_1
                0x000032ba       0x5a ./../../../../../../Atmel_lib/BitCloud_MEGARF_1_14_0/BitCloud/lib/libHAL_AtmlStk600_Atmega128rfa1_8Mhz_Gcc.a(halIrq.o)
                0x000032ba                __vector_1
 .text.__vector_2
                0x00003314       0x5a ./../../../../../../Atmel_lib/BitCloud_MEGARF_1_14_0/BitCloud/lib/libHAL_AtmlStk600_Atmega128rfa1_8Mhz_Gcc.a(halIrq.o)
                0x00003314                __vector_2
 .text.__vector_3
                0x0000336e       0x5a ./../../../../../../Atmel_lib/BitCloud_MEGARF_1_14_0/BitCloud/lib/libHAL_AtmlStk600_Atmega128rfa1_8Mhz_Gcc.a(halIrq.o)
                0x0000336e                __vector_3
 .text.__vector_4
                0x000033c8       0x5a ./../../../../../../Atmel_lib/BitCloud_MEGARF_1_14_0/BitCloud/lib/libHAL_AtmlStk600_Atmega128rfa1_8Mhz_Gcc.a(halIrq.o)
                0x000033c8                __vector_4
 .text.__vector_5
                0x00003422       0x5a ./../../../../../../Atmel_lib/BitCloud_MEGARF_1_14_0/BitCloud/lib/libHAL_AtmlStk600_Atmega128rfa1_8Mhz_Gcc.a(halIrq.o)
                0x00003422                __vector_5
 .text.__vector_6
                0x0000347c       0x5a ./../../../../../../Atmel_lib/BitCloud_MEGARF_1_14_0/BitCloud/lib/libHAL_AtmlStk600_Atmega128rfa1_8Mhz_Gcc.a(halIrq.o)
                0x0000347c                __vector_6
 .text.__vector_7
                0x000034d6       0x5a ./../../../../../../Atmel_lib/BitCloud_MEGARF_1_14_0/BitCloud/lib/libHAL_AtmlStk600_Atmega128rfa1_8Mhz_Gcc.a(halIrq.o)
                0x000034d6                __vector_7
 .text.__vector_8
                0x00003530       0x5a ./../../../../../../Atmel_lib/BitCloud_MEGARF_1_14_0/BitCloud/lib/libHAL_AtmlStk600_Atmega128rfa1_8Mhz_Gcc.a(halIrq.o)
                0x00003530                __vector_8
 .text.halEepromWrite
                0x0000358a       0x1c ./../../../../../../Atmel_lib/BitCloud_MEGARF_1_14_0/BitCloud/lib/libHAL_AtmlStk600_Atmega128rfa1_8Mhz_Gcc.a(halEeprom.o)
                0x0000358a                halEepromWrite
 .text.__vector_30
                0x000035a6       0x44 ./../../../../../../Atmel_lib/BitCloud_MEGARF_1_14_0/BitCloud/lib/libHAL_AtmlStk600_Atmega128rfa1_8Mhz_Gcc.a(halEeprom.o)
                0x000035a6                __vector_30
 .text.halPowerOn
                0x000035ea       0x3e ./../../../../../../Atmel_lib/BitCloud_MEGARF_1_14_0/BitCloud/lib/libHAL_AtmlStk600_Atmega128rfa1_8Mhz_Gcc.a(halSleep.o)
                0x000035ea                halPowerOn
 .text.halPowerOff
                0x00003628       0x9a ./../../../../../../Atmel_lib/BitCloud_MEGARF_1_14_0/BitCloud/lib/libHAL_AtmlStk600_Atmega128rfa1_8Mhz_Gcc.a(halSleep.o)
                0x00003628                halPowerOff
 .text.HAL_Sleep
                0x000036c2       0x40 ./../../../../../../Atmel_lib/BitCloud_MEGARF_1_14_0/BitCloud/lib/libHAL_AtmlStk600_Atmega128rfa1_8Mhz_Gcc.a(halSleep.o)
                0x000036c2                HAL_Sleep
 .text.halWakeupHandler
                0x00003702       0x6a ./../../../../../../Atmel_lib/BitCloud_MEGARF_1_14_0/BitCloud/lib/libHAL_AtmlStk600_Atmega128rfa1_8Mhz_Gcc.a(halSleep.o)
                0x00003702                halWakeupHandler
 .text.halCalibrateInternalRc
                0x0000376c       0xda ./../../../../../../Atmel_lib/BitCloud_MEGARF_1_14_0/BitCloud/lib/libHAL_AtmlStk600_Atmega128rfa1_8Mhz_Gcc.a(calibration.o)
                0x0000376c                halCalibrateInternalRc
 .text.HAL_CalibrateMainClock
                0x00003846        0xe ./../../../../../../Atmel_lib/BitCloud_MEGARF_1_14_0/BitCloud/lib/libHAL_AtmlStk600_Atmega128rfa1_8Mhz_Gcc.a(calibration.o)
                0x00003846                HAL_CalibrateMainClock
 .text.halStartingCalibrate
                0x00003854       0x1c ./../../../../../../Atmel_lib/BitCloud_MEGARF_1_14_0/BitCloud/lib/libHAL_AtmlStk600_Atmega128rfa1_8Mhz_Gcc.a(calibration.o)
                0x00003854                halStartingCalibrate
 .text.HAL_TaskHandler
                0x00003870      0x1b2 ./../../../../../../Atmel_lib/BitCloud_MEGARF_1_14_0/BitCloud/lib/libHAL_AtmlStk600_Atmega128rfa1_8Mhz_Gcc.a(halTaskManager.o)
                0x00003870                HAL_TaskHandler
 .text.halUsartHwController
                0x00003a22       0x9a ./../../../../../../Atmel_lib/BitCloud_MEGARF_1_14_0/BitCloud/lib/libHAL_AtmlStk600_Atmega128rfa1_8Mhz_Gcc.a(usart.o)
 .text.halSigUsartReceptionComplete
                0x00003abc       0x54 ./../../../../../../Atmel_lib/BitCloud_MEGARF_1_14_0/BitCloud/lib/libHAL_AtmlStk600_Atmega128rfa1_8Mhz_Gcc.a(usart.o)
 .text.halUsartTaskUsart0Dre
                0x00003b10        0x8 ./../../../../../../Atmel_lib/BitCloud_MEGARF_1_14_0/BitCloud/lib/libHAL_AtmlStk600_Atmega128rfa1_8Mhz_Gcc.a(usart.o)
 .text.halUsartTaskUsart0Rxc
                0x00003b18        0x8 ./../../../../../../Atmel_lib/BitCloud_MEGARF_1_14_0/BitCloud/lib/libHAL_AtmlStk600_Atmega128rfa1_8Mhz_Gcc.a(usart.o)
 .text.halUsartTaskUsart1Dre
                0x00003b20        0x8 ./../../../../../../Atmel_lib/BitCloud_MEGARF_1_14_0/BitCloud/lib/libHAL_AtmlStk600_Atmega128rfa1_8Mhz_Gcc.a(usart.o)
 .text.halUsartTaskUsart1Rxc
                0x00003b28        0x8 ./../../../../../../Atmel_lib/BitCloud_MEGARF_1_14_0/BitCloud/lib/libHAL_AtmlStk600_Atmega128rfa1_8Mhz_Gcc.a(usart.o)
 .text.halSigUsartHandler
                0x00003b30       0x6e ./../../../../../../Atmel_lib/BitCloud_MEGARF_1_14_0/BitCloud/lib/libHAL_AtmlStk600_Atmega128rfa1_8Mhz_Gcc.a(usart.o)
                0x00003b30                halSigUsartHandler
 .text.halPostUsartTask
                0x00003b9e       0x3c ./../../../../../../Atmel_lib/BitCloud_MEGARF_1_14_0/BitCloud/lib/libHAL_AtmlStk600_Atmega128rfa1_8Mhz_Gcc.a(usart.o)
                0x00003b9e                halPostUsartTask
 .text.halUsartRxBufferFiller
                0x00003bda       0xa4 ./../../../../../../Atmel_lib/BitCloud_MEGARF_1_14_0/BitCloud/lib/libHAL_AtmlStk600_Atmega128rfa1_8Mhz_Gcc.a(usart.o)
                0x00003bda                halUsartRxBufferFiller
 .text.halSigUsartTransmissionComplete
                0x00003c7e       0x68 ./../../../../../../Atmel_lib/BitCloud_MEGARF_1_14_0/BitCloud/lib/libHAL_AtmlStk600_Atmega128rfa1_8Mhz_Gcc.a(usart.o)
                0x00003c7e                halSigUsartTransmissionComplete
 .text.halUsartTaskUsart1Txc
                0x00003ce6        0x8 ./../../../../../../Atmel_lib/BitCloud_MEGARF_1_14_0/BitCloud/lib/libHAL_AtmlStk600_Atmega128rfa1_8Mhz_Gcc.a(usart.o)
 .text.halUsartTaskUsart0Txc
                0x00003cee        0x8 ./../../../../../../Atmel_lib/BitCloud_MEGARF_1_14_0/BitCloud/lib/libHAL_AtmlStk600_Atmega128rfa1_8Mhz_Gcc.a(usart.o)
 .text.halI2cBusReset
                0x00003cf6       0x36 ./../../../../../../Atmel_lib/BitCloud_MEGARF_1_14_0/BitCloud/lib/libHAL_AtmlStk600_Atmega128rfa1_8Mhz_Gcc.a(i2cPacket.o)
                0x00003cf6                halI2cBusReset
 .text.halSendStartDoneI2c
                0x00003d2c       0x3e ./../../../../../../Atmel_lib/BitCloud_MEGARF_1_14_0/BitCloud/lib/libHAL_AtmlStk600_Atmega128rfa1_8Mhz_Gcc.a(i2cPacket.o)
                0x00003d2c                halSendStartDoneI2c
 .text.halWriteData
                0x00003d6a       0x64 ./../../../../../../Atmel_lib/BitCloud_MEGARF_1_14_0/BitCloud/lib/libHAL_AtmlStk600_Atmega128rfa1_8Mhz_Gcc.a(i2cPacket.o)
                0x00003d6a                halWriteData
 .text.halWriteInternalAddress
                0x00003dce       0x5c ./../../../../../../Atmel_lib/BitCloud_MEGARF_1_14_0/BitCloud/lib/libHAL_AtmlStk600_Atmega128rfa1_8Mhz_Gcc.a(i2cPacket.o)
                0x00003dce                halWriteInternalAddress
 .text.halWriteDoneI2c
                0x00003e2a       0x3a ./../../../../../../Atmel_lib/BitCloud_MEGARF_1_14_0/BitCloud/lib/libHAL_AtmlStk600_Atmega128rfa1_8Mhz_Gcc.a(i2cPacket.o)
                0x00003e2a                halWriteDoneI2c
 .text.halMasterReadWriteAddressAckI2c
                0x00003e64       0x3c ./../../../../../../Atmel_lib/BitCloud_MEGARF_1_14_0/BitCloud/lib/libHAL_AtmlStk600_Atmega128rfa1_8Mhz_Gcc.a(i2cPacket.o)
                0x00003e64                halMasterReadWriteAddressAckI2c
 .text.halReadDoneI2c
                0x00003ea0       0x58 ./../../../../../../Atmel_lib/BitCloud_MEGARF_1_14_0/BitCloud/lib/libHAL_AtmlStk600_Atmega128rfa1_8Mhz_Gcc.a(i2cPacket.o)
                0x00003ea0                halReadDoneI2c
 .text.halReadLastByteDoneI2c
                0x00003ef8       0x58 ./../../../../../../Atmel_lib/BitCloud_MEGARF_1_14_0/BitCloud/lib/libHAL_AtmlStk600_Atmega128rfa1_8Mhz_Gcc.a(i2cPacket.o)
                0x00003ef8                halReadLastByteDoneI2c
 .text.halSig2WireSerialHandler
                0x00003f50       0x46 ./../../../../../../Atmel_lib/BitCloud_MEGARF_1_14_0/BitCloud/lib/libHAL_AtmlStk600_Atmega128rfa1_8Mhz_Gcc.a(i2cPacket.o)
                0x00003f50                halSig2WireSerialHandler
 .text.halSigAdcHandler
                0x00003f96       0x16 ./../../../../../../Atmel_lib/BitCloud_MEGARF_1_14_0/BitCloud/lib/libHAL_AtmlStk600_Atmega128rfa1_8Mhz_Gcc.a(adc.o)
                0x00003f96                halSigAdcHandler
 .text.halClearRealSpi
                0x00003fac        0x8 ./../../../../../../Atmel_lib/BitCloud_MEGARF_1_14_0/BitCloud/lib/libHAL_AtmlStk600_Atmega128rfa1_8Mhz_Gcc.a(spi.o)
 .text.halSpiTxByteComplete
                0x00003fb4       0x32 ./../../../../../../Atmel_lib/BitCloud_MEGARF_1_14_0/BitCloud/lib/libHAL_AtmlStk600_Atmega128rfa1_8Mhz_Gcc.a(spi.o)
                0x00003fb4                halSpiTxByteComplete
 .text.halSpiRxBufferFiller
                0x00003fe6       0x58 ./../../../../../../Atmel_lib/BitCloud_MEGARF_1_14_0/BitCloud/lib/libHAL_AtmlStk600_Atmega128rfa1_8Mhz_Gcc.a(spi.o)
                0x00003fe6                halSpiRxBufferFiller
 .text.halSpiRxByteComplete
                0x0000403e       0x24 ./../../../../../../Atmel_lib/BitCloud_MEGARF_1_14_0/BitCloud/lib/libHAL_AtmlStk600_Atmega128rfa1_8Mhz_Gcc.a(spi.o)
                0x0000403e                halSpiRxByteComplete
 .text.HAL_StartSystemSleep
                0x00004062       0x7a ./../../../../../../Atmel_lib/BitCloud_MEGARF_1_14_0/BitCloud/lib/libHAL_AtmlStk600_Atmega128rfa1_8Mhz_Gcc.a(sleep.o)
                0x00004062                HAL_StartSystemSleep
 .text.halSmRequestHandler
                0x000040dc      0x15c ./../../../../../../Atmel_lib/BitCloud_MEGARF_1_14_0/BitCloud/lib/libHAL_AtmlStk600_Atmega128rfa1_8Mhz_Gcc.a(halSecurityModule.o)
                0x000040dc                halSmRequestHandler
 .text.halInitFreq
                0x00004238       0x6c ./../../../../../../Atmel_lib/BitCloud_MEGARF_1_14_0/BitCloud/lib/libHAL_AtmlStk600_Atmega128rfa1_8Mhz_Gcc.a(halClkCtrl.o)
                0x00004238                halInitFreq
 .text.halGetClockSource
                0x000042a4        0x6 ./../../../../../../Atmel_lib/BitCloud_MEGARF_1_14_0/BitCloud/lib/libHAL_AtmlStk600_Atmega128rfa1_8Mhz_Gcc.a(halClkCtrl.o)
                0x000042a4                halGetClockSource
 .text.__vector_26
                0x000042aa       0x5c ./../../../../../../Atmel_lib/BitCloud_MEGARF_1_14_0/BitCloud/lib/libHAL_AtmlStk600_Atmega128rfa1_8Mhz_Gcc.a(halUsart.o)
                0x000042aa                __vector_26
 .text.__vector_27
                0x00004306       0x5c ./../../../../../../Atmel_lib/BitCloud_MEGARF_1_14_0/BitCloud/lib/libHAL_AtmlStk600_Atmega128rfa1_8Mhz_Gcc.a(halUsart.o)
                0x00004306                __vector_27
 .text.__vector_25
                0x00004362       0x64 ./../../../../../../Atmel_lib/BitCloud_MEGARF_1_14_0/BitCloud/lib/libHAL_AtmlStk600_Atmega128rfa1_8Mhz_Gcc.a(halUsart.o)
                0x00004362                __vector_25
 .text.__vector_37
                0x000043c6       0x5c ./../../../../../../Atmel_lib/BitCloud_MEGARF_1_14_0/BitCloud/lib/libHAL_AtmlStk600_Atmega128rfa1_8Mhz_Gcc.a(halUsart.o)
                0x000043c6                __vector_37
 .text.__vector_38
                0x00004422       0x5c ./../../../../../../Atmel_lib/BitCloud_MEGARF_1_14_0/BitCloud/lib/libHAL_AtmlStk600_Atmega128rfa1_8Mhz_Gcc.a(halUsart.o)
                0x00004422                __vector_38
 .text.__vector_36
                0x0000447e       0x64 ./../../../../../../Atmel_lib/BitCloud_MEGARF_1_14_0/BitCloud/lib/libHAL_AtmlStk600_Atmega128rfa1_8Mhz_Gcc.a(halUsart.o)
                0x0000447e                __vector_36
 .text.__vector_39
                0x000044e2       0xda ./../../../../../../Atmel_lib/BitCloud_MEGARF_1_14_0/BitCloud/lib/libHAL_AtmlStk600_Atmega128rfa1_8Mhz_Gcc.a(halTwi.o)
                0x000044e2                __vector_39
 .text.__vector_29
                0x000045bc       0xcc ./../../../../../../Atmel_lib/BitCloud_MEGARF_1_14_0/BitCloud/lib/libHAL_AtmlStk600_Atmega128rfa1_8Mhz_Gcc.a(halAdc.o)
                0x000045bc                __vector_29
 .text.__vector_24
                0x00004688       0x8c ./../../../../../../Atmel_lib/BitCloud_MEGARF_1_14_0/BitCloud/lib/libHAL_AtmlStk600_Atmega128rfa1_8Mhz_Gcc.a(halSpi.o)
                0x00004688                __vector_24
 .text.HAL_StartSleepTimer
                0x00004714       0x72 ./../../../../../../Atmel_lib/BitCloud_MEGARF_1_14_0/BitCloud/lib/libHAL_AtmlStk600_Atmega128rfa1_8Mhz_Gcc.a(sleepTimer.o)
                0x00004714                HAL_StartSleepTimer
 .text.halAsyncTimerHandler
                0x00004786       0x52 ./../../../../../../Atmel_lib/BitCloud_MEGARF_1_14_0/BitCloud/lib/libHAL_AtmlStk600_Atmega128rfa1_8Mhz_Gcc.a(sleepTimer.o)
                0x00004786                halAsyncTimerHandler
 .text.apsGetApsCounter
                0x000047d8        0xe ./../../../../../../Atmel_lib/BitCloud_MEGARF_1_14_0/BitCloud/lib/libBc_EndDevice_Atmega128rfa1_Atmega128rfa1_Gcc.a(aps.o)
 .text.apsPrepareFragmentedTransmission
                0x000047e6       0x70 ./../../../../../../Atmel_lib/BitCloud_MEGARF_1_14_0/BitCloud/lib/libBc_EndDevice_Atmega128rfa1_Atmega128rfa1_Gcc.a(aps.o)
 .text.apsIsFragmentationDataReq
                0x00004856       0x22 ./../../../../../../Atmel_lib/BitCloud_MEGARF_1_14_0/BitCloud/lib/libBc_EndDevice_Atmega128rfa1_Atmega128rfa1_Gcc.a(aps.o)
 .text.apsGetBuffer
                0x00004878       0xd6 ./../../../../../../Atmel_lib/BitCloud_MEGARF_1_14_0/BitCloud/lib/libBc_EndDevice_Atmega128rfa1_Atmega128rfa1_Gcc.a(aps.o)
 .text.apsFreeBuffer
                0x0000494e       0x8e ./../../../../../../Atmel_lib/BitCloud_MEGARF_1_14_0/BitCloud/lib/libBc_EndDevice_Atmega128rfa1_Atmega128rfa1_Gcc.a(aps.o)
 .text.apsPostTask
                0x000049dc       0x32 ./../../../../../../Atmel_lib/BitCloud_MEGARF_1_14_0/BitCloud/lib/libBc_EndDevice_Atmega128rfa1_Atmega128rfa1_Gcc.a(aps.o)
 .text.apsMakeApsDataConf
                0x00004a0e       0x5a ./../../../../../../Atmel_lib/BitCloud_MEGARF_1_14_0/BitCloud/lib/libBc_EndDevice_Atmega128rfa1_Atmega128rfa1_Gcc.a(aps.o)
 .text.apsAckForFragmentedReceiveConfirmHandler
                0x00004a68       0x9e ./../../../../../../Atmel_lib/BitCloud_MEGARF_1_14_0/BitCloud/lib/libBc_EndDevice_Atmega128rfa1_Atmega128rfa1_Gcc.a(aps.o)
 .text.apsStopConf
                0x00004b06       0x4a ./../../../../../../Atmel_lib/BitCloud_MEGARF_1_14_0/BitCloud/lib/libBc_EndDevice_Atmega128rfa1_Atmega128rfa1_Gcc.a(aps.o)
 .text.apsSendNwkDataReq
                0x00004b50       0x10 ./../../../../../../Atmel_lib/BitCloud_MEGARF_1_14_0/BitCloud/lib/libBc_EndDevice_Atmega128rfa1_Atmega128rfa1_Gcc.a(aps.o)
 .text.apsProcessShortAddrModeDataReq
                0x00004b60      0x296 ./../../../../../../Atmel_lib/BitCloud_MEGARF_1_14_0/BitCloud/lib/libBc_EndDevice_Atmega128rfa1_Atmega128rfa1_Gcc.a(aps.o)
 .text.apsSendNextBlock
                0x00004df6       0x14 ./../../../../../../Atmel_lib/BitCloud_MEGARF_1_14_0/BitCloud/lib/libBc_EndDevice_Atmega128rfa1_Atmega128rfa1_Gcc.a(aps.o)
 .text.apsSendAckForFragmentedReceive
                0x00004e0a       0xce ./../../../../../../Atmel_lib/BitCloud_MEGARF_1_14_0/BitCloud/lib/libBc_EndDevice_Atmega128rfa1_Atmega128rfa1_Gcc.a(aps.o)
 .text.apsDataManagerNwkDataConf
                0x00004ed8       0x1c ./../../../../../../Atmel_lib/BitCloud_MEGARF_1_14_0/BitCloud/lib/libBc_EndDevice_Atmega128rfa1_Atmega128rfa1_Gcc.a(aps.o)
 .text.apsProcessEvent
                0x00004ef4       0x26 ./../../../../../../Atmel_lib/BitCloud_MEGARF_1_14_0/BitCloud/lib/libBc_EndDevice_Atmega128rfa1_Atmega128rfa1_Gcc.a(aps.o)
 .text.apsProcessGroupAddrModeDataReq
                0x00004f1a      0x190 ./../../../../../../Atmel_lib/BitCloud_MEGARF_1_14_0/BitCloud/lib/libBc_EndDevice_Atmega128rfa1_Atmega128rfa1_Gcc.a(aps.o)
 .text.apsCalculateApsAckTimeout
                0x000050aa       0x56 ./../../../../../../Atmel_lib/BitCloud_MEGARF_1_14_0/BitCloud/lib/libBc_EndDevice_Atmega128rfa1_Atmega128rfa1_Gcc.a(aps.o)
 .text.apsGroupNwkDataConf
                0x00005100       0x4a ./../../../../../../Atmel_lib/BitCloud_MEGARF_1_14_0/BitCloud/lib/libBc_EndDevice_Atmega128rfa1_Atmega128rfa1_Gcc.a(aps.o)
 .text.apsNextBind
                0x0000514a       0xb0 ./../../../../../../Atmel_lib/BitCloud_MEGARF_1_14_0/BitCloud/lib/libBc_EndDevice_Atmega128rfa1_Atmega128rfa1_Gcc.a(aps.o)
 .text.apsSendToNextBoundDevice
                0x000051fa       0x9c ./../../../../../../Atmel_lib/BitCloud_MEGARF_1_14_0/BitCloud/lib/libBc_EndDevice_Atmega128rfa1_Atmega128rfa1_Gcc.a(aps.o)
 .text.apsProcessIndirectDataReq
                0x00005296       0x2c ./../../../../../../Atmel_lib/BitCloud_MEGARF_1_14_0/BitCloud/lib/libBc_EndDevice_Atmega128rfa1_Atmega128rfa1_Gcc.a(aps.o)
 .text.apsFindBindingEntry
                0x000052c2       0xc6 ./../../../../../../Atmel_lib/BitCloud_MEGARF_1_14_0/BitCloud/lib/libBc_EndDevice_Atmega128rfa1_Atmega128rfa1_Gcc.a(aps.o)
 .text.SYS_GetRandomNumber
                0x00005388       0x2a ./../../../../../../Atmel_lib/BitCloud_MEGARF_1_14_0/BitCloud/lib/libBc_EndDevice_Atmega128rfa1_Atmega128rfa1_Gcc.a(aps.o)
 .text.apsResetMemoryManager
                0x000053b2       0xfa ./../../../../../../Atmel_lib/BitCloud_MEGARF_1_14_0/BitCloud/lib/libBc_EndDevice_Atmega128rfa1_Atmega128rfa1_Gcc.a(aps.o)
 .text.apsAckOnTimerFired
                0x000054ac       0xf8 ./../../../../../../Atmel_lib/BitCloud_MEGARF_1_14_0/BitCloud/lib/libBc_EndDevice_Atmega128rfa1_Atmega128rfa1_Gcc.a(aps.o)
 .text.apsHandleTransmittedData.clone.10
                0x000055a4       0x6e ./../../../../../../Atmel_lib/BitCloud_MEGARF_1_14_0/BitCloud/lib/libBc_EndDevice_Atmega128rfa1_Atmega128rfa1_Gcc.a(aps.o)
 .text.APS_BindReq
                0x00005612       0xa6 ./../../../../../../Atmel_lib/BitCloud_MEGARF_1_14_0/BitCloud/lib/libBc_EndDevice_Atmega128rfa1_Atmega128rfa1_Gcc.a(aps.o)
                0x00005612                APS_BindReq
 .text.APS_UnbindReq
                0x000056b8       0x4a ./../../../../../../Atmel_lib/BitCloud_MEGARF_1_14_0/BitCloud/lib/libBc_EndDevice_Atmega128rfa1_Atmega128rfa1_Gcc.a(aps.o)
                0x000056b8                APS_UnbindReq
 .text.APS_DataReq
                0x00005702       0x12 ./../../../../../../Atmel_lib/BitCloud_MEGARF_1_14_0/BitCloud/lib/libBc_EndDevice_Atmega128rfa1_Atmega128rfa1_Gcc.a(aps.o)
                0x00005702                APS_DataReq
 .text.NWK_DataInd
                0x00005714       0x12 ./../../../../../../Atmel_lib/BitCloud_MEGARF_1_14_0/BitCloud/lib/libBc_EndDevice_Atmega128rfa1_Atmega128rfa1_Gcc.a(aps.o)
                0x00005714                NWK_DataInd
 .text.APS_CalculateTimes
                0x00005726      0x1b2 ./../../../../../../Atmel_lib/BitCloud_MEGARF_1_14_0/BitCloud/lib/libBc_EndDevice_Atmega128rfa1_Atmega128rfa1_Gcc.a(aps.o)
                0x00005726                APS_CalculateTimes
 .text.apsResetDataManager
                0x000058d8      0x110 ./../../../../../../Atmel_lib/BitCloud_MEGARF_1_14_0/BitCloud/lib/libBc_EndDevice_Atmega128rfa1_Atmega128rfa1_Gcc.a(aps.o)
 .text.apsNwkResetConf
                0x000059e8      0x196 ./../../../../../../Atmel_lib/BitCloud_MEGARF_1_14_0/BitCloud/lib/libBc_EndDevice_Atmega128rfa1_Atmega128rfa1_Gcc.a(aps.o)
 .text.apsStateMachineTaskHandler
                0x00005b7e       0xee ./../../../../../../Atmel_lib/BitCloud_MEGARF_1_14_0/BitCloud/lib/libBc_EndDevice_Atmega128rfa1_Atmega128rfa1_Gcc.a(aps.o)
 .text.APS_IsProfileIdMatched
                0x00005c6c       0x22 ./../../../../../../Atmel_lib/BitCloud_MEGARF_1_14_0/BitCloud/lib/libBc_EndDevice_Atmega128rfa1_Atmega128rfa1_Gcc.a(aps.o)
                0x00005c6c                APS_IsProfileIdMatched
 .text.APS_NextEndpoint
                0x00005c8e       0x16 ./../../../../../../Atmel_lib/BitCloud_MEGARF_1_14_0/BitCloud/lib/libBc_EndDevice_Atmega128rfa1_Atmega128rfa1_Gcc.a(aps.o)
                0x00005c8e                APS_NextEndpoint
 .text.apsFindEndpoint
                0x00005ca4       0x26 ./../../../../../../Atmel_lib/BitCloud_MEGARF_1_14_0/BitCloud/lib/libBc_EndDevice_Atmega128rfa1_Atmega128rfa1_Gcc.a(aps.o)
 .text.APS_RegisterEndpointReq
                0x00005cca       0x48 ./../../../../../../Atmel_lib/BitCloud_MEGARF_1_14_0/BitCloud/lib/libBc_EndDevice_Atmega128rfa1_Atmega128rfa1_Gcc.a(aps.o)
                0x00005cca                APS_RegisterEndpointReq
 .text.apsGroupIndication
                0x00005d12       0x8a ./../../../../../../Atmel_lib/BitCloud_MEGARF_1_14_0/BitCloud/lib/libBc_EndDevice_Atmega128rfa1_Atmega128rfa1_Gcc.a(aps.o)
 .text.apsUnicastDataInd
                0x00005d9c      0x2a2 ./../../../../../../Atmel_lib/BitCloud_MEGARF_1_14_0/BitCloud/lib/libBc_EndDevice_Atmega128rfa1_Atmega128rfa1_Gcc.a(aps.o)
 .text.apsApduUnicastHandler.clone.8
                0x0000603e      0x5dc ./../../../../../../Atmel_lib/BitCloud_MEGARF_1_14_0/BitCloud/lib/libBc_EndDevice_Atmega128rfa1_Atmega128rfa1_Gcc.a(aps.o)
 .text.apsDataTaskHandler
                0x0000661a      0xb20 ./../../../../../../Atmel_lib/BitCloud_MEGARF_1_14_0/BitCloud/lib/libBc_EndDevice_Atmega128rfa1_Atmega128rfa1_Gcc.a(aps.o)
 .text.APS_Init
                0x0000713a       0x2e ./../../../../../../Atmel_lib/BitCloud_MEGARF_1_14_0/BitCloud/lib/libBc_EndDevice_Atmega128rfa1_Atmega128rfa1_Gcc.a(aps.o)
                0x0000713a                APS_Init
 .text.APS_ResetReq
                0x00007168        0xc ./../../../../../../Atmel_lib/BitCloud_MEGARF_1_14_0/BitCloud/lib/libBc_EndDevice_Atmega128rfa1_Atmega128rfa1_Gcc.a(aps.o)
                0x00007168                APS_ResetReq
 .text.APS_StartReq
                0x00007174        0xc ./../../../../../../Atmel_lib/BitCloud_MEGARF_1_14_0/BitCloud/lib/libBc_EndDevice_Atmega128rfa1_Atmega128rfa1_Gcc.a(aps.o)
                0x00007174                APS_StartReq
 .text.APS_StopReq
                0x00007180        0xc ./../../../../../../Atmel_lib/BitCloud_MEGARF_1_14_0/BitCloud/lib/libBc_EndDevice_Atmega128rfa1_Atmega128rfa1_Gcc.a(aps.o)
                0x00007180                APS_StopReq
 .text.APS_IsActiveTransaction
                0x0000718c       0x54 ./../../../../../../Atmel_lib/BitCloud_MEGARF_1_14_0/BitCloud/lib/libBc_EndDevice_Atmega128rfa1_Atmega128rfa1_Gcc.a(aps.o)
                0x0000718c                APS_IsActiveTransaction
 .text.APS_TaskHandler
                0x000071e0       0x9c ./../../../../../../Atmel_lib/BitCloud_MEGARF_1_14_0/BitCloud/lib/libBc_EndDevice_Atmega128rfa1_Atmega128rfa1_Gcc.a(aps.o)
                0x000071e0                APS_TaskHandler
 .text.getSymbolsPerOctet
                0x0000727c       0x3c ./../../../../../../Atmel_lib/BitCloud_MEGARF_1_14_0/BitCloud/lib/libBc_EndDevice_Atmega128rfa1_Atmega128rfa1_Gcc.a(macenvPib.o)
 .text.calculateMaxFrameDuration
                0x000072b8       0x22 ./../../../../../../Atmel_lib/BitCloud_MEGARF_1_14_0/BitCloud/lib/libBc_EndDevice_Atmega128rfa1_Atmega128rfa1_Gcc.a(macenvPib.o)
 .text.storeTransmitPower
                0x000072da       0x44 ./../../../../../../Atmel_lib/BitCloud_MEGARF_1_14_0/BitCloud/lib/libBc_EndDevice_Atmega128rfa1_Atmega128rfa1_Gcc.a(macenvPib.o)
 .text.macenvGetPhySymbolDuration
                0x0000731e       0x4a ./../../../../../../Atmel_lib/BitCloud_MEGARF_1_14_0/BitCloud/lib/libBc_EndDevice_Atmega128rfa1_Atmega128rfa1_Gcc.a(macenvPib.o)
                0x0000731e                macenvGetPhySymbolDuration
 .text.updateMaxFrameTxTime
                0x00007368       0x3a ./../../../../../../Atmel_lib/BitCloud_MEGARF_1_14_0/BitCloud/lib/libBc_EndDevice_Atmega128rfa1_Atmega128rfa1_Gcc.a(macenvPib.o)
 .text.macenvSetPibAttr
                0x000073a2      0x222 ./../../../../../../Atmel_lib/BitCloud_MEGARF_1_14_0/BitCloud/lib/libBc_EndDevice_Atmega128rfa1_Atmega128rfa1_Gcc.a(macenvPib.o)
                0x000073a2                macenvSetPibAttr
 .text.macenvResetPib
                0x000075c4       0xec ./../../../../../../Atmel_lib/BitCloud_MEGARF_1_14_0/BitCloud/lib/libBc_EndDevice_Atmega128rfa1_Atmega128rfa1_Gcc.a(macenvPib.o)
                0x000075c4                macenvResetPib
 .text.macenvCalculateMaxFrameTotalWaitTimeInMs
                0x000076b0      0x128 ./../../../../../../Atmel_lib/BitCloud_MEGARF_1_14_0/BitCloud/lib/libBc_EndDevice_Atmega128rfa1_Atmega128rfa1_Gcc.a(macenvPib.o)
                0x000076b0                macenvCalculateMaxFrameTotalWaitTimeInMs
 .text.macenvCalculateResponceWaitTimeInMs
                0x000077d8       0x42 ./../../../../../../Atmel_lib/BitCloud_MEGARF_1_14_0/BitCloud/lib/libBc_EndDevice_Atmega128rfa1_Atmega128rfa1_Gcc.a(macenvPib.o)
                0x000077d8                macenvCalculateResponceWaitTimeInMs
 .text.macenvGetPibAttr
                0x0000781a      0x16e ./../../../../../../Atmel_lib/BitCloud_MEGARF_1_14_0/BitCloud/lib/libBc_EndDevice_Atmega128rfa1_Atmega128rfa1_Gcc.a(macenvPib.o)
                0x0000781a                macenvGetPibAttr
 .text.MAC_GetExtAddr
                0x00007988        0x6 ./../../../../../../Atmel_lib/BitCloud_MEGARF_1_14_0/BitCloud/lib/libBc_EndDevice_Atmega128rfa1_Atmega128rfa1_Gcc.a(macenvPib.o)
                0x00007988                MAC_GetExtAddr
 .text.MAC_SetExtAddr
                0x0000798e       0x34 ./../../../../../../Atmel_lib/BitCloud_MEGARF_1_14_0/BitCloud/lib/libBc_EndDevice_Atmega128rfa1_Atmega128rfa1_Gcc.a(macenvPib.o)
                0x0000798e                MAC_SetExtAddr
 .text.MAC_IsOwnExtAddr
                0x000079c2       0x1c ./../../../../../../Atmel_lib/BitCloud_MEGARF_1_14_0/BitCloud/lib/libBc_EndDevice_Atmega128rfa1_Atmega128rfa1_Gcc.a(macenvPib.o)
                0x000079c2                MAC_IsOwnExtAddr
 .text.MAC_GetOctetsTransmissionTimeInMs
                0x000079de       0x5e ./../../../../../../Atmel_lib/BitCloud_MEGARF_1_14_0/BitCloud/lib/libBc_EndDevice_Atmega128rfa1_Atmega128rfa1_Gcc.a(macenvPib.o)
                0x000079de                MAC_GetOctetsTransmissionTimeInMs
 .text.nwkBroadcastForMe
                0x00007a3c       0x60 ./../../../../../../Atmel_lib/BitCloud_MEGARF_1_14_0/BitCloud/lib/libBc_EndDevice_Atmega128rfa1_Atmega128rfa1_Gcc.a(nwk.o)
 .text.nwkAddressConflictIsIdle
                0x00007a9c        0xe ./../../../../../../Atmel_lib/BitCloud_MEGARF_1_14_0/BitCloud/lib/libBc_EndDevice_Atmega128rfa1_Atmega128rfa1_Gcc.a(nwk.o)
 .text.nwkFindAddressMapEntryByShortAddr
                0x00007aaa       0x30 ./../../../../../../Atmel_lib/BitCloud_MEGARF_1_14_0/BitCloud/lib/libBc_EndDevice_Atmega128rfa1_Atmega128rfa1_Gcc.a(nwk.o)
 .text.nwkDataReqIsIdle
                0x00007ada        0xe ./../../../../../../Atmel_lib/BitCloud_MEGARF_1_14_0/BitCloud/lib/libBc_EndDevice_Atmega128rfa1_Atmega128rfa1_Gcc.a(nwk.o)
 .text.nwkDiscoveryIsIdle
                0x00007ae8        0xe ./../../../../../../Atmel_lib/BitCloud_MEGARF_1_14_0/BitCloud/lib/libBc_EndDevice_Atmega128rfa1_Atmega128rfa1_Gcc.a(nwk.o)
 .text.nwkEDScanIsIdle
                0x00007af6        0xe ./../../../../../../Atmel_lib/BitCloud_MEGARF_1_14_0/BitCloud/lib/libBc_EndDevice_Atmega128rfa1_Atmega128rfa1_Gcc.a(nwk.o)
 .text.nwkUpdateBeaconPayload
                0x00007b04      0x120 ./../../../../../../Atmel_lib/BitCloud_MEGARF_1_14_0/BitCloud/lib/libBc_EndDevice_Atmega128rfa1_Atmega128rfa1_Gcc.a(nwk.o)
 .text.nwkSetDepth
                0x00007c24        0xc ./../../../../../../Atmel_lib/BitCloud_MEGARF_1_14_0/BitCloud/lib/libBc_EndDevice_Atmega128rfa1_Atmega128rfa1_Gcc.a(nwk.o)
 .text.nwkJoinReqIsIdle
                0x00007c30        0xe ./../../../../../../Atmel_lib/BitCloud_MEGARF_1_14_0/BitCloud/lib/libBc_EndDevice_Atmega128rfa1_Atmega128rfa1_Gcc.a(nwk.o)
 .text.nwkLoopbackIsIdle
                0x00007c3e        0xe ./../../../../../../Atmel_lib/BitCloud_MEGARF_1_14_0/BitCloud/lib/libBc_EndDevice_Atmega128rfa1_Atmega128rfa1_Gcc.a(nwk.o)
 .text.nwkCostFromLqi
                0x00007c4c       0x3a ./../../../../../../Atmel_lib/BitCloud_MEGARF_1_14_0/BitCloud/lib/libBc_EndDevice_Atmega128rfa1_Atmega128rfa1_Gcc.a(nwk.o)
 .text.nwkUpdateLqiAndCostOfNeighbor
                0x00007c86       0x88 ./../../../../../../Atmel_lib/BitCloud_MEGARF_1_14_0/BitCloud/lib/libBc_EndDevice_Atmega128rfa1_Atmega128rfa1_Gcc.a(nwk.o)
 .text.nwkResetIsIdle
                0x00007d0e        0xe ./../../../../../../Atmel_lib/BitCloud_MEGARF_1_14_0/BitCloud/lib/libBc_EndDevice_Atmega128rfa1_Atmega128rfa1_Gcc.a(nwk.o)
 .text.nwkParseRxHeader
                0x00007d1c       0xb0 ./../../../../../../Atmel_lib/BitCloud_MEGARF_1_14_0/BitCloud/lib/libBc_EndDevice_Atmega128rfa1_Atmega128rfa1_Gcc.a(nwk.o)
 .text.nwkSyncIsIdle
                0x00007dcc        0xe ./../../../../../../Atmel_lib/BitCloud_MEGARF_1_14_0/BitCloud/lib/libBc_EndDevice_Atmega128rfa1_Atmega128rfa1_Gcc.a(nwk.o)
 .text.nwkPostTask
                0x00007dda       0x58 ./../../../../../../Atmel_lib/BitCloud_MEGARF_1_14_0/BitCloud/lib/libBc_EndDevice_Atmega128rfa1_Atmega128rfa1_Gcc.a(nwk.o)
 .text.nwkEDScanMacEDScanConf
                0x00007e32       0x3e ./../../../../../../Atmel_lib/BitCloud_MEGARF_1_14_0/BitCloud/lib/libBc_EndDevice_Atmega128rfa1_Atmega128rfa1_Gcc.a(nwk.o)
 .text.nwkDiscoveryMacActiveScanConf
                0x00007e70       0x28 ./../../../../../../Atmel_lib/BitCloud_MEGARF_1_14_0/BitCloud/lib/libBc_EndDevice_Atmega128rfa1_Atmega128rfa1_Gcc.a(nwk.o)
 .text.nwkResetMacRxEnableConf
                0x00007e98       0x1c ./../../../../../../Atmel_lib/BitCloud_MEGARF_1_14_0/BitCloud/lib/libBc_EndDevice_Atmega128rfa1_Atmega128rfa1_Gcc.a(nwk.o)
 .text.nwkTxDelayIsIdle
                0x00007eb4       0x14 ./../../../../../../Atmel_lib/BitCloud_MEGARF_1_14_0/BitCloud/lib/libBc_EndDevice_Atmega128rfa1_Atmega128rfa1_Gcc.a(nwk.o)
 .text.nwkReloadNibFromConfigServer
                0x00007ec8       0x6c ./../../../../../../Atmel_lib/BitCloud_MEGARF_1_14_0/BitCloud/lib/libBc_EndDevice_Atmega128rfa1_Atmega128rfa1_Gcc.a(nwk.o)
 .text.nwkSetLifeTimeOfNeighbor
                0x00007f34       0xe8 ./../../../../../../Atmel_lib/BitCloud_MEGARF_1_14_0/BitCloud/lib/libBc_EndDevice_Atmega128rfa1_Atmega128rfa1_Gcc.a(nwk.o)
 .text.nwkAllocPacket
                0x0000801c       0xd2 ./../../../../../../Atmel_lib/BitCloud_MEGARF_1_14_0/BitCloud/lib/libBc_EndDevice_Atmega128rfa1_Atmega128rfa1_Gcc.a(nwk.o)
 .text.nwkAllocInputPacket
                0x000080ee       0x2c ./../../../../../../Atmel_lib/BitCloud_MEGARF_1_14_0/BitCloud/lib/libBc_EndDevice_Atmega128rfa1_Atmega128rfa1_Gcc.a(nwk.o)
 .text.nwkLoopbackTaskHandler
                0x0000811a       0xe2 ./../../../../../../Atmel_lib/BitCloud_MEGARF_1_14_0/BitCloud/lib/libBc_EndDevice_Atmega128rfa1_Atmega128rfa1_Gcc.a(nwk.o)
 .text.nwkEDScanTaskHandler
                0x000081fc       0xac ./../../../../../../Atmel_lib/BitCloud_MEGARF_1_14_0/BitCloud/lib/libBc_EndDevice_Atmega128rfa1_Atmega128rfa1_Gcc.a(nwk.o)
 .text.nwkTryToProcessCommandReq
                0x000082a8       0x72 ./../../../../../../Atmel_lib/BitCloud_MEGARF_1_14_0/BitCloud/lib/libBc_EndDevice_Atmega128rfa1_Atmega128rfa1_Gcc.a(nwk.o)
 .text.nwkCommandReq
                0x0000831a       0x14 ./../../../../../../Atmel_lib/BitCloud_MEGARF_1_14_0/BitCloud/lib/libBc_EndDevice_Atmega128rfa1_Atmega128rfa1_Gcc.a(nwk.o)
 .text.nwkLeaveTaskHandler
                0x0000832e       0x86 ./../../../../../../Atmel_lib/BitCloud_MEGARF_1_14_0/BitCloud/lib/libBc_EndDevice_Atmega128rfa1_Atmega128rfa1_Gcc.a(nwk.o)
 .text.nwkDataConf
                0x000083b4       0x4a ./../../../../../../Atmel_lib/BitCloud_MEGARF_1_14_0/BitCloud/lib/libBc_EndDevice_Atmega128rfa1_Atmega128rfa1_Gcc.a(nwk.o)
 .text.nwkConfirmDataTx
                0x000083fe       0x16 ./../../../../../../Atmel_lib/BitCloud_MEGARF_1_14_0/BitCloud/lib/libBc_EndDevice_Atmega128rfa1_Atmega128rfa1_Gcc.a(nwk.o)
 .text.nwkFindAddressMapEntryByExtAddr
                0x00008414       0x52 ./../../../../../../Atmel_lib/BitCloud_MEGARF_1_14_0/BitCloud/lib/libBc_EndDevice_Atmega128rfa1_Atmega128rfa1_Gcc.a(nwk.o)
 .text.SYS_GetRandomNumber
                0x00008466       0x2a ./../../../../../../Atmel_lib/BitCloud_MEGARF_1_14_0/BitCloud/lib/libBc_EndDevice_Atmega128rfa1_Atmega128rfa1_Gcc.a(nwk.o)
 .text.nwkFindDeviceToJoin
                0x00008490      0x1cc ./../../../../../../Atmel_lib/BitCloud_MEGARF_1_14_0/BitCloud/lib/libBc_EndDevice_Atmega128rfa1_Atmega128rfa1_Gcc.a(nwk.o)
 .text.nwkAssociate
                0x0000865c       0x9e ./../../../../../../Atmel_lib/BitCloud_MEGARF_1_14_0/BitCloud/lib/libBc_EndDevice_Atmega128rfa1_Atmega128rfa1_Gcc.a(nwk.o)
 .text.MAC_AssociateConf
                0x000086fa       0xfa ./../../../../../../Atmel_lib/BitCloud_MEGARF_1_14_0/BitCloud/lib/libBc_EndDevice_Atmega128rfa1_Atmega128rfa1_Gcc.a(nwk.o)
 .text.nwkGetSuitableParent
                0x000087f4       0x80 ./../../../../../../Atmel_lib/BitCloud_MEGARF_1_14_0/BitCloud/lib/libBc_EndDevice_Atmega128rfa1_Atmega128rfa1_Gcc.a(nwk.o)
 .text.nwkRejoinCmdPrepareAndSend
                0x00008874       0x30 ./../../../../../../Atmel_lib/BitCloud_MEGARF_1_14_0/BitCloud/lib/libBc_EndDevice_Atmega128rfa1_Atmega128rfa1_Gcc.a(nwk.o)
 .text.nwkJoinReqMacGetConf
                0x000088a4       0x3e ./../../../../../../Atmel_lib/BitCloud_MEGARF_1_14_0/BitCloud/lib/libBc_EndDevice_Atmega128rfa1_Atmega128rfa1_Gcc.a(nwk.o)
 .text.macLatencyFired
                0x000088e2        0x6 ./../../../../../../Atmel_lib/BitCloud_MEGARF_1_14_0/BitCloud/lib/libBc_EndDevice_Atmega128rfa1_Atmega128rfa1_Gcc.a(nwk.o)
 .text.NWK_JoinConf
                0x000088e8       0x48 ./../../../../../../Atmel_lib/BitCloud_MEGARF_1_14_0/BitCloud/lib/libBc_EndDevice_Atmega128rfa1_Atmega128rfa1_Gcc.a(nwk.o)
 .text.nwkJoinReqMacSetConf
                0x00008930      0x198 ./../../../../../../Atmel_lib/BitCloud_MEGARF_1_14_0/BitCloud/lib/libBc_EndDevice_Atmega128rfa1_Atmega128rfa1_Gcc.a(nwk.o)
 .text.nwkJoinReqMacRxEnableConf
                0x00008ac8       0x72 ./../../../../../../Atmel_lib/BitCloud_MEGARF_1_14_0/BitCloud/lib/libBc_EndDevice_Atmega128rfa1_Atmega128rfa1_Gcc.a(nwk.o)
 .text.nwkTxDelayReq
                0x00008b3a       0xc2 ./../../../../../../Atmel_lib/BitCloud_MEGARF_1_14_0/BitCloud/lib/libBc_EndDevice_Atmega128rfa1_Atmega128rfa1_Gcc.a(nwk.o)
 .text.nwkConfirmJoinReqTx
                0x00008bfc       0x62 ./../../../../../../Atmel_lib/BitCloud_MEGARF_1_14_0/BitCloud/lib/libBc_EndDevice_Atmega128rfa1_Atmega128rfa1_Gcc.a(nwk.o)
 .text.nwkJoinReqMacPollConf
                0x00008c5e       0x5e ./../../../../../../Atmel_lib/BitCloud_MEGARF_1_14_0/BitCloud/lib/libBc_EndDevice_Atmega128rfa1_Atmega128rfa1_Gcc.a(nwk.o)
 .text.nwkConfirmLeaveItselfTx
                0x00008cbc       0x42 ./../../../../../../Atmel_lib/BitCloud_MEGARF_1_14_0/BitCloud/lib/libBc_EndDevice_Atmega128rfa1_Atmega128rfa1_Gcc.a(nwk.o)
 .text.nwkResetTaskHandler
                0x00008cfe       0x6a ./../../../../../../Atmel_lib/BitCloud_MEGARF_1_14_0/BitCloud/lib/libBc_EndDevice_Atmega128rfa1_Atmega128rfa1_Gcc.a(nwk.o)
 .text.nwkRejoinResponseFrameInd
                0x00008d68      0x14e ./../../../../../../Atmel_lib/BitCloud_MEGARF_1_14_0/BitCloud/lib/libBc_EndDevice_Atmega128rfa1_Atmega128rfa1_Gcc.a(nwk.o)
 .text.nwkPrepareCommonFrame
                0x00008eb6       0x4a ./../../../../../../Atmel_lib/BitCloud_MEGARF_1_14_0/BitCloud/lib/libBc_EndDevice_Atmega128rfa1_Atmega128rfa1_Gcc.a(nwk.o)
 .text.nwkPrepareLeaveItselfTx
                0x00008f00       0x64 ./../../../../../../Atmel_lib/BitCloud_MEGARF_1_14_0/BitCloud/lib/libBc_EndDevice_Atmega128rfa1_Atmega128rfa1_Gcc.a(nwk.o)
 .text.nwkPrepareJoinReqTx
                0x00008f64       0x94 ./../../../../../../Atmel_lib/BitCloud_MEGARF_1_14_0/BitCloud/lib/libBc_EndDevice_Atmega128rfa1_Atmega128rfa1_Gcc.a(nwk.o)
 .text.nwkResetTaskManager
                0x00008ff8       0x10 ./../../../../../../Atmel_lib/BitCloud_MEGARF_1_14_0/BitCloud/lib/libBc_EndDevice_Atmega128rfa1_Atmega128rfa1_Gcc.a(nwk.o)
 .text.nwkSyncTaskHandler
                0x00009008       0xa8 ./../../../../../../Atmel_lib/BitCloud_MEGARF_1_14_0/BitCloud/lib/libBc_EndDevice_Atmega128rfa1_Atmega128rfa1_Gcc.a(nwk.o)
 .text.nwkSyncMacPollConf
                0x000090b0       0x5e ./../../../../../../Atmel_lib/BitCloud_MEGARF_1_14_0/BitCloud/lib/libBc_EndDevice_Atmega128rfa1_Atmega128rfa1_Gcc.a(nwk.o)
 .text.responseWaitTimerFired
                0x0000910e       0x50 ./../../../../../../Atmel_lib/BitCloud_MEGARF_1_14_0/BitCloud/lib/libBc_EndDevice_Atmega128rfa1_Atmega128rfa1_Gcc.a(nwk.o)
 .text.nwkCheckBTT
                0x0000915e       0x22 ./../../../../../../Atmel_lib/BitCloud_MEGARF_1_14_0/BitCloud/lib/libBc_EndDevice_Atmega128rfa1_Atmega128rfa1_Gcc.a(nwk.o)
 .text.nwkGetNextHop.clone.4
                0x00009180       0x5c ./../../../../../../Atmel_lib/BitCloud_MEGARF_1_14_0/BitCloud/lib/libBc_EndDevice_Atmega128rfa1_Atmega128rfa1_Gcc.a(nwk.o)
 .text.nwkFreePacket.clone.11
                0x000091dc       0x30 ./../../../../../../Atmel_lib/BitCloud_MEGARF_1_14_0/BitCloud/lib/libBc_EndDevice_Atmega128rfa1_Atmega128rfa1_Gcc.a(nwk.o)
 .text.NWK_DataResp
                0x0000920c        0xa ./../../../../../../Atmel_lib/BitCloud_MEGARF_1_14_0/BitCloud/lib/libBc_EndDevice_Atmega128rfa1_Atmega128rfa1_Gcc.a(nwk.o)
                0x0000920c                NWK_DataResp
 .text.nwkTxConf
                0x00009216       0xb6 ./../../../../../../Atmel_lib/BitCloud_MEGARF_1_14_0/BitCloud/lib/libBc_EndDevice_Atmega128rfa1_Atmega128rfa1_Gcc.a(nwk.o)
 .text.nwkProcessDelayStatus
                0x000092cc       0x44 ./../../../../../../Atmel_lib/BitCloud_MEGARF_1_14_0/BitCloud/lib/libBc_EndDevice_Atmega128rfa1_Atmega128rfa1_Gcc.a(nwk.o)
 .text.MAC_DataConf
                0x00009310       0x30 ./../../../../../../Atmel_lib/BitCloud_MEGARF_1_14_0/BitCloud/lib/libBc_EndDevice_Atmega128rfa1_Atmega128rfa1_Gcc.a(nwk.o)
 .text.nwkTxDelayTimerFired
                0x00009340       0x96 ./../../../../../../Atmel_lib/BitCloud_MEGARF_1_14_0/BitCloud/lib/libBc_EndDevice_Atmega128rfa1_Atmega128rfa1_Gcc.a(nwk.o)
 .text.nwkTxTaskHandler
                0x000093d6      0x14a ./../../../../../../Atmel_lib/BitCloud_MEGARF_1_14_0/BitCloud/lib/libBc_EndDevice_Atmega128rfa1_Atmega128rfa1_Gcc.a(nwk.o)
 .text.nwkRxIndication.clone.14
                0x00009520      0x1ee ./../../../../../../Atmel_lib/BitCloud_MEGARF_1_14_0/BitCloud/lib/libBc_EndDevice_Atmega128rfa1_Atmega128rfa1_Gcc.a(nwk.o)
 .text.nwkClearNeighborTable.clone.15
                0x0000970e       0x68 ./../../../../../../Atmel_lib/BitCloud_MEGARF_1_14_0/BitCloud/lib/libBc_EndDevice_Atmega128rfa1_Atmega128rfa1_Gcc.a(nwk.o)
 .text.nwkResetNeighborTable
                0x00009776       0x82 ./../../../../../../Atmel_lib/BitCloud_MEGARF_1_14_0/BitCloud/lib/libBc_EndDevice_Atmega128rfa1_Atmega128rfa1_Gcc.a(nwk.o)
 .text.nwkLeaveReqMacResetConf
                0x000097f8       0xae ./../../../../../../Atmel_lib/BitCloud_MEGARF_1_14_0/BitCloud/lib/libBc_EndDevice_Atmega128rfa1_Atmega128rfa1_Gcc.a(nwk.o)
 .text.nwkDiscoveryTaskHandler
                0x000098a6       0xb8 ./../../../../../../Atmel_lib/BitCloud_MEGARF_1_14_0/BitCloud/lib/libBc_EndDevice_Atmega128rfa1_Atmega128rfa1_Gcc.a(nwk.o)
 .text.NWK_GetShortAddr
                0x0000995e        0xa ./../../../../../../Atmel_lib/BitCloud_MEGARF_1_14_0/BitCloud/lib/libBc_EndDevice_Atmega128rfa1_Atmega128rfa1_Gcc.a(nwk.o)
                0x0000995e                NWK_GetShortAddr
 .text.NWK_IsStaticAddressingMode
                0x00009968        0x6 ./../../../../../../Atmel_lib/BitCloud_MEGARF_1_14_0/BitCloud/lib/libBc_EndDevice_Atmega128rfa1_Atmega128rfa1_Gcc.a(nwk.o)
                0x00009968                NWK_IsStaticAddressingMode
 .text.NWK_RemoveFromAddressMap
                0x0000996e       0x12 ./../../../../../../Atmel_lib/BitCloud_MEGARF_1_14_0/BitCloud/lib/libBc_EndDevice_Atmega128rfa1_Atmega128rfa1_Gcc.a(nwk.o)
                0x0000996e                NWK_RemoveFromAddressMap
 .text.NWK_NetworkDiscoveryReq
                0x00009980       0x20 ./../../../../../../Atmel_lib/BitCloud_MEGARF_1_14_0/BitCloud/lib/libBc_EndDevice_Atmega128rfa1_Atmega128rfa1_Gcc.a(nwk.o)
                0x00009980                NWK_NetworkDiscoveryReq
 .text.MAC_BeaconNotifyInd
                0x000099a0      0x4b8 ./../../../../../../Atmel_lib/BitCloud_MEGARF_1_14_0/BitCloud/lib/libBc_EndDevice_Atmega128rfa1_Atmega128rfa1_Gcc.a(nwk.o)
                0x000099a0                MAC_BeaconNotifyInd
 .text.NWK_EDScanReq
                0x00009e58       0x20 ./../../../../../../Atmel_lib/BitCloud_MEGARF_1_14_0/BitCloud/lib/libBc_EndDevice_Atmega128rfa1_Atmega128rfa1_Gcc.a(nwk.o)
                0x00009e58                NWK_EDScanReq
 .text.NWK_IsGroupMember
                0x00009e78       0x3c ./../../../../../../Atmel_lib/BitCloud_MEGARF_1_14_0/BitCloud/lib/libBc_EndDevice_Atmega128rfa1_Atmega128rfa1_Gcc.a(nwk.o)
                0x00009e78                NWK_IsGroupMember
 .text.NWK_ResetGroups
                0x00009eb4       0x5e ./../../../../../../Atmel_lib/BitCloud_MEGARF_1_14_0/BitCloud/lib/libBc_EndDevice_Atmega128rfa1_Atmega128rfa1_Gcc.a(nwk.o)
                0x00009eb4                NWK_ResetGroups
 .text.nwkResetMacResetConf
                0x00009f12      0x3e0 ./../../../../../../Atmel_lib/BitCloud_MEGARF_1_14_0/BitCloud/lib/libBc_EndDevice_Atmega128rfa1_Atmega128rfa1_Gcc.a(nwk.o)
 .text.NWK_GetParentShortAddr
                0x0000a2f2        0xa ./../../../../../../Atmel_lib/BitCloud_MEGARF_1_14_0/BitCloud/lib/libBc_EndDevice_Atmega128rfa1_Atmega128rfa1_Gcc.a(nwk.o)
                0x0000a2f2                NWK_GetParentShortAddr
 .text.NWK_GetPanId
                0x0000a2fc        0xa ./../../../../../../Atmel_lib/BitCloud_MEGARF_1_14_0/BitCloud/lib/libBc_EndDevice_Atmega128rfa1_Atmega128rfa1_Gcc.a(nwk.o)
                0x0000a2fc                NWK_GetPanId
 .text.NWK_GetExtPanId
                0x0000a306       0x22 ./../../../../../../Atmel_lib/BitCloud_MEGARF_1_14_0/BitCloud/lib/libBc_EndDevice_Atmega128rfa1_Atmega128rfa1_Gcc.a(nwk.o)
                0x0000a306                NWK_GetExtPanId
 .text.NWK_SetExtPanId
                0x0000a328       0x34 ./../../../../../../Atmel_lib/BitCloud_MEGARF_1_14_0/BitCloud/lib/libBc_EndDevice_Atmega128rfa1_Atmega128rfa1_Gcc.a(nwk.o)
                0x0000a328                NWK_SetExtPanId
 .text.NWK_GetDeviceType
                0x0000a35c        0x6 ./../../../../../../Atmel_lib/BitCloud_MEGARF_1_14_0/BitCloud/lib/libBc_EndDevice_Atmega128rfa1_Atmega128rfa1_Gcc.a(nwk.o)
                0x0000a35c                NWK_GetDeviceType
 .text.NWK_GetLogicalChannel
                0x0000a362        0x6 ./../../../../../../Atmel_lib/BitCloud_MEGARF_1_14_0/BitCloud/lib/libBc_EndDevice_Atmega128rfa1_Atmega128rfa1_Gcc.a(nwk.o)
                0x0000a362                NWK_GetLogicalChannel
 .text.NWK_SetLogicalChannel
                0x0000a368        0x6 ./../../../../../../Atmel_lib/BitCloud_MEGARF_1_14_0/BitCloud/lib/libBc_EndDevice_Atmega128rfa1_Atmega128rfa1_Gcc.a(nwk.o)
                0x0000a368                NWK_SetLogicalChannel
 .text.NWK_GetBroadcastDeliveryTime
                0x0000a36e       0x12 ./../../../../../../Atmel_lib/BitCloud_MEGARF_1_14_0/BitCloud/lib/libBc_EndDevice_Atmega128rfa1_Atmega128rfa1_Gcc.a(nwk.o)
                0x0000a36e                NWK_GetBroadcastDeliveryTime
 .text.NWK_GetManagerAddr
                0x0000a380        0xa ./../../../../../../Atmel_lib/BitCloud_MEGARF_1_14_0/BitCloud/lib/libBc_EndDevice_Atmega128rfa1_Atmega128rfa1_Gcc.a(nwk.o)
                0x0000a380                NWK_GetManagerAddr
 .text.NWK_SetManagerAddr
                0x0000a38a        0xa ./../../../../../../Atmel_lib/BitCloud_MEGARF_1_14_0/BitCloud/lib/libBc_EndDevice_Atmega128rfa1_Atmega128rfa1_Gcc.a(nwk.o)
                0x0000a38a                NWK_SetManagerAddr
 .text.NWK_SetUpdateId
                0x0000a394        0xa ./../../../../../../Atmel_lib/BitCloud_MEGARF_1_14_0/BitCloud/lib/libBc_EndDevice_Atmega128rfa1_Atmega128rfa1_Gcc.a(nwk.o)
                0x0000a394                NWK_SetUpdateId
 .text.NWK_GetTransmitCouner
                0x0000a39e       0x14 ./../../../../../../Atmel_lib/BitCloud_MEGARF_1_14_0/BitCloud/lib/libBc_EndDevice_Atmega128rfa1_Atmega128rfa1_Gcc.a(nwk.o)
                0x0000a39e                NWK_GetTransmitCouner
 .text.NWK_GetTransmitFailureCounter
                0x0000a3b2       0x14 ./../../../../../../Atmel_lib/BitCloud_MEGARF_1_14_0/BitCloud/lib/libBc_EndDevice_Atmega128rfa1_Atmega128rfa1_Gcc.a(nwk.o)
                0x0000a3b2                NWK_GetTransmitFailureCounter
 .text.NWK_ResetTransmitCounters
                0x0000a3c6       0x12 ./../../../../../../Atmel_lib/BitCloud_MEGARF_1_14_0/BitCloud/lib/libBc_EndDevice_Atmega128rfa1_Atmega128rfa1_Gcc.a(nwk.o)
                0x0000a3c6                NWK_ResetTransmitCounters
 .text.NWK_JoinReq
                0x0000a3d8       0x20 ./../../../../../../Atmel_lib/BitCloud_MEGARF_1_14_0/BitCloud/lib/libBc_EndDevice_Atmega128rfa1_Atmega128rfa1_Gcc.a(nwk.o)
                0x0000a3d8                NWK_JoinReq
 .text.nwkAddressConflictTaskHandler
                0x0000a3f8      0x176 ./../../../../../../Atmel_lib/BitCloud_MEGARF_1_14_0/BitCloud/lib/libBc_EndDevice_Atmega128rfa1_Atmega128rfa1_Gcc.a(nwk.o)
 .text.NWK_RemoveNeighbor
                0x0000a56e       0xb6 ./../../../../../../Atmel_lib/BitCloud_MEGARF_1_14_0/BitCloud/lib/libBc_EndDevice_Atmega128rfa1_Atmega128rfa1_Gcc.a(nwk.o)
                0x0000a56e                NWK_RemoveNeighbor
 .text.NWK_LeaveReq
                0x0000a624       0x20 ./../../../../../../Atmel_lib/BitCloud_MEGARF_1_14_0/BitCloud/lib/libBc_EndDevice_Atmega128rfa1_Atmega128rfa1_Gcc.a(nwk.o)
                0x0000a624                NWK_LeaveReq
 .text.NWK_LoopbackTxReq
                0x0000a644       0x20 ./../../../../../../Atmel_lib/BitCloud_MEGARF_1_14_0/BitCloud/lib/libBc_EndDevice_Atmega128rfa1_Atmega128rfa1_Gcc.a(nwk.o)
                0x0000a644                NWK_LoopbackTxReq
 .text.nwkDataConfTaskHandler
                0x0000a664       0x5a ./../../../../../../Atmel_lib/BitCloud_MEGARF_1_14_0/BitCloud/lib/libBc_EndDevice_Atmega128rfa1_Atmega128rfa1_Gcc.a(nwk.o)
 .text.NWK_DataReq
                0x0000a6be      0x1f8 ./../../../../../../Atmel_lib/BitCloud_MEGARF_1_14_0/BitCloud/lib/libBc_EndDevice_Atmega128rfa1_Atmega128rfa1_Gcc.a(nwk.o)
                0x0000a6be                NWK_DataReq
 .text.NWK_FindNeighborByShortAddr
                0x0000a8b6       0x30 ./../../../../../../Atmel_lib/BitCloud_MEGARF_1_14_0/BitCloud/lib/libBc_EndDevice_Atmega128rfa1_Atmega128rfa1_Gcc.a(nwk.o)
                0x0000a8b6                NWK_FindNeighborByShortAddr
 .text.NWK_NetworkDiscoveryConf
                0x0000a8e6      0x14e ./../../../../../../Atmel_lib/BitCloud_MEGARF_1_14_0/BitCloud/lib/libBc_EndDevice_Atmega128rfa1_Atmega128rfa1_Gcc.a(nwk.o)
 .text.nwkJoinReqTaskHandler
                0x0000aa34      0x178 ./../../../../../../Atmel_lib/BitCloud_MEGARF_1_14_0/BitCloud/lib/libBc_EndDevice_Atmega128rfa1_Atmega128rfa1_Gcc.a(nwk.o)
 .text.nwkResetMacSetConf
                0x0000abac      0x178 ./../../../../../../Atmel_lib/BitCloud_MEGARF_1_14_0/BitCloud/lib/libBc_EndDevice_Atmega128rfa1_Atmega128rfa1_Gcc.a(nwk.o)
 .text.NWK_GetExtByShortAddress
                0x0000ad24       0x5c ./../../../../../../Atmel_lib/BitCloud_MEGARF_1_14_0/BitCloud/lib/libBc_EndDevice_Atmega128rfa1_Atmega128rfa1_Gcc.a(nwk.o)
                0x0000ad24                NWK_GetExtByShortAddress
 .text.NWK_FindNeighborByExtAddr
                0x0000ad80       0x68 ./../../../../../../Atmel_lib/BitCloud_MEGARF_1_14_0/BitCloud/lib/libBc_EndDevice_Atmega128rfa1_Atmega128rfa1_Gcc.a(nwk.o)
                0x0000ad80                NWK_FindNeighborByExtAddr
 .text.nwkLeaveFrameInd
                0x0000ade8       0xde ./../../../../../../Atmel_lib/BitCloud_MEGARF_1_14_0/BitCloud/lib/libBc_EndDevice_Atmega128rfa1_Atmega128rfa1_Gcc.a(nwk.o)
 .text.NWK_GetShortByExtAddress
                0x0000aec6       0x60 ./../../../../../../Atmel_lib/BitCloud_MEGARF_1_14_0/BitCloud/lib/libBc_EndDevice_Atmega128rfa1_Atmega128rfa1_Gcc.a(nwk.o)
                0x0000aec6                NWK_GetShortByExtAddress
 .text.NWK_LinkShortAndExtAddress
                0x0000af26      0x14c ./../../../../../../Atmel_lib/BitCloud_MEGARF_1_14_0/BitCloud/lib/libBc_EndDevice_Atmega128rfa1_Atmega128rfa1_Gcc.a(nwk.o)
                0x0000af26                NWK_LinkShortAndExtAddress
 .text.NWK_GetNeighborTable
                0x0000b072        0x6 ./../../../../../../Atmel_lib/BitCloud_MEGARF_1_14_0/BitCloud/lib/libBc_EndDevice_Atmega128rfa1_Atmega128rfa1_Gcc.a(nwk.o)
                0x0000b072                NWK_GetNeighborTable
 .text.NWK_GetNeighborsLqi
                0x0000b078       0x3e ./../../../../../../Atmel_lib/BitCloud_MEGARF_1_14_0/BitCloud/lib/libBc_EndDevice_Atmega128rfa1_Atmega128rfa1_Gcc.a(nwk.o)
                0x0000b078                NWK_GetNeighborsLqi
 .text.NWK_GetNeighborsRssi
                0x0000b0b6       0x3e ./../../../../../../Atmel_lib/BitCloud_MEGARF_1_14_0/BitCloud/lib/libBc_EndDevice_Atmega128rfa1_Atmega128rfa1_Gcc.a(nwk.o)
                0x0000b0b6                NWK_GetNeighborsRssi
 .text.NWK_IsKnownChild
                0x0000b0f4       0x24 ./../../../../../../Atmel_lib/BitCloud_MEGARF_1_14_0/BitCloud/lib/libBc_EndDevice_Atmega128rfa1_Atmega128rfa1_Gcc.a(nwk.o)
                0x0000b0f4                NWK_IsKnownChild
 .text.NWK_ResetReq
                0x0000b118       0x20 ./../../../../../../Atmel_lib/BitCloud_MEGARF_1_14_0/BitCloud/lib/libBc_EndDevice_Atmega128rfa1_Atmega128rfa1_Gcc.a(nwk.o)
                0x0000b118                NWK_ResetReq
 .text.NWK_Init
                0x0000b138       0x20 ./../../../../../../Atmel_lib/BitCloud_MEGARF_1_14_0/BitCloud/lib/libBc_EndDevice_Atmega128rfa1_Atmega128rfa1_Gcc.a(nwk.o)
                0x0000b138                NWK_Init
 .text.MAC_DataInd
                0x0000b158      0x2ae ./../../../../../../Atmel_lib/BitCloud_MEGARF_1_14_0/BitCloud/lib/libBc_EndDevice_Atmega128rfa1_Atmega128rfa1_Gcc.a(nwk.o)
                0x0000b158                MAC_DataInd
 .text.NWK_IsActiveTransaction
                0x0000b406       0x54 ./../../../../../../Atmel_lib/BitCloud_MEGARF_1_14_0/BitCloud/lib/libBc_EndDevice_Atmega128rfa1_Atmega128rfa1_Gcc.a(nwk.o)
                0x0000b406                NWK_IsActiveTransaction
 .text.NWK_LaunchActivities
                0x0000b45a        0x2 ./../../../../../../Atmel_lib/BitCloud_MEGARF_1_14_0/BitCloud/lib/libBc_EndDevice_Atmega128rfa1_Atmega128rfa1_Gcc.a(nwk.o)
                0x0000b45a                NWK_LaunchActivities
 .text.NWK_StopActivities
                0x0000b45c        0x2 ./../../../../../../Atmel_lib/BitCloud_MEGARF_1_14_0/BitCloud/lib/libBc_EndDevice_Atmega128rfa1_Atmega128rfa1_Gcc.a(nwk.o)
                0x0000b45c                NWK_StopActivities
 .text.NWK_DeviceIsAbleToOperateInNetwork
                0x0000b45e       0x36 ./../../../../../../Atmel_lib/BitCloud_MEGARF_1_14_0/BitCloud/lib/libBc_EndDevice_Atmega128rfa1_Atmega128rfa1_Gcc.a(nwk.o)
                0x0000b45e                NWK_DeviceIsAbleToOperateInNetwork
 .text.NWK_GatherPowerFailureInfo
                0x0000b494       0x24 ./../../../../../../Atmel_lib/BitCloud_MEGARF_1_14_0/BitCloud/lib/libBc_EndDevice_Atmega128rfa1_Atmega128rfa1_Gcc.a(nwk.o)
                0x0000b494                NWK_GatherPowerFailureInfo
 .text.NWK_SyncReq
                0x0000b4b8       0x20 ./../../../../../../Atmel_lib/BitCloud_MEGARF_1_14_0/BitCloud/lib/libBc_EndDevice_Atmega128rfa1_Atmega128rfa1_Gcc.a(nwk.o)
                0x0000b4b8                NWK_SyncReq
 .text.MAC_SyncLossInd
                0x0000b4d8        0x2 ./../../../../../../Atmel_lib/BitCloud_MEGARF_1_14_0/BitCloud/lib/libBc_EndDevice_Atmega128rfa1_Atmega128rfa1_Gcc.a(nwk.o)
                0x0000b4d8                MAC_SyncLossInd
 .text.NWK_TaskHandler
                0x0000b4da       0xd8 ./../../../../../../Atmel_lib/BitCloud_MEGARF_1_14_0/BitCloud/lib/libBc_EndDevice_Atmega128rfa1_Atmega128rfa1_Gcc.a(nwk.o)
                0x0000b4da                NWK_TaskHandler
 .text.NWK_GetUnicastDeliveryTime
                0x0000b5b2       0x6a ./../../../../../../Atmel_lib/BitCloud_MEGARF_1_14_0/BitCloud/lib/libBc_EndDevice_Atmega128rfa1_Atmega128rfa1_Gcc.a(nwk.o)
                0x0000b5b2                NWK_GetUnicastDeliveryTime
 .text.phyRxTxSwitcher
                0x0000b61c       0x36 ./../../../../../../Atmel_lib/BitCloud_MEGARF_1_14_0/BitCloud/lib/libBc_EndDevice_Atmega128rfa1_Atmega128rfa1_Gcc.a(phyRxTxIndicator.o)
 .text.phyRxTxSwitcherOn
                0x0000b652        0x8 ./../../../../../../Atmel_lib/BitCloud_MEGARF_1_14_0/BitCloud/lib/libBc_EndDevice_Atmega128rfa1_Atmega128rfa1_Gcc.a(phyRxTxIndicator.o)
                0x0000b652                phyRxTxSwitcherOn
 .text.phyRxTxSwitcherOff
                0x0000b65a        0x8 ./../../../../../../Atmel_lib/BitCloud_MEGARF_1_14_0/BitCloud/lib/libBc_EndDevice_Atmega128rfa1_Atmega128rfa1_Gcc.a(phyRxTxIndicator.o)
                0x0000b65a                phyRxTxSwitcherOff
 .text.deleteHeadQueueElem
                0x0000b662       0x22 ./../../../../../../Atmel_lib/BitCloud_MEGARF_1_14_0/BitCloud/lib/libBc_EndDevice_Atmega128rfa1_Atmega128rfa1_Gcc.a(queue.o)
                0x0000b662                deleteHeadQueueElem
 .text.deleteQueueElem
                0x0000b684       0x4a ./../../../../../../Atmel_lib/BitCloud_MEGARF_1_14_0/BitCloud/lib/libBc_EndDevice_Atmega128rfa1_Atmega128rfa1_Gcc.a(queue.o)
                0x0000b684                deleteQueueElem
 .text.isQueueElem
                0x0000b6ce       0x22 ./../../../../../../Atmel_lib/BitCloud_MEGARF_1_14_0/BitCloud/lib/libBc_EndDevice_Atmega128rfa1_Atmega128rfa1_Gcc.a(queue.o)
                0x0000b6ce                isQueueElem
 .text.putQueueElem
                0x0000b6f0       0x40 ./../../../../../../Atmel_lib/BitCloud_MEGARF_1_14_0/BitCloud/lib/libBc_EndDevice_Atmega128rfa1_Atmega128rfa1_Gcc.a(queue.o)
                0x0000b6f0                putQueueElem
 .text.SYS_DuplicateTableReset
                0x0000b730       0x4e ./../../../../../../Atmel_lib/BitCloud_MEGARF_1_14_0/BitCloud/lib/libBc_EndDevice_Atmega128rfa1_Atmega128rfa1_Gcc.a(sysDuplicateTable.o)
                0x0000b730                SYS_DuplicateTableReset
 .text.duplicateTableUpdate
                0x0000b77e       0x8e ./../../../../../../Atmel_lib/BitCloud_MEGARF_1_14_0/BitCloud/lib/libBc_EndDevice_Atmega128rfa1_Atmega128rfa1_Gcc.a(sysDuplicateTable.o)
                0x0000b77e                duplicateTableUpdate
 .text.SYS_DuplicateTableCheck
                0x0000b80c      0x10c ./../../../../../../Atmel_lib/BitCloud_MEGARF_1_14_0/BitCloud/lib/libBc_EndDevice_Atmega128rfa1_Atmega128rfa1_Gcc.a(sysDuplicateTable.o)
                0x0000b80c                SYS_DuplicateTableCheck
 .text.SYS_DuplicateTableClear
                0x0000b918       0x7c ./../../../../../../Atmel_lib/BitCloud_MEGARF_1_14_0/BitCloud/lib/libBc_EndDevice_Atmega128rfa1_Atmega128rfa1_Gcc.a(sysDuplicateTable.o)
                0x0000b918                SYS_DuplicateTableClear
 .text.SYS_PostEvent
                0x0000b994       0x7a ./../../../../../../Atmel_lib/BitCloud_MEGARF_1_14_0/BitCloud/lib/libBc_EndDevice_Atmega128rfa1_Atmega128rfa1_Gcc.a(sysEvents.o)
                0x0000b994                SYS_PostEvent
 .text.SYS_IsEventDeliverable
                0x0000ba0e       0x38 ./../../../../../../Atmel_lib/BitCloud_MEGARF_1_14_0/BitCloud/lib/libBc_EndDevice_Atmega128rfa1_Atmega128rfa1_Gcc.a(sysEvents.o)
                0x0000ba0e                SYS_IsEventDeliverable
 .text.SYS_IsEventSubscriber
                0x0000ba46       0x32 ./../../../../../../Atmel_lib/BitCloud_MEGARF_1_14_0/BitCloud/lib/libBc_EndDevice_Atmega128rfa1_Atmega128rfa1_Gcc.a(sysEvents.o)
                0x0000ba46                SYS_IsEventSubscriber
 .text.SYS_SubscribeToEvent
                0x0000ba78       0x70 ./../../../../../../Atmel_lib/BitCloud_MEGARF_1_14_0/BitCloud/lib/libBc_EndDevice_Atmega128rfa1_Atmega128rfa1_Gcc.a(sysEvents.o)
                0x0000ba78                SYS_SubscribeToEvent
 .text.SYS_StartTimer
                0x0000bae8       0x14 ./../../../../../../Atmel_lib/BitCloud_MEGARF_1_14_0/BitCloud/lib/libBc_EndDevice_Atmega128rfa1_Atmega128rfa1_Gcc.a(sysTimer.o)
                0x0000bae8                SYS_StartTimer
 .text.SYS_StopTimer
                0x0000bafc       0x12 ./../../../../../../Atmel_lib/BitCloud_MEGARF_1_14_0/BitCloud/lib/libBc_EndDevice_Atmega128rfa1_Atmega128rfa1_Gcc.a(sysTimer.o)
                0x0000bafc                SYS_StopTimer
 .text.SYS_InitTimer
                0x0000bb0e       0x34 ./../../../../../../Atmel_lib/BitCloud_MEGARF_1_14_0/BitCloud/lib/libBc_EndDevice_Atmega128rfa1_Atmega128rfa1_Gcc.a(sysTimer.o)
                0x0000bb0e                SYS_InitTimer
 .text.SYS_RunTask
                0x0000bb42       0x76 ./../../../../../../Atmel_lib/BitCloud_MEGARF_1_14_0/BitCloud/lib/libBc_EndDevice_Atmega128rfa1_Atmega128rfa1_Gcc.a(taskManager.o)
                0x0000bb42                SYS_RunTask
 .text.SYS_ForceRunTask
                0x0000bbb8        0x6 ./../../../../../../Atmel_lib/BitCloud_MEGARF_1_14_0/BitCloud/lib/libBc_EndDevice_Atmega128rfa1_Atmega128rfa1_Gcc.a(taskManager.o)
                0x0000bbb8                SYS_ForceRunTask
 .text.SYS_SysInit
                0x0000bbbe       0x22 ./../../../../../../Atmel_lib/BitCloud_MEGARF_1_14_0/BitCloud/lib/libBc_EndDevice_Atmega128rfa1_Atmega128rfa1_Gcc.a(taskManager.o)
                0x0000bbbe                SYS_SysInit
 .text.APS_StopConf
                0x0000bbe0       0x14 ./../../../../../../Atmel_lib/BitCloud_MEGARF_1_14_0/BitCloud/lib/libBc_EndDevice_Atmega128rfa1_Atmega128rfa1_Gcc.a(zdo.o)
 .text.zdoNodeManagerNwkLeaveConf
                0x0000bbf4        0x6 ./../../../../../../Atmel_lib/BitCloud_MEGARF_1_14_0/BitCloud/lib/libBc_EndDevice_Atmega128rfa1_Atmega128rfa1_Gcc.a(zdo.o)
 .text.zdoNwkManagerReset
                0x0000bbfa       0x10 ./../../../../../../Atmel_lib/BitCloud_MEGARF_1_14_0/BitCloud/lib/libBc_EndDevice_Atmega128rfa1_Atmega128rfa1_Gcc.a(zdo.o)
 .text.zdoStackResetConf
                0x0000bc0a       0x1c ./../../../../../../Atmel_lib/BitCloud_MEGARF_1_14_0/BitCloud/lib/libBc_EndDevice_Atmega128rfa1_Atmega128rfa1_Gcc.a(zdo.o)
 .text.zdoSecurityManagerHandler
                0x0000bc26        0x2 ./../../../../../../Atmel_lib/BitCloud_MEGARF_1_14_0/BitCloud/lib/libBc_EndDevice_Atmega128rfa1_Atmega128rfa1_Gcc.a(zdo.o)
                0x0000bc26                zdoSecurityManagerHandler
 .text.zdoPostTask
                0x0000bc28       0x3c ./../../../../../../Atmel_lib/BitCloud_MEGARF_1_14_0/BitCloud/lib/libBc_EndDevice_Atmega128rfa1_Atmega128rfa1_Gcc.a(zdo.o)
 .text.zdoCheckStartNetworkRequestsQueue
                0x0000bc64       0x38 ./../../../../../../Atmel_lib/BitCloud_MEGARF_1_14_0/BitCloud/lib/libBc_EndDevice_Atmega128rfa1_Atmega128rfa1_Gcc.a(zdo.o)
 .text.zdoStartNetworkFree
                0x0000bc9c        0xe ./../../../../../../Atmel_lib/BitCloud_MEGARF_1_14_0/BitCloud/lib/libBc_EndDevice_Atmega128rfa1_Atmega128rfa1_Gcc.a(zdo.o)
 .text.startConfirm
                0x0000bcaa       0x2e ./../../../../../../Atmel_lib/BitCloud_MEGARF_1_14_0/BitCloud/lib/libBc_EndDevice_Atmega128rfa1_Atmega128rfa1_Gcc.a(zdo.o)
 .text.sleepConfirm
                0x0000bcd8       0x24 ./../../../../../../Atmel_lib/BitCloud_MEGARF_1_14_0/BitCloud/lib/libBc_EndDevice_Atmega128rfa1_Atmega128rfa1_Gcc.a(zdo.o)
 .text.wakeUpConfirm
                0x0000bcfc       0x24 ./../../../../../../Atmel_lib/BitCloud_MEGARF_1_14_0/BitCloud/lib/libBc_EndDevice_Atmega128rfa1_Atmega128rfa1_Gcc.a(zdo.o)
 .text.zdoUnpostTask
                0x0000bd20       0x28 ./../../../../../../Atmel_lib/BitCloud_MEGARF_1_14_0/BitCloud/lib/libBc_EndDevice_Atmega128rfa1_Atmega128rfa1_Gcc.a(zdo.o)
 .text.zdoSetZdpDataReqState
                0x0000bd48       0x22 ./../../../../../../Atmel_lib/BitCloud_MEGARF_1_14_0/BitCloud/lib/libBc_EndDevice_Atmega128rfa1_Atmega128rfa1_Gcc.a(zdo.o)
 .text.confirmResponse
                0x0000bd6a        0x8 ./../../../../../../Atmel_lib/BitCloud_MEGARF_1_14_0/BitCloud/lib/libBc_EndDevice_Atmega128rfa1_Atmega128rfa1_Gcc.a(zdo.o)
 .text.zdoDefaultBindApsDataConf
                0x0000bd72        0x8 ./../../../../../../Atmel_lib/BitCloud_MEGARF_1_14_0/BitCloud/lib/libBc_EndDevice_Atmega128rfa1_Atmega128rfa1_Gcc.a(zdo.o)
 .text.confirmMgmtLqiResponse
                0x0000bd7a        0x8 ./../../../../../../Atmel_lib/BitCloud_MEGARF_1_14_0/BitCloud/lib/libBc_EndDevice_Atmega128rfa1_Atmega128rfa1_Gcc.a(zdo.o)
 .text.confirmMgmtPermitJoiningResponse
                0x0000bd82        0x8 ./../../../../../../Atmel_lib/BitCloud_MEGARF_1_14_0/BitCloud/lib/libBc_EndDevice_Atmega128rfa1_Atmega128rfa1_Gcc.a(zdo.o)
 .text.zdoZdpApsConfCallback
                0x0000bd8a       0x78 ./../../../../../../Atmel_lib/BitCloud_MEGARF_1_14_0/BitCloud/lib/libBc_EndDevice_Atmega128rfa1_Atmega128rfa1_Gcc.a(zdo.o)
 .text.zdoSetZdpIndState
                0x0000be02       0x10 ./../../../../../../Atmel_lib/BitCloud_MEGARF_1_14_0/BitCloud/lib/libBc_EndDevice_Atmega128rfa1_Atmega128rfa1_Gcc.a(zdo.o)
 .text.ttlUpdateTimerFired
                0x0000be12       0x72 ./../../../../../../Atmel_lib/BitCloud_MEGARF_1_14_0/BitCloud/lib/libBc_EndDevice_Atmega128rfa1_Atmega128rfa1_Gcc.a(zdo.o)
 .text.zdoSetOutOfNetworkFlag
                0x0000be84       0x36 ./../../../../../../Atmel_lib/BitCloud_MEGARF_1_14_0/BitCloud/lib/libBc_EndDevice_Atmega128rfa1_Atmega128rfa1_Gcc.a(zdo.o)
 .text.zdoStartNetworkConfirm
                0x0000beba       0x24 ./../../../../../../Atmel_lib/BitCloud_MEGARF_1_14_0/BitCloud/lib/libBc_EndDevice_Atmega128rfa1_Atmega128rfa1_Gcc.a(zdo.o)
 .text.reenterNetwork
                0x0000bede       0x30 ./../../../../../../Atmel_lib/BitCloud_MEGARF_1_14_0/BitCloud/lib/libBc_EndDevice_Atmega128rfa1_Atmega128rfa1_Gcc.a(zdo.o)
 .text.joinNetwork
                0x0000bf0e       0x86 ./../../../../../../Atmel_lib/BitCloud_MEGARF_1_14_0/BitCloud/lib/libBc_EndDevice_Atmega128rfa1_Atmega128rfa1_Gcc.a(zdo.o)
 .text.zdoRejoinNetwork
                0x0000bf94       0x1c ./../../../../../../Atmel_lib/BitCloud_MEGARF_1_14_0/BitCloud/lib/libBc_EndDevice_Atmega128rfa1_Atmega128rfa1_Gcc.a(zdo.o)
 .text.zdoIntraPanPortApsStopConf
                0x0000bfb0       0x1c ./../../../../../../Atmel_lib/BitCloud_MEGARF_1_14_0/BitCloud/lib/libBc_EndDevice_Atmega128rfa1_Atmega128rfa1_Gcc.a(zdo.o)
 .text.joinTimerFired
                0x0000bfcc        0x6 ./../../../../../../Atmel_lib/BitCloud_MEGARF_1_14_0/BitCloud/lib/libBc_EndDevice_Atmega128rfa1_Atmega128rfa1_Gcc.a(zdo.o)
 .text.stopSyncTimer
                0x0000bfd2        0xa ./../../../../../../Atmel_lib/BitCloud_MEGARF_1_14_0/BitCloud/lib/libBc_EndDevice_Atmega128rfa1_Atmega128rfa1_Gcc.a(zdo.o)
 .text.startSyncTimer
                0x0000bfdc       0x62 ./../../../../../../Atmel_lib/BitCloud_MEGARF_1_14_0/BitCloud/lib/libBc_EndDevice_Atmega128rfa1_Atmega128rfa1_Gcc.a(zdo.o)
 .text.zdoZdpResetReq
                0x0000c03e       0x90 ./../../../../../../Atmel_lib/BitCloud_MEGARF_1_14_0/BitCloud/lib/libBc_EndDevice_Atmega128rfa1_Atmega128rfa1_Gcc.a(zdo.o)
 .text.zdoPseudoRandomSeed
                0x0000c0ce       0x46 ./../../../../../../Atmel_lib/BitCloud_MEGARF_1_14_0/BitCloud/lib/libBc_EndDevice_Atmega128rfa1_Atmega128rfa1_Gcc.a(zdo.o)
 .text.RF_RandomConfUpdater
                0x0000c114       0x1c ./../../../../../../Atmel_lib/BitCloud_MEGARF_1_14_0/BitCloud/lib/libBc_EndDevice_Atmega128rfa1_Atmega128rfa1_Gcc.a(zdo.o)
 .text.zdoUpdateRandSeedTimerFired
                0x0000c130       0x28 ./../../../../../../Atmel_lib/BitCloud_MEGARF_1_14_0/BitCloud/lib/libBc_EndDevice_Atmega128rfa1_Atmega128rfa1_Gcc.a(zdo.o)
 .text.zdoStackReset
                0x0000c158       0x2a ./../../../../../../Atmel_lib/BitCloud_MEGARF_1_14_0/BitCloud/lib/libBc_EndDevice_Atmega128rfa1_Atmega128rfa1_Gcc.a(zdo.o)
 .text.startSystemSleep
                0x0000c182       0x48 ./../../../../../../Atmel_lib/BitCloud_MEGARF_1_14_0/BitCloud/lib/libBc_EndDevice_Atmega128rfa1_Atmega128rfa1_Gcc.a(zdo.o)
 .text.sendSyncReq
                0x0000c1ca       0x30 ./../../../../../../Atmel_lib/BitCloud_MEGARF_1_14_0/BitCloud/lib/libBc_EndDevice_Atmega128rfa1_Atmega128rfa1_Gcc.a(zdo.o)
 .text.transceiverSwitchedOn
                0x0000c1fa       0x3a ./../../../../../../Atmel_lib/BitCloud_MEGARF_1_14_0/BitCloud/lib/libBc_EndDevice_Atmega128rfa1_Atmega128rfa1_Gcc.a(zdo.o)
 .text.wakeupCallback
                0x0000c234       0x4c ./../../../../../../Atmel_lib/BitCloud_MEGARF_1_14_0/BitCloud/lib/libBc_EndDevice_Atmega128rfa1_Atmega128rfa1_Gcc.a(zdo.o)
 .text.zdoPowerManagerHandler
                0x0000c280       0xee ./../../../../../../Atmel_lib/BitCloud_MEGARF_1_14_0/BitCloud/lib/libBc_EndDevice_Atmega128rfa1_Atmega128rfa1_Gcc.a(zdo.o)
 .text.transceiverSwitchedOff
                0x0000c36e       0x18 ./../../../../../../Atmel_lib/BitCloud_MEGARF_1_14_0/BitCloud/lib/libBc_EndDevice_Atmega128rfa1_Atmega128rfa1_Gcc.a(zdo.o)
 .text.zdoZdpManagerHandler
                0x0000c386      0x1d6 ./../../../../../../Atmel_lib/BitCloud_MEGARF_1_14_0/BitCloud/lib/libBc_EndDevice_Atmega128rfa1_Atmega128rfa1_Gcc.a(zdo.o)
 .text.zdoNwkEventListener
                0x0000c55c       0x6e ./../../../../../../Atmel_lib/BitCloud_MEGARF_1_14_0/BitCloud/lib/libBc_EndDevice_Atmega128rfa1_Atmega128rfa1_Gcc.a(zdo.o)
 .text.zdoOtherEventListener
                0x0000c5ca       0x34 ./../../../../../../Atmel_lib/BitCloud_MEGARF_1_14_0/BitCloud/lib/libBc_EndDevice_Atmega128rfa1_Atmega128rfa1_Gcc.a(zdo.o)
 .text.zdoExecuteEDScan
                0x0000c5fe       0x36 ./../../../../../../Atmel_lib/BitCloud_MEGARF_1_14_0/BitCloud/lib/libBc_EndDevice_Atmega128rfa1_Atmega128rfa1_Gcc.a(zdo.o)
 .text.confirmMgmtNwkUpdateNotify
                0x0000c634       0x2e ./../../../../../../Atmel_lib/BitCloud_MEGARF_1_14_0/BitCloud/lib/libBc_EndDevice_Atmega128rfa1_Atmega128rfa1_Gcc.a(zdo.o)
 .text.channelChangeTimerFired
                0x0000c662       0x22 ./../../../../../../Atmel_lib/BitCloud_MEGARF_1_14_0/BitCloud/lib/libBc_EndDevice_Atmega128rfa1_Atmega128rfa1_Gcc.a(zdo.o)
 .text.MAC_SetConf
                0x0000c684       0x7e ./../../../../../../Atmel_lib/BitCloud_MEGARF_1_14_0/BitCloud/lib/libBc_EndDevice_Atmega128rfa1_Atmega128rfa1_Gcc.a(zdo.o)
 .text.zdoChildEventListener
                0x0000c702       0xa8 ./../../../../../../Atmel_lib/BitCloud_MEGARF_1_14_0/BitCloud/lib/libBc_EndDevice_Atmega128rfa1_Atmega128rfa1_Gcc.a(zdo.o)
 .text.zdoInitNotifications
                0x0000c7aa       0x6e ./../../../../../../Atmel_lib/BitCloud_MEGARF_1_14_0/BitCloud/lib/libBc_EndDevice_Atmega128rfa1_Atmega128rfa1_Gcc.a(zdo.o)
                0x0000c7aa                zdoInitNotifications
 .text.zdoInitHandler
                0x0000c818      0x11e ./../../../../../../Atmel_lib/BitCloud_MEGARF_1_14_0/BitCloud/lib/libBc_EndDevice_Atmega128rfa1_Atmega128rfa1_Gcc.a(zdo.o)
 .text.ZDO_GetLqiRssi
                0x0000c936       0x36 ./../../../../../../Atmel_lib/BitCloud_MEGARF_1_14_0/BitCloud/lib/libBc_EndDevice_Atmega128rfa1_Atmega128rfa1_Gcc.a(zdo.o)
                0x0000c936                ZDO_GetLqiRssi
 .text.ZDO_SleepReq
                0x0000c96c       0x3a ./../../../../../../Atmel_lib/BitCloud_MEGARF_1_14_0/BitCloud/lib/libBc_EndDevice_Atmega128rfa1_Atmega128rfa1_Gcc.a(zdo.o)
                0x0000c96c                ZDO_SleepReq
 .text.ZDO_StartSyncReq
                0x0000c9a6       0x30 ./../../../../../../Atmel_lib/BitCloud_MEGARF_1_14_0/BitCloud/lib/libBc_EndDevice_Atmega128rfa1_Atmega128rfa1_Gcc.a(zdo.o)
                0x0000c9a6                ZDO_StartSyncReq
 .text.deviceAnnceConf
                0x0000c9d6       0x16 ./../../../../../../Atmel_lib/BitCloud_MEGARF_1_14_0/BitCloud/lib/libBc_EndDevice_Atmega128rfa1_Atmega128rfa1_Gcc.a(zdo.o)
 .text.ZDO_StopSyncReq
                0x0000c9ec       0x18 ./../../../../../../Atmel_lib/BitCloud_MEGARF_1_14_0/BitCloud/lib/libBc_EndDevice_Atmega128rfa1_Atmega128rfa1_Gcc.a(zdo.o)
                0x0000c9ec                ZDO_StopSyncReq
 .text.zdoLeaveNetworkReq
                0x0000ca04       0x88 ./../../../../../../Atmel_lib/BitCloud_MEGARF_1_14_0/BitCloud/lib/libBc_EndDevice_Atmega128rfa1_Atmega128rfa1_Gcc.a(zdo.o)
 .text.zdoParentChangeConf
                0x0000ca8c       0x4c ./../../../../../../Atmel_lib/BitCloud_MEGARF_1_14_0/BitCloud/lib/libBc_EndDevice_Atmega128rfa1_Atmega128rfa1_Gcc.a(zdo.o)
 .text.confirmMgmtLeaveResponse
                0x0000cad8       0xbe ./../../../../../../Atmel_lib/BitCloud_MEGARF_1_14_0/BitCloud/lib/libBc_EndDevice_Atmega128rfa1_Atmega128rfa1_Gcc.a(zdo.o)
 .text.leaveNetworkInd
                0x0000cb96       0x32 ./../../../../../../Atmel_lib/BitCloud_MEGARF_1_14_0/BitCloud/lib/libBc_EndDevice_Atmega128rfa1_Atmega128rfa1_Gcc.a(zdo.o)
 .text.zdoLeaveNetworkNwkLeaveConf
                0x0000cbc8        0xe ./../../../../../../Atmel_lib/BitCloud_MEGARF_1_14_0/BitCloud/lib/libBc_EndDevice_Atmega128rfa1_Atmega128rfa1_Gcc.a(zdo.o)
 .text.NWK_LeaveInd
                0x0000cbd6       0x86 ./../../../../../../Atmel_lib/BitCloud_MEGARF_1_14_0/BitCloud/lib/libBc_EndDevice_Atmega128rfa1_Atmega128rfa1_Gcc.a(zdo.o)
                0x0000cbd6                NWK_LeaveInd
 .text.zdoReset
                0x0000cc5c       0x18 ./../../../../../../Atmel_lib/BitCloud_MEGARF_1_14_0/BitCloud/lib/libBc_EndDevice_Atmega128rfa1_Atmega128rfa1_Gcc.a(zdo.o)
 .text.zdoLeaveConfirm
                0x0000cc74       0x78 ./../../../../../../Atmel_lib/BitCloud_MEGARF_1_14_0/BitCloud/lib/libBc_EndDevice_Atmega128rfa1_Atmega128rfa1_Gcc.a(zdo.o)
 .text.ZDO_StartNetworkReq
                0x0000ccec       0x10 ./../../../../../../Atmel_lib/BitCloud_MEGARF_1_14_0/BitCloud/lib/libBc_EndDevice_Atmega128rfa1_Atmega128rfa1_Gcc.a(zdo.o)
                0x0000ccec                ZDO_StartNetworkReq
 .text.ZDO_TaskHandler
                0x0000ccfc       0x7c ./../../../../../../Atmel_lib/BitCloud_MEGARF_1_14_0/BitCloud/lib/libBc_EndDevice_Atmega128rfa1_Atmega128rfa1_Gcc.a(zdo.o)
                0x0000ccfc                ZDO_TaskHandler
 .text.APS_ZdoDataInd
                0x0000cd78      0x160 ./../../../../../../Atmel_lib/BitCloud_MEGARF_1_14_0/BitCloud/lib/libBc_EndDevice_Atmega128rfa1_Atmega128rfa1_Gcc.a(zdo.o)
                0x0000cd78                APS_ZdoDataInd
 .text.ZDO_ZdpReq
                0x0000ced8       0x64 ./../../../../../../Atmel_lib/BitCloud_MEGARF_1_14_0/BitCloud/lib/libBc_EndDevice_Atmega128rfa1_Atmega128rfa1_Gcc.a(zdo.o)
                0x0000ced8                ZDO_ZdpReq
 .text.sendNwkUpdateNotify
                0x0000cf3c       0x3e ./../../../../../../Atmel_lib/BitCloud_MEGARF_1_14_0/BitCloud/lib/libBc_EndDevice_Atmega128rfa1_Atmega128rfa1_Gcc.a(zdo.o)
 .text.zdoZdpFrameProcessorHandler
                0x0000cf7a     0x129c ./../../../../../../Atmel_lib/BitCloud_MEGARF_1_14_0/BitCloud/lib/libBc_EndDevice_Atmega128rfa1_Atmega128rfa1_Gcc.a(zdo.o)
 .text.edScanConf
                0x0000e216       0x10 ./../../../../../../Atmel_lib/BitCloud_MEGARF_1_14_0/BitCloud/lib/libBc_EndDevice_Atmega128rfa1_Atmega128rfa1_Gcc.a(zdo.o)
 .text.zdoSendDeviceAnnce
                0x0000e226       0xa0 ./../../../../../../Atmel_lib/BitCloud_MEGARF_1_14_0/BitCloud/lib/libBc_EndDevice_Atmega128rfa1_Atmega128rfa1_Gcc.a(zdo.o)
 .text.APS_StartConf
                0x0000e2c6       0x48 ./../../../../../../Atmel_lib/BitCloud_MEGARF_1_14_0/BitCloud/lib/libBc_EndDevice_Atmega128rfa1_Atmega128rfa1_Gcc.a(zdo.o)
 .text.zdoAuthenticationConf
                0x0000e30e       0x60 ./../../../../../../Atmel_lib/BitCloud_MEGARF_1_14_0/BitCloud/lib/libBc_EndDevice_Atmega128rfa1_Atmega128rfa1_Gcc.a(zdo.o)
                0x0000e30e                zdoAuthenticationConf
 .text.zdoAuthenticationStart
                0x0000e36e        0x8 ./../../../../../../Atmel_lib/BitCloud_MEGARF_1_14_0/BitCloud/lib/libBc_EndDevice_Atmega128rfa1_Atmega128rfa1_Gcc.a(zdo.o)
                0x0000e36e                zdoAuthenticationStart
 .text.zdoSendDeviceAnnceConf
                0x0000e376       0x34 ./../../../../../../Atmel_lib/BitCloud_MEGARF_1_14_0/BitCloud/lib/libBc_EndDevice_Atmega128rfa1_Atmega128rfa1_Gcc.a(zdo.o)
 .text.zdoReloadZibFromConfigServer
                0x0000e3aa      0x134 ./../../../../../../Atmel_lib/BitCloud_MEGARF_1_14_0/BitCloud/lib/libBc_EndDevice_Atmega128rfa1_Atmega128rfa1_Gcc.a(zdo.o)
                0x0000e3aa                zdoReloadZibFromConfigServer
 .text.zdoStartNetworkTaskHandler
                0x0000e4de      0x11e ./../../../../../../Atmel_lib/BitCloud_MEGARF_1_14_0/BitCloud/lib/libBc_EndDevice_Atmega128rfa1_Atmega128rfa1_Gcc.a(zdo.o)
 .text.setNetworkParametersToZib
                0x0000e5fc       0x48 ./../../../../../../Atmel_lib/BitCloud_MEGARF_1_14_0/BitCloud/lib/libBc_EndDevice_Atmega128rfa1_Atmega128rfa1_Gcc.a(zdo.o)
                0x0000e5fc                setNetworkParametersToZib
 .text.NWK_JoinConf
                0x0000e644       0x5a ./../../../../../../Atmel_lib/BitCloud_MEGARF_1_14_0/BitCloud/lib/libBc_EndDevice_Atmega128rfa1_Atmega128rfa1_Gcc.a(zdo.o)
 .text.zdoStartNetworkStackResetConf
                0x0000e69e       0x4a ./../../../../../../Atmel_lib/BitCloud_MEGARF_1_14_0/BitCloud/lib/libBc_EndDevice_Atmega128rfa1_Atmega128rfa1_Gcc.a(zdo.o)
 .text.zdoPerformIntraPanPortability
                0x0000e6e8       0x40 ./../../../../../../Atmel_lib/BitCloud_MEGARF_1_14_0/BitCloud/lib/libBc_EndDevice_Atmega128rfa1_Atmega128rfa1_Gcc.a(zdo.o)
                0x0000e6e8                zdoPerformIntraPanPortability
 .text.NWK_SyncConf
                0x0000e728       0x56 ./../../../../../../Atmel_lib/BitCloud_MEGARF_1_14_0/BitCloud/lib/libBc_EndDevice_Atmega128rfa1_Atmega128rfa1_Gcc.a(zdo.o)
 .text.NWK_NwkStatusInd
                0x0000e77e       0xb2 ./../../../../../../Atmel_lib/BitCloud_MEGARF_1_14_0/BitCloud/lib/libBc_EndDevice_Atmega128rfa1_Atmega128rfa1_Gcc.a(zdo.o)
                0x0000e77e                NWK_NwkStatusInd
 .text.SYS_Sleep
                0x0000e830        0x6 ./../../../../../../Atmel_lib/BitCloud_MEGARF_1_14_0/BitCloud/lib/libBc_EndDevice_Atmega128rfa1_Atmega128rfa1_Gcc.a(bcSysSleep.o)
                0x0000e830                SYS_Sleep
 .text.postNewMacRequest
                0x0000e836       0x46 ./../../../../../../Atmel_lib/BitCloud_MEGARF_1_14_0/BitCloud/lib/libBc_EndDevice_Atmega128rfa1_Atmega128rfa1_Gcc.a(machwdManager.o)
 .text.putReqInQueue
                0x0000e87c       0x18 ./../../../../../../Atmel_lib/BitCloud_MEGARF_1_14_0/BitCloud/lib/libBc_EndDevice_Atmega128rfa1_Atmega128rfa1_Gcc.a(machwdManager.o)
 .text.MACHWD_DataReq
                0x0000e894        0xa ./../../../../../../Atmel_lib/BitCloud_MEGARF_1_14_0/BitCloud/lib/libBc_EndDevice_Atmega128rfa1_Atmega128rfa1_Gcc.a(machwdManager.o)
                0x0000e894                MACHWD_DataReq
 .text.MACHWD_SetTrxStateReq
                0x0000e89e        0xc ./../../../../../../Atmel_lib/BitCloud_MEGARF_1_14_0/BitCloud/lib/libBc_EndDevice_Atmega128rfa1_Atmega128rfa1_Gcc.a(machwdManager.o)
                0x0000e89e                MACHWD_SetTrxStateReq
 .text.MACHWD_SetReq
                0x0000e8aa        0xc ./../../../../../../Atmel_lib/BitCloud_MEGARF_1_14_0/BitCloud/lib/libBc_EndDevice_Atmega128rfa1_Atmega128rfa1_Gcc.a(machwdManager.o)
                0x0000e8aa                MACHWD_SetReq
 .text.MACHWD_EdReq
                0x0000e8b6        0xc ./../../../../../../Atmel_lib/BitCloud_MEGARF_1_14_0/BitCloud/lib/libBc_EndDevice_Atmega128rfa1_Atmega128rfa1_Gcc.a(machwdManager.o)
                0x0000e8b6                MACHWD_EdReq
 .text.RF_RandomReq
                0x0000e8c2       0x14 ./../../../../../../Atmel_lib/BitCloud_MEGARF_1_14_0/BitCloud/lib/libBc_EndDevice_Atmega128rfa1_Atmega128rfa1_Gcc.a(machwdManager.o)
                0x0000e8c2                RF_RandomReq
 .text.MACHWD_Reset
                0x0000e8d6       0x46 ./../../../../../../Atmel_lib/BitCloud_MEGARF_1_14_0/BitCloud/lib/libBc_EndDevice_Atmega128rfa1_Atmega128rfa1_Gcc.a(machwdManager.o)
                0x0000e8d6                MACHWD_Reset
 .text.MAC_PHY_HWD_TaskHandler
                0x0000e91c      0x1b0 ./../../../../../../Atmel_lib/BitCloud_MEGARF_1_14_0/BitCloud/lib/libBc_EndDevice_Atmega128rfa1_Atmega128rfa1_Gcc.a(machwdManager.o)
                0x0000e91c                MAC_PHY_HWD_TaskHandler
 .text.machwdRegAccessReqHandler
                0x0000eacc       0x66 ./../../../../../../Atmel_lib/BitCloud_MEGARF_1_14_0/BitCloud/lib/libBc_EndDevice_Atmega128rfa1_Atmega128rfa1_Gcc.a(machwdRegAccessHandler.o)
                0x0000eacc                machwdRegAccessReqHandler
 .text.machwdRegAccessTaskHandler
                0x0000eb32       0x48 ./../../../../../../Atmel_lib/BitCloud_MEGARF_1_14_0/BitCloud/lib/libBc_EndDevice_Atmega128rfa1_Atmega128rfa1_Gcc.a(machwdRegAccessHandler.o)
                0x0000eb32                machwdRegAccessTaskHandler
 .text.machwdReset
                0x0000eb7a       0xc6 ./../../../../../../Atmel_lib/BitCloud_MEGARF_1_14_0/BitCloud/lib/libBc_EndDevice_Atmega128rfa1_Atmega128rfa1_Gcc.a(machwdResetHandler.o)
                0x0000eb7a                machwdReset
 .text.machwdRndReqHandler
                0x0000ec40       0x3a ./../../../../../../Atmel_lib/BitCloud_MEGARF_1_14_0/BitCloud/lib/libBc_EndDevice_Atmega128rfa1_Atmega128rfa1_Gcc.a(machwdRndHandler.o)
                0x0000ec40                machwdRndReqHandler
 .text.machwdRndTaskHandler
                0x0000ec7a       0x32 ./../../../../../../Atmel_lib/BitCloud_MEGARF_1_14_0/BitCloud/lib/libBc_EndDevice_Atmega128rfa1_Atmega128rfa1_Gcc.a(machwdRndHandler.o)
                0x0000ec7a                machwdRndTaskHandler
 .text.machwdResetRndHandler
                0x0000ecac        0x6 ./../../../../../../Atmel_lib/BitCloud_MEGARF_1_14_0/BitCloud/lib/libBc_EndDevice_Atmega128rfa1_Atmega128rfa1_Gcc.a(machwdRndHandler.o)
                0x0000ecac                machwdResetRndHandler
 .text.machwdResetRxBuffer
                0x0000ecb2       0x62 ./../../../../../../Atmel_lib/BitCloud_MEGARF_1_14_0/BitCloud/lib/libBc_EndDevice_Atmega128rfa1_Atmega128rfa1_Gcc.a(machwdRxBuffer.o)
                0x0000ecb2                machwdResetRxBuffer
 .text.machwdNextBuffer
                0x0000ed14       0x10 ./../../../../../../Atmel_lib/BitCloud_MEGARF_1_14_0/BitCloud/lib/libBc_EndDevice_Atmega128rfa1_Atmega128rfa1_Gcc.a(machwdRxBuffer.o)
                0x0000ed14                machwdNextBuffer
 .text.machwdReleaseBuffer
                0x0000ed24       0x62 ./../../../../../../Atmel_lib/BitCloud_MEGARF_1_14_0/BitCloud/lib/libBc_EndDevice_Atmega128rfa1_Atmega128rfa1_Gcc.a(machwdRxBuffer.o)
                0x0000ed24                machwdReleaseBuffer
 .text.machwdNextBufferPresent
                0x0000ed86       0x26 ./../../../../../../Atmel_lib/BitCloud_MEGARF_1_14_0/BitCloud/lib/libBc_EndDevice_Atmega128rfa1_Atmega128rfa1_Gcc.a(machwdRxBuffer.o)
                0x0000ed86                machwdNextBufferPresent
 .text.machwdRxFrameTaskHandler
                0x0000edac       0x46 ./../../../../../../Atmel_lib/BitCloud_MEGARF_1_14_0/BitCloud/lib/libBc_EndDevice_Atmega128rfa1_Atmega128rfa1_Gcc.a(machwdRxFrameHandler.o)
                0x0000edac                machwdRxFrameTaskHandler
 .text.machwdRxFrameIndTaskHandler
                0x0000edf2       0xa2 ./../../../../../../Atmel_lib/BitCloud_MEGARF_1_14_0/BitCloud/lib/libBc_EndDevice_Atmega128rfa1_Atmega128rfa1_Gcc.a(machwdRxFrameHandler.o)
                0x0000edf2                machwdRxFrameIndTaskHandler
 .text.executePhySetReq
                0x0000ee94       0x32 ./../../../../../../Atmel_lib/BitCloud_MEGARF_1_14_0/BitCloud/lib/libBc_EndDevice_Atmega128rfa1_Atmega128rfa1_Gcc.a(machwdSetHandler.o)
 .text.executeSetReq
                0x0000eec6       0x5c ./../../../../../../Atmel_lib/BitCloud_MEGARF_1_14_0/BitCloud/lib/libBc_EndDevice_Atmega128rfa1_Atmega128rfa1_Gcc.a(machwdSetHandler.o)
 .text.machwdSetReqHandler
                0x0000ef22       0xba ./../../../../../../Atmel_lib/BitCloud_MEGARF_1_14_0/BitCloud/lib/libBc_EndDevice_Atmega128rfa1_Atmega128rfa1_Gcc.a(machwdSetHandler.o)
                0x0000ef22                machwdSetReqHandler
 .text.machwdSetTaskHandler
                0x0000efdc       0x3a ./../../../../../../Atmel_lib/BitCloud_MEGARF_1_14_0/BitCloud/lib/libBc_EndDevice_Atmega128rfa1_Atmega128rfa1_Gcc.a(machwdSetHandler.o)
                0x0000efdc                machwdSetTaskHandler
 .text.machwdResetSetHandler
                0x0000f016        0xe ./../../../../../../Atmel_lib/BitCloud_MEGARF_1_14_0/BitCloud/lib/libBc_EndDevice_Atmega128rfa1_Atmega128rfa1_Gcc.a(machwdSetHandler.o)
                0x0000f016                machwdResetSetHandler
 .text.machwdSendTrxCmd
                0x0000f024       0x1c ./../../../../../../Atmel_lib/BitCloud_MEGARF_1_14_0/BitCloud/lib/libBc_EndDevice_Atmega128rfa1_Atmega128rfa1_Gcc.a(machwdTrxCtrl.o)
                0x0000f024                machwdSendTrxCmd
 .text.machwdGetPhyTrxCmd
                0x0000f040       0x14 ./../../../../../../Atmel_lib/BitCloud_MEGARF_1_14_0/BitCloud/lib/libBc_EndDevice_Atmega128rfa1_Atmega128rfa1_Gcc.a(machwdTrxCtrl.o)
                0x0000f040                machwdGetPhyTrxCmd
 .text.machwdConvertTrxCmdToTrxState
                0x0000f054       0x14 ./../../../../../../Atmel_lib/BitCloud_MEGARF_1_14_0/BitCloud/lib/libBc_EndDevice_Atmega128rfa1_Atmega128rfa1_Gcc.a(machwdTrxCtrl.o)
                0x0000f054                machwdConvertTrxCmdToTrxState
 .text.machwdConvertTrxStateToTrxCmd
                0x0000f068       0x16 ./../../../../../../Atmel_lib/BitCloud_MEGARF_1_14_0/BitCloud/lib/libBc_EndDevice_Atmega128rfa1_Atmega128rfa1_Gcc.a(machwdTrxCtrl.o)
                0x0000f068                machwdConvertTrxStateToTrxCmd
 .text.machwdTrxReqHandler
                0x0000f07e       0x40 ./../../../../../../Atmel_lib/BitCloud_MEGARF_1_14_0/BitCloud/lib/libBc_EndDevice_Atmega128rfa1_Atmega128rfa1_Gcc.a(machwdTrxHandler.o)
                0x0000f07e                machwdTrxReqHandler
 .text.machwdTrxTaskHandler
                0x0000f0be       0x40 ./../../../../../../Atmel_lib/BitCloud_MEGARF_1_14_0/BitCloud/lib/libBc_EndDevice_Atmega128rfa1_Atmega128rfa1_Gcc.a(machwdTrxHandler.o)
                0x0000f0be                machwdTrxTaskHandler
 .text.machwdResetTrxHandler
                0x0000f0fe        0x6 ./../../../../../../Atmel_lib/BitCloud_MEGARF_1_14_0/BitCloud/lib/libBc_EndDevice_Atmega128rfa1_Atmega128rfa1_Gcc.a(machwdTrxHandler.o)
                0x0000f0fe                machwdResetTrxHandler
 .text.executeDataReq
                0x0000f104       0x28 ./../../../../../../Atmel_lib/BitCloud_MEGARF_1_14_0/BitCloud/lib/libBc_EndDevice_Atmega128rfa1_Atmega128rfa1_Gcc.a(machwdTxFrameHandler.o)
 .text.machwdTxFrameReqHandler
                0x0000f12c       0x44 ./../../../../../../Atmel_lib/BitCloud_MEGARF_1_14_0/BitCloud/lib/libBc_EndDevice_Atmega128rfa1_Atmega128rfa1_Gcc.a(machwdTxFrameHandler.o)
                0x0000f12c                machwdTxFrameReqHandler
 .text.machwdTxFrameTaskHandler
                0x0000f170       0x3a ./../../../../../../Atmel_lib/BitCloud_MEGARF_1_14_0/BitCloud/lib/libBc_EndDevice_Atmega128rfa1_Atmega128rfa1_Gcc.a(machwdTxFrameHandler.o)
                0x0000f170                machwdTxFrameTaskHandler
 .text.machwdResetTxFrameHandler
                0x0000f1aa        0xa ./../../../../../../Atmel_lib/BitCloud_MEGARF_1_14_0/BitCloud/lib/libBc_EndDevice_Atmega128rfa1_Atmega128rfa1_Gcc.a(machwdTxFrameHandler.o)
                0x0000f1aa                machwdResetTxFrameHandler
 .text.putReqInQueue
                0x0000f1b4       0x2c ./../../../../../../Atmel_lib/BitCloud_MEGARF_1_14_0/BitCloud/lib/libBc_EndDevice_Atmega128rfa1_Atmega128rfa1_Gcc.a(machwiManager.o)
 .text.machwiSendConfToUpperLayer
                0x0000f1e0       0xaa ./../../../../../../Atmel_lib/BitCloud_MEGARF_1_14_0/BitCloud/lib/libBc_EndDevice_Atmega128rfa1_Atmega128rfa1_Gcc.a(machwiManager.o)
                0x0000f1e0                machwiSendConfToUpperLayer
 .text.MAC_HWI_TaskHandler
                0x0000f28a       0x96 ./../../../../../../Atmel_lib/BitCloud_MEGARF_1_14_0/BitCloud/lib/libBc_EndDevice_Atmega128rfa1_Atmega128rfa1_Gcc.a(machwiManager.o)
                0x0000f28a                MAC_HWI_TaskHandler
 .text.MAC_AssociateReq
                0x0000f320        0xc ./../../../../../../Atmel_lib/BitCloud_MEGARF_1_14_0/BitCloud/lib/libBc_EndDevice_Atmega128rfa1_Atmega128rfa1_Gcc.a(machwiManager.o)
                0x0000f320                MAC_AssociateReq
 .text.MAC_GetReq
                0x0000f32c        0xc ./../../../../../../Atmel_lib/BitCloud_MEGARF_1_14_0/BitCloud/lib/libBc_EndDevice_Atmega128rfa1_Atmega128rfa1_Gcc.a(machwiManager.o)
                0x0000f32c                MAC_GetReq
 .text.MAC_ResetReq
                0x0000f338       0x54 ./../../../../../../Atmel_lib/BitCloud_MEGARF_1_14_0/BitCloud/lib/libBc_EndDevice_Atmega128rfa1_Atmega128rfa1_Gcc.a(machwiManager.o)
                0x0000f338                MAC_ResetReq
 .text.MAC_RxEnableReq
                0x0000f38c        0xc ./../../../../../../Atmel_lib/BitCloud_MEGARF_1_14_0/BitCloud/lib/libBc_EndDevice_Atmega128rfa1_Atmega128rfa1_Gcc.a(machwiManager.o)
                0x0000f38c                MAC_RxEnableReq
 .text.MAC_ScanReq
                0x0000f398        0xc ./../../../../../../Atmel_lib/BitCloud_MEGARF_1_14_0/BitCloud/lib/libBc_EndDevice_Atmega128rfa1_Atmega128rfa1_Gcc.a(machwiManager.o)
                0x0000f398                MAC_ScanReq
 .text.MAC_SetReq
                0x0000f3a4        0xc ./../../../../../../Atmel_lib/BitCloud_MEGARF_1_14_0/BitCloud/lib/libBc_EndDevice_Atmega128rfa1_Atmega128rfa1_Gcc.a(machwiManager.o)
                0x0000f3a4                MAC_SetReq
 .text.MAC_PollReq
                0x0000f3b0        0xc ./../../../../../../Atmel_lib/BitCloud_MEGARF_1_14_0/BitCloud/lib/libBc_EndDevice_Atmega128rfa1_Atmega128rfa1_Gcc.a(machwiManager.o)
                0x0000f3b0                MAC_PollReq
 .text.MAC_DataReq
                0x0000f3bc        0xc ./../../../../../../Atmel_lib/BitCloud_MEGARF_1_14_0/BitCloud/lib/libBc_EndDevice_Atmega128rfa1_Atmega128rfa1_Gcc.a(machwiManager.o)
                0x0000f3bc                MAC_DataReq
 .text.machwiSendDataInd
                0x0000f3c8        0xe ./../../../../../../Atmel_lib/BitCloud_MEGARF_1_14_0/BitCloud/lib/libBc_EndDevice_Atmega128rfa1_Atmega128rfa1_Gcc.a(machwiManager.o)
                0x0000f3c8                machwiSendDataInd
 .text.machwiSendBeaconNotifyInd
                0x0000f3d6        0xe ./../../../../../../Atmel_lib/BitCloud_MEGARF_1_14_0/BitCloud/lib/libBc_EndDevice_Atmega128rfa1_Atmega128rfa1_Gcc.a(machwiManager.o)
                0x0000f3d6                machwiSendBeaconNotifyInd
 .text.machwiSendSyncLossNotifyInd
                0x0000f3e4        0xe ./../../../../../../Atmel_lib/BitCloud_MEGARF_1_14_0/BitCloud/lib/libBc_EndDevice_Atmega128rfa1_Atmega128rfa1_Gcc.a(machwiManager.o)
                0x0000f3e4                machwiSendSyncLossNotifyInd
 .text.MACHWD_DataInd
                0x0000f3f2       0x34 ./../../../../../../Atmel_lib/BitCloud_MEGARF_1_14_0/BitCloud/lib/libBc_EndDevice_Atmega128rfa1_Atmega128rfa1_Gcc.a(machwiPanServer.o)
                0x0000f3f2                MACHWD_DataInd
 .text.switchingCompleted
                0x0000f426       0x12 ./../../../../../../Atmel_lib/BitCloud_MEGARF_1_14_0/BitCloud/lib/libBc_EndDevice_Atmega128rfa1_Atmega128rfa1_Gcc.a(machwiPollHandler.o)
 .text.completeHandling
                0x0000f438       0x18 ./../../../../../../Atmel_lib/BitCloud_MEGARF_1_14_0/BitCloud/lib/libBc_EndDevice_Atmega128rfa1_Atmega128rfa1_Gcc.a(machwiPollHandler.o)
 .text.machwdDataConfirm
                0x0000f450       0x6e ./../../../../../../Atmel_lib/BitCloud_MEGARF_1_14_0/BitCloud/lib/libBc_EndDevice_Atmega128rfa1_Atmega128rfa1_Gcc.a(machwiPollHandler.o)
 .text.halPollTimerFired
                0x0000f4be        0x6 ./../../../../../../Atmel_lib/BitCloud_MEGARF_1_14_0/BitCloud/lib/libBc_EndDevice_Atmega128rfa1_Atmega128rfa1_Gcc.a(machwiPollHandler.o)
 .text.machwiResetPollHandler
                0x0000f4c4        0x6 ./../../../../../../Atmel_lib/BitCloud_MEGARF_1_14_0/BitCloud/lib/libBc_EndDevice_Atmega128rfa1_Atmega128rfa1_Gcc.a(machwiPollHandler.o)
                0x0000f4c4                machwiResetPollHandler
 .text.machwiDataIndication
                0x0000f4ca      0x1cc ./../../../../../../Atmel_lib/BitCloud_MEGARF_1_14_0/BitCloud/lib/libBc_EndDevice_Atmega128rfa1_Atmega128rfa1_Gcc.a(machwiPollHandler.o)
                0x0000f4ca                machwiDataIndication
 .text.machwiPollReqHandler
                0x0000f696      0x15c ./../../../../../../Atmel_lib/BitCloud_MEGARF_1_14_0/BitCloud/lib/libBc_EndDevice_Atmega128rfa1_Atmega128rfa1_Gcc.a(machwiPollHandler.o)
                0x0000f696                machwiPollReqHandler
 .text.finishResetOperationsAndGenerateConfirm
                0x0000f7f2        0xe ./../../../../../../Atmel_lib/BitCloud_MEGARF_1_14_0/BitCloud/lib/libBc_EndDevice_Atmega128rfa1_Atmega128rfa1_Gcc.a(machwiResetHandler.o)
 .text.machwdSetTrxStateConfirm
                0x0000f800        0x6 ./../../../../../../Atmel_lib/BitCloud_MEGARF_1_14_0/BitCloud/lib/libBc_EndDevice_Atmega128rfa1_Atmega128rfa1_Gcc.a(machwiResetHandler.o)
 .text.machwdSetConfirm
                0x0000f806       0x1c ./../../../../../../Atmel_lib/BitCloud_MEGARF_1_14_0/BitCloud/lib/libBc_EndDevice_Atmega128rfa1_Atmega128rfa1_Gcc.a(machwiResetHandler.o)
 .text.machwiResetReqHandler
                0x0000f822       0x5a ./../../../../../../Atmel_lib/BitCloud_MEGARF_1_14_0/BitCloud/lib/libBc_EndDevice_Atmega128rfa1_Atmega128rfa1_Gcc.a(machwiResetHandler.o)
                0x0000f822                machwiResetReqHandler
 .text.machwdSetTrxStateConfirm
                0x0000f87c       0x12 ./../../../../../../Atmel_lib/BitCloud_MEGARF_1_14_0/BitCloud/lib/libBc_EndDevice_Atmega128rfa1_Atmega128rfa1_Gcc.a(machwiRxEnableHandler.o)
 .text.machwiRxEnableReqHandler
                0x0000f88e       0x3a ./../../../../../../Atmel_lib/BitCloud_MEGARF_1_14_0/BitCloud/lib/libBc_EndDevice_Atmega128rfa1_Atmega128rfa1_Gcc.a(machwiRxEnableHandler.o)
                0x0000f88e                machwiRxEnableReqHandler
 .text.setNextChannel
                0x0000f8c8       0x7a ./../../../../../../Atmel_lib/BitCloud_MEGARF_1_14_0/BitCloud/lib/libBc_EndDevice_Atmega128rfa1_Atmega128rfa1_Gcc.a(machwiScanHandler.o)
 .text.switchToActiveChannel
                0x0000f942       0x2c ./../../../../../../Atmel_lib/BitCloud_MEGARF_1_14_0/BitCloud/lib/libBc_EndDevice_Atmega128rfa1_Atmega128rfa1_Gcc.a(machwiScanHandler.o)
 .text.halScanTimerFired
                0x0000f96e       0x2a ./../../../../../../Atmel_lib/BitCloud_MEGARF_1_14_0/BitCloud/lib/libBc_EndDevice_Atmega128rfa1_Atmega128rfa1_Gcc.a(machwiScanHandler.o)
 .text.machwdDataConfirm
                0x0000f998       0x76 ./../../../../../../Atmel_lib/BitCloud_MEGARF_1_14_0/BitCloud/lib/libBc_EndDevice_Atmega128rfa1_Atmega128rfa1_Gcc.a(machwiScanHandler.o)
 .text.machwdEdConfirm
                0x0000fa0e       0xf0 ./../../../../../../Atmel_lib/BitCloud_MEGARF_1_14_0/BitCloud/lib/libBc_EndDevice_Atmega128rfa1_Atmega128rfa1_Gcc.a(machwiScanHandler.o)
 .text.trxStateHandling
                0x0000fafe       0x1a ./../../../../../../Atmel_lib/BitCloud_MEGARF_1_14_0/BitCloud/lib/libBc_EndDevice_Atmega128rfa1_Atmega128rfa1_Gcc.a(machwiScanHandler.o)
 .text.finishScan
                0x0000fb18        0xe ./../../../../../../Atmel_lib/BitCloud_MEGARF_1_14_0/BitCloud/lib/libBc_EndDevice_Atmega128rfa1_Atmega128rfa1_Gcc.a(machwiScanHandler.o)
 .text.generateScanConfirm
                0x0000fb26       0x12 ./../../../../../../Atmel_lib/BitCloud_MEGARF_1_14_0/BitCloud/lib/libBc_EndDevice_Atmega128rfa1_Atmega128rfa1_Gcc.a(machwiScanHandler.o)
 .text.machwdSetConfirm
                0x0000fb38      0x2ea ./../../../../../../Atmel_lib/BitCloud_MEGARF_1_14_0/BitCloud/lib/libBc_EndDevice_Atmega128rfa1_Atmega128rfa1_Gcc.a(machwiScanHandler.o)
 .text.machwdSetTrxStateConfirm
                0x0000fe22       0xf2 ./../../../../../../Atmel_lib/BitCloud_MEGARF_1_14_0/BitCloud/lib/libBc_EndDevice_Atmega128rfa1_Atmega128rfa1_Gcc.a(machwiScanHandler.o)
 .text.machwiScanReqHandler
                0x0000ff14      0x1a0 ./../../../../../../Atmel_lib/BitCloud_MEGARF_1_14_0/BitCloud/lib/libBc_EndDevice_Atmega128rfa1_Atmega128rfa1_Gcc.a(machwiScanHandler.o)
                0x0000ff14                machwiScanReqHandler
 .text.machwiBeaconInd
                0x000100b4      0x2da ./../../../../../../Atmel_lib/BitCloud_MEGARF_1_14_0/BitCloud/lib/libBc_EndDevice_Atmega128rfa1_Atmega128rfa1_Gcc.a(machwiScanHandler.o)
                0x000100b4                machwiBeaconInd
 .text.machwiCoordRealignmentCommandInd
                0x0001038e       0xe6 ./../../../../../../Atmel_lib/BitCloud_MEGARF_1_14_0/BitCloud/lib/libBc_EndDevice_Atmega128rfa1_Atmega128rfa1_Gcc.a(machwiScanHandler.o)
                0x0001038e                machwiCoordRealignmentCommandInd
 .text.machwiResetScanHandler
                0x00010474        0x6 ./../../../../../../Atmel_lib/BitCloud_MEGARF_1_14_0/BitCloud/lib/libBc_EndDevice_Atmega128rfa1_Atmega128rfa1_Gcc.a(machwiScanHandler.o)
                0x00010474                machwiResetScanHandler
 .text.machwdSetConfirm
                0x0001047a        0xe ./../../../../../../Atmel_lib/BitCloud_MEGARF_1_14_0/BitCloud/lib/libBc_EndDevice_Atmega128rfa1_Atmega128rfa1_Gcc.a(machwiSetGetHandler.o)
 .text.machwiGetReqHandler
                0x00010488       0x4c ./../../../../../../Atmel_lib/BitCloud_MEGARF_1_14_0/BitCloud/lib/libBc_EndDevice_Atmega128rfa1_Atmega128rfa1_Gcc.a(machwiSetGetHandler.o)
                0x00010488                machwiGetReqHandler
 .text.machwiSetReqHandler
                0x000104d4       0xae ./../../../../../../Atmel_lib/BitCloud_MEGARF_1_14_0/BitCloud/lib/libBc_EndDevice_Atmega128rfa1_Atmega128rfa1_Gcc.a(machwiSetGetHandler.o)
                0x000104d4                machwiSetReqHandler
 .text.machwdSetTrxStateConfirm
                0x00010582        0xc ./../../../../../../Atmel_lib/BitCloud_MEGARF_1_14_0/BitCloud/lib/libBc_EndDevice_Atmega128rfa1_Atmega128rfa1_Gcc.a(machwiSwitchRxCtrl.o)
 .text.machwiSwitchRxAccordToRxOnWhenIdle
                0x0001058e       0x2a ./../../../../../../Atmel_lib/BitCloud_MEGARF_1_14_0/BitCloud/lib/libBc_EndDevice_Atmega128rfa1_Atmega128rfa1_Gcc.a(machwiSwitchRxCtrl.o)
                0x0001058e                machwiSwitchRxAccordToRxOnWhenIdle
 .text.RF_Init  0x000105b8       0x2e ./../../../../../../Atmel_lib/BitCloud_MEGARF_1_14_0/BitCloud/lib/libBc_EndDevice_Atmega128rfa1_Atmega128rfa1_Gcc.a(phyInit.o)
                0x000105b8                RF_Init
 .text.PHY_RegWriteReq
                0x000105e6       0x3c ./../../../../../../Atmel_lib/BitCloud_MEGARF_1_14_0/BitCloud/lib/libBc_EndDevice_Atmega128rfa1_Atmega128rfa1_Gcc.a(phyRegAccess.o)
                0x000105e6                PHY_RegWriteReq
 .text.PHY_RegReadReq
                0x00010622       0x3c ./../../../../../../Atmel_lib/BitCloud_MEGARF_1_14_0/BitCloud/lib/libBc_EndDevice_Atmega128rfa1_Atmega128rfa1_Gcc.a(phyRegAccess.o)
                0x00010622                PHY_RegReadReq
 .text.PHY_Reset
                0x0001065e       0xae ./../../../../../../Atmel_lib/BitCloud_MEGARF_1_14_0/BitCloud/lib/libBc_EndDevice_Atmega128rfa1_Atmega128rfa1_Gcc.a(phyReset.o)
                0x0001065e                PHY_Reset
 .text.phyRxEndInterrupt
                0x0001070c       0xee ./../../../../../../Atmel_lib/BitCloud_MEGARF_1_14_0/BitCloud/lib/libBc_EndDevice_Atmega128rfa1_Atmega128rfa1_Gcc.a(phyRfIrqDispatcher.o)
                0x0001070c                phyRxEndInterrupt
 .text.phyTxEndInterrupt
                0x000107fa       0x8a ./../../../../../../Atmel_lib/BitCloud_MEGARF_1_14_0/BitCloud/lib/libBc_EndDevice_Atmega128rfa1_Atmega128rfa1_Gcc.a(phyRfIrqDispatcher.o)
                0x000107fa                phyTxEndInterrupt
 .text.phyRestoreRfIrqMask
                0x00010884        0x6 ./../../../../../../Atmel_lib/BitCloud_MEGARF_1_14_0/BitCloud/lib/libBc_EndDevice_Atmega128rfa1_Atmega128rfa1_Gcc.a(phyRfIrqDispatcher.o)
                0x00010884                phyRestoreRfIrqMask
 .text.phyClearRfIrqMask
                0x0001088a        0xa ./../../../../../../Atmel_lib/BitCloud_MEGARF_1_14_0/BitCloud/lib/libBc_EndDevice_Atmega128rfa1_Atmega128rfa1_Gcc.a(phyRfIrqDispatcher.o)
                0x0001088a                phyClearRfIrqMask
 .text.phyGetDataStatus
                0x00010894       0x16 ./../../../../../../Atmel_lib/BitCloud_MEGARF_1_14_0/BitCloud/lib/libBc_EndDevice_Atmega128rfa1_Atmega128rfa1_Gcc.a(phyRfIrqDispatcher.o)
                0x00010894                phyGetDataStatus
 .text.PHY_RndReq
                0x000108aa       0xee ./../../../../../../Atmel_lib/BitCloud_MEGARF_1_14_0/BitCloud/lib/libBc_EndDevice_Atmega128rfa1_Atmega128rfa1_Gcc.a(phyRnd.o)
                0x000108aa                PHY_RndReq
 .text.PHY_DownloadFrame
                0x00010998      0x186 ./../../../../../../Atmel_lib/BitCloud_MEGARF_1_14_0/BitCloud/lib/libBc_EndDevice_Atmega128rfa1_Atmega128rfa1_Gcc.a(phyRxFrame.o)
                0x00010998                PHY_DownloadFrame
 .text.PHY_SetReq
                0x00010b1e      0x1f2 ./../../../../../../Atmel_lib/BitCloud_MEGARF_1_14_0/BitCloud/lib/libBc_EndDevice_Atmega128rfa1_Atmega128rfa1_Gcc.a(phySet.o)
                0x00010b1e                PHY_SetReq
 .text.PHY_SetTrxStateReq
                0x00010d10       0x80 ./../../../../../../Atmel_lib/BitCloud_MEGARF_1_14_0/BitCloud/lib/libBc_EndDevice_Atmega128rfa1_Atmega128rfa1_Gcc.a(phySetTrxState.o)
                0x00010d10                PHY_SetTrxStateReq
 .text.PHY_DataReq
                0x00010d90       0x28 ./../../../../../../Atmel_lib/BitCloud_MEGARF_1_14_0/BitCloud/lib/libBc_EndDevice_Atmega128rfa1_Atmega128rfa1_Gcc.a(phyTxFrame.o)
                0x00010d90                PHY_DataReq
 .text.machwdCalibReqHandler
                0x00010db8       0x42 ./../../../../../../Atmel_lib/BitCloud_MEGARF_1_14_0/BitCloud/lib/libBc_EndDevice_Atmega128rfa1_Atmega128rfa1_Gcc.a(machwdCalibHandler.o)
                0x00010db8                machwdCalibReqHandler
 .text.machwdCalibTaskHandler
                0x00010dfa       0x34 ./../../../../../../Atmel_lib/BitCloud_MEGARF_1_14_0/BitCloud/lib/libBc_EndDevice_Atmega128rfa1_Atmega128rfa1_Gcc.a(machwdCalibHandler.o)
                0x00010dfa                machwdCalibTaskHandler
 .text.machwdResetCalibHandler
                0x00010e2e        0x6 ./../../../../../../Atmel_lib/BitCloud_MEGARF_1_14_0/BitCloud/lib/libBc_EndDevice_Atmega128rfa1_Atmega128rfa1_Gcc.a(machwdCalibHandler.o)
                0x00010e2e                machwdResetCalibHandler
 .text.machwdEdReqHandler
                0x00010e34       0x28 ./../../../../../../Atmel_lib/BitCloud_MEGARF_1_14_0/BitCloud/lib/libBc_EndDevice_Atmega128rfa1_Atmega128rfa1_Gcc.a(machwdEdHandler.o)
                0x00010e34                machwdEdReqHandler
 .text.machwdEdTaskHandler
                0x00010e5c       0x28 ./../../../../../../Atmel_lib/BitCloud_MEGARF_1_14_0/BitCloud/lib/libBc_EndDevice_Atmega128rfa1_Atmega128rfa1_Gcc.a(machwdEdHandler.o)
                0x00010e5c                machwdEdTaskHandler
 .text.machwdResetEdHandler
                0x00010e84        0x6 ./../../../../../../Atmel_lib/BitCloud_MEGARF_1_14_0/BitCloud/lib/libBc_EndDevice_Atmega128rfa1_Atmega128rfa1_Gcc.a(machwdEdHandler.o)
                0x00010e84                machwdResetEdHandler
 .text.composePanIdAndAddress
                0x00010e8a       0x56 ./../../../../../../Atmel_lib/BitCloud_MEGARF_1_14_0/BitCloud/lib/libBc_EndDevice_Atmega128rfa1_Atmega128rfa1_Gcc.a(machwdFrameRoutine.o)
 .text.parsePanIdAndAddress
                0x00010ee0       0x58 ./../../../../../../Atmel_lib/BitCloud_MEGARF_1_14_0/BitCloud/lib/libBc_EndDevice_Atmega128rfa1_Atmega128rfa1_Gcc.a(machwdFrameRoutine.o)
 .text.machwdParseFrame
                0x00010f38      0x242 ./../../../../../../Atmel_lib/BitCloud_MEGARF_1_14_0/BitCloud/lib/libBc_EndDevice_Atmega128rfa1_Atmega128rfa1_Gcc.a(machwdFrameRoutine.o)
                0x00010f38                machwdParseFrame
 .text.machwdComposeFrame
                0x0001117a      0x184 ./../../../../../../Atmel_lib/BitCloud_MEGARF_1_14_0/BitCloud/lib/libBc_EndDevice_Atmega128rfa1_Atmega128rfa1_Gcc.a(machwdFrameRoutine.o)
                0x0001117a                machwdComposeFrame
 .text.machwdGetHandlerId
                0x000112fe       0x48 ./../../../../../../Atmel_lib/BitCloud_MEGARF_1_14_0/BitCloud/lib/libBc_EndDevice_Atmega128rfa1_Atmega128rfa1_Gcc.a(machwdHandlerCtrl.o)
                0x000112fe                machwdGetHandlerId
 .text.setHandling
                0x00011346       0x64 ./../../../../../../Atmel_lib/BitCloud_MEGARF_1_14_0/BitCloud/lib/libBc_EndDevice_Atmega128rfa1_Atmega128rfa1_Gcc.a(machwiAssociateHandler.o)
 .text.completeHandling
                0x000113aa       0x18 ./../../../../../../Atmel_lib/BitCloud_MEGARF_1_14_0/BitCloud/lib/libBc_EndDevice_Atmega128rfa1_Atmega128rfa1_Gcc.a(machwiAssociateHandler.o)
 .text.machwdSetConfirm
                0x000113c2      0x18c ./../../../../../../Atmel_lib/BitCloud_MEGARF_1_14_0/BitCloud/lib/libBc_EndDevice_Atmega128rfa1_Atmega128rfa1_Gcc.a(machwiAssociateHandler.o)
 .text.machwdDataConfirm
                0x0001154e       0xba ./../../../../../../Atmel_lib/BitCloud_MEGARF_1_14_0/BitCloud/lib/libBc_EndDevice_Atmega128rfa1_Atmega128rfa1_Gcc.a(machwiAssociateHandler.o)
 .text.associateTimerFired
                0x00011608      0x100 ./../../../../../../Atmel_lib/BitCloud_MEGARF_1_14_0/BitCloud/lib/libBc_EndDevice_Atmega128rfa1_Atmega128rfa1_Gcc.a(machwiAssociateHandler.o)
 .text.switchingCompleted
                0x00011708       0x12 ./../../../../../../Atmel_lib/BitCloud_MEGARF_1_14_0/BitCloud/lib/libBc_EndDevice_Atmega128rfa1_Atmega128rfa1_Gcc.a(machwiAssociateHandler.o)
 .text.machwiResetAssociateHandler
                0x0001171a        0x6 ./../../../../../../Atmel_lib/BitCloud_MEGARF_1_14_0/BitCloud/lib/libBc_EndDevice_Atmega128rfa1_Atmega128rfa1_Gcc.a(machwiAssociateHandler.o)
                0x0001171a                machwiResetAssociateHandler
 .text.machwiAssociateReqHandler
                0x00011720       0x9a ./../../../../../../Atmel_lib/BitCloud_MEGARF_1_14_0/BitCloud/lib/libBc_EndDevice_Atmega128rfa1_Atmega128rfa1_Gcc.a(machwiAssociateHandler.o)
                0x00011720                machwiAssociateReqHandler
 .text.machwiAssociateRespInd
                0x000117ba      0x132 ./../../../../../../Atmel_lib/BitCloud_MEGARF_1_14_0/BitCloud/lib/libBc_EndDevice_Atmega128rfa1_Atmega128rfa1_Gcc.a(machwiAssociateHandler.o)
                0x000117ba                machwiAssociateRespInd
 .text.machwdDataConfirm
                0x000118ec       0x26 ./../../../../../../Atmel_lib/BitCloud_MEGARF_1_14_0/BitCloud/lib/libBc_EndDevice_Atmega128rfa1_Atmega128rfa1_Gcc.a(machwiDataHandler.o)
 .text.machwiConvertmachwdDataConfirmTypes
                0x00011912       0x14 ./../../../../../../Atmel_lib/BitCloud_MEGARF_1_14_0/BitCloud/lib/libBc_EndDevice_Atmega128rfa1_Atmega128rfa1_Gcc.a(machwiDataHandler.o)
                0x00011912                machwiConvertmachwdDataConfirmTypes
 .text.machwiPrepareDataFrame
                0x00011926      0x10e ./../../../../../../Atmel_lib/BitCloud_MEGARF_1_14_0/BitCloud/lib/libBc_EndDevice_Atmega128rfa1_Atmega128rfa1_Gcc.a(machwiDataHandler.o)
                0x00011926                machwiPrepareDataFrame
 .text.machwiDataReqHandler
                0x00011a34       0x54 ./../../../../../../Atmel_lib/BitCloud_MEGARF_1_14_0/BitCloud/lib/libBc_EndDevice_Atmega128rfa1_Atmega128rfa1_Gcc.a(machwiDataHandler.o)
                0x00011a34                machwiDataReqHandler
 .text.PHY_CalibReq
                0x00011a88       0x86 ./../../../../../../Atmel_lib/BitCloud_MEGARF_1_14_0/BitCloud/lib/libBc_EndDevice_Atmega128rfa1_Atmega128rfa1_Gcc.a(phyCalib.o)
                0x00011a88                PHY_CalibReq
 .text.PHY_EdReq
                0x00011b0e       0x40 ./../../../../../../Atmel_lib/BitCloud_MEGARF_1_14_0/BitCloud/lib/libBc_EndDevice_Atmega128rfa1_Atmega128rfa1_Gcc.a(phyEd.o)
                0x00011b0e                PHY_EdReq
 .text.phySetRTimerSource
                0x00011b4e        0x6 ./../../../../../../Atmel_lib/BitCloud_MEGARF_1_14_0/BitCloud/lib/libBc_EndDevice_Atmega128rfa1_Atmega128rfa1_Gcc.a(phyRtimerIrqDispatcher.o)
                0x00011b4e                phySetRTimerSource
 .text.phyDispatcheRTimerEvent
                0x00011b54       0xa8 ./../../../../../../Atmel_lib/BitCloud_MEGARF_1_14_0/BitCloud/lib/libBc_EndDevice_Atmega128rfa1_Atmega128rfa1_Gcc.a(phyRtimerIrqDispatcher.o)
                0x00011b54                phyDispatcheRTimerEvent
 .text.HAL_Init
                0x00011bfc       0x3c ./../../../../../../Atmel_lib/BitCloud_MEGARF_1_14_0/BitCloud/lib/libHAL_AtmlStk600_Atmega128rfa1_8Mhz_Gcc.a(halInit.o)
                0x00011bfc                HAL_Init
 .text.HAL_EnableRxTxSwitcher
                0x00011c38        0x6 ./../../../../../../Atmel_lib/BitCloud_MEGARF_1_14_0/BitCloud/lib/libHAL_AtmlStk600_Atmega128rfa1_8Mhz_Gcc.a(halRfCtrl.o)
                0x00011c38                HAL_EnableRxTxSwitcher
 .text.HAL_InitAntennaDiversity
                0x00011c3e        0x2 ./../../../../../../Atmel_lib/BitCloud_MEGARF_1_14_0/BitCloud/lib/libHAL_AtmlStk600_Atmega128rfa1_8Mhz_Gcc.a(halRfCtrl.o)
                0x00011c3e                HAL_InitAntennaDiversity
 .text.HAL_EnableRxAntennaDiversity
                0x00011c40        0x2 ./../../../../../../Atmel_lib/BitCloud_MEGARF_1_14_0/BitCloud/lib/libHAL_AtmlStk600_Atmega128rfa1_8Mhz_Gcc.a(halRfCtrl.o)
                0x00011c40                HAL_EnableRxAntennaDiversity
 .text.HAL_EnableTxAntennaDiversity
                0x00011c42        0x2 ./../../../../../../Atmel_lib/BitCloud_MEGARF_1_14_0/BitCloud/lib/libHAL_AtmlStk600_Atmega128rfa1_8Mhz_Gcc.a(halRfCtrl.o)
                0x00011c42                HAL_EnableTxAntennaDiversity
 .text.halReadUid
                0x00011c44      0x144 ./../../../../../../Atmel_lib/BitCloud_MEGARF_1_14_0/BitCloud/lib/libHAL_AtmlStk600_Atmega128rfa1_8Mhz_Gcc.a(halUid.o)
                0x00011c44                halReadUid
 .text.HAL_ReadUid
                0x00011d88       0x44 ./../../../../../../Atmel_lib/BitCloud_MEGARF_1_14_0/BitCloud/lib/libHAL_AtmlStk600_Atmega128rfa1_8Mhz_Gcc.a(halUid.o)
                0x00011d88                HAL_ReadUid
 .text.HAL_InitMacIsr
                0x00011dcc        0x8 ./../../../../../../Atmel_lib/BitCloud_MEGARF_1_14_0/BitCloud/lib/libHAL_AtmlStk600_Atmega128rfa1_8Mhz_Gcc.a(halMacIsr.o)
                0x00011dcc                HAL_InitMacIsr
 .text.HAL_StartRtimer
                0x00011dd4       0x72 ./../../../../../../Atmel_lib/BitCloud_MEGARF_1_14_0/BitCloud/lib/libHAL_AtmlStk600_Atmega128rfa1_8Mhz_Gcc.a(halMacIsr.o)
                0x00011dd4                HAL_StartRtimer
 .text.HAL_StopRtimer
                0x00011e46       0x14 ./../../../../../../Atmel_lib/BitCloud_MEGARF_1_14_0/BitCloud/lib/libHAL_AtmlStk600_Atmega128rfa1_8Mhz_Gcc.a(halMacIsr.o)
                0x00011e46                HAL_StopRtimer
 .text.__vector_43
                0x00011e5a       0xba ./../../../../../../Atmel_lib/BitCloud_MEGARF_1_14_0/BitCloud/lib/libHAL_AtmlStk600_Atmega128rfa1_8Mhz_Gcc.a(halMacIsr.o)
                0x00011e5a                __vector_43
 .text.__vector_60
                0x00011f14       0x50 ./../../../../../../Atmel_lib/BitCloud_MEGARF_1_14_0/BitCloud/lib/libHAL_AtmlStk600_Atmega128rfa1_8Mhz_Gcc.a(halMacIsr.o)
                0x00011f14                __vector_60
 .text.__vector_63
                0x00011f64       0x50 ./../../../../../../Atmel_lib/BitCloud_MEGARF_1_14_0/BitCloud/lib/libHAL_AtmlStk600_Atmega128rfa1_8Mhz_Gcc.a(halMacIsr.o)
                0x00011f64                __vector_63
 .text.libgcc   0x00011fb4       0x3e c:/program files (x86)/atmel/avr tools/avr toolchain/bin/../lib/gcc/avr/4.5.1/avr51\libgcc.a(_mulsi3.o)
                0x00011fb4                __mulsi3
 .text.libgcc   0x00011ff2       0x18 c:/program files (x86)/atmel/avr tools/avr toolchain/bin/../lib/gcc/avr/4.5.1/avr51\libgcc.a(_udivmodqi4.o)
                0x00011ff2                __udivmodqi4
 .text.libgcc   0x0001200a       0x28 c:/program files (x86)/atmel/avr tools/avr toolchain/bin/../lib/gcc/avr/4.5.1/avr51\libgcc.a(_udivmodhi4.o)
                0x0001200a                __udivmodhi4
 .text.libgcc   0x00012032       0x44 c:/program files (x86)/atmel/avr tools/avr toolchain/bin/../lib/gcc/avr/4.5.1/avr51\libgcc.a(_udivmodsi4.o)
                0x00012032                __udivmodsi4
 .text.libgcc   0x00012076       0x38 c:/program files (x86)/atmel/avr tools/avr toolchain/bin/../lib/gcc/avr/4.5.1/avr51\libgcc.a(_prologue.o)
                0x00012076                __prologue_saves__
 .text.libgcc   0x000120ae       0x36 c:/program files (x86)/atmel/avr tools/avr toolchain/bin/../lib/gcc/avr/4.5.1/avr51\libgcc.a(_epilogue.o)
                0x000120ae                __epilogue_restores__
 .text.libgcc   0x000120e4        0xc c:/program files (x86)/atmel/avr tools/avr toolchain/bin/../lib/gcc/avr/4.5.1/avr51\libgcc.a(_tablejump.o)
                0x000120e4                __tablejump2__
                0x000120e8                __tablejump__
 .text.avr-libc
                0x000120f0       0xbc c:/program files (x86)/atmel/avr tools/avr toolchain/bin/../lib/gcc/avr/4.5.1/../../../../avr/lib/avr51\libc.a(rand.o)
                0x00012186                rand_r
                0x0001218c                rand
                0x00012196                srand
 .text.avr-libc
                0x000121ac       0x12 c:/program files (x86)/atmel/avr tools/avr toolchain/bin/../lib/gcc/avr/4.5.1/../../../../avr/lib/avr51\libc.a(memcpy_P.o)
                0x000121ac                memcpy_P
 .text.avr-libc
                0x000121be       0x1a c:/program files (x86)/atmel/avr tools/avr toolchain/bin/../lib/gcc/avr/4.5.1/../../../../avr/lib/avr51\libc.a(memcmp.o)
                0x000121be                memcmp
 .text.avr-libc
                0x000121d8       0x12 c:/program files (x86)/atmel/avr tools/avr toolchain/bin/../lib/gcc/avr/4.5.1/../../../../avr/lib/avr51\libc.a(memcpy.o)
                0x000121d8                memcpy
 .text.avr-libc
                0x000121ea       0x24 c:/program files (x86)/atmel/avr tools/avr toolchain/bin/../lib/gcc/avr/4.5.1/../../../../avr/lib/avr51\libc.a(memmove.o)
                0x000121ea                memmove
 .text.avr-libc
                0x0001220e        0xe c:/program files (x86)/atmel/avr tools/avr toolchain/bin/../lib/gcc/avr/4.5.1/../../../../avr/lib/avr51\libc.a(memset.o)
                0x0001220e                memset
 .text.libgcc   0x0001221c       0x36 c:/program files (x86)/atmel/avr tools/avr toolchain/bin/../lib/gcc/avr/4.5.1/avr51\libgcc.a(_divmodsi4.o)
                0x0001221c                __divmodsi4
                0x00012252                PROVIDE (__text_end, .)

.data           0x00800200       0xa6 load address 0x00012252
                0x00800200                PROVIDE (__data_start, .)
 *(.data*)
 .data          0x00800200       0x35 EndDevice_Stk600_Atmega128rfa1_8Mhz_Gcc/Obj/WSNDemoApp.o
                0x00800200                appNwkInfo
 .data          0x00800235        0x6 ./../../../../../../Atmel_lib/BitCloud_MEGARF_1_14_0/BitCloud/lib/libBc_EndDevice_Atmega128rfa1_Atmega128rfa1_Gcc.a(nwk.o)
 .data          0x0080023b       0x16 ./../../../../../../Atmel_lib/BitCloud_MEGARF_1_14_0/BitCloud/lib/libBc_EndDevice_Atmega128rfa1_Atmega128rfa1_Gcc.a(taskManager.o)
 .data          0x00800251       0x26 ./../../../../../../Atmel_lib/BitCloud_MEGARF_1_14_0/BitCloud/lib/libBc_EndDevice_Atmega128rfa1_Atmega128rfa1_Gcc.a(zdo.o)
 .data          0x00800277       0x18 ./../../../../../../Atmel_lib/BitCloud_MEGARF_1_14_0/BitCloud/lib/libBc_EndDevice_Atmega128rfa1_Atmega128rfa1_Gcc.a(machwdTrxCtrl.o)
 .data          0x0080028f        0x5 ./../../../../../../Atmel_lib/BitCloud_MEGARF_1_14_0/BitCloud/lib/libBc_EndDevice_Atmega128rfa1_Atmega128rfa1_Gcc.a(machwiSetGetHandler.o)
 .data          0x00800294        0x8 ./../../../../../../Atmel_lib/BitCloud_MEGARF_1_14_0/BitCloud/lib/libBc_EndDevice_Atmega128rfa1_Atmega128rfa1_Gcc.a(phyRfIrqDispatcher.o)
 .data          0x0080029c        0x2 ./../../../../../../Atmel_lib/BitCloud_MEGARF_1_14_0/BitCloud/lib/libBc_EndDevice_Atmega128rfa1_Atmega128rfa1_Gcc.a(machwdFrameRoutine.o)
 .data          0x0080029e        0x4 ./../../../../../../Atmel_lib/BitCloud_MEGARF_1_14_0/BitCloud/lib/libBc_EndDevice_Atmega128rfa1_Atmega128rfa1_Gcc.a(machwiDataHandler.o)
 .data          0x008002a2        0x4 c:/program files (x86)/atmel/avr tools/avr toolchain/bin/../lib/gcc/avr/4.5.1/../../../../avr/lib/avr51\libc.a(rand.o)
 *(.rodata*)
 *(.gnu.linkonce.d*)
                0x008002a6                . = ALIGN (0x2)
                0x008002a6                PROVIDE (__data_end, .)

.bss            0x008002a6     0x129b load address 0x000122f8
                0x008002a6                PROVIDE (__bss_start, .)
 *(.bss*)
 .bss           0x008002a6        0x2 EndDevice_Stk600_Atmega128rfa1_8Mhz_Gcc/Obj/WSNSensorManager.o
 .bss           0x008002a8       0x11 EndDevice_Stk600_Atmega128rfa1_8Mhz_Gcc/Obj/WSNEndDevice.o
 .bss           0x008002b9       0xfe EndDevice_Stk600_Atmega128rfa1_8Mhz_Gcc/Obj/WSNMessageSender.o
 .bss           0x008003b7       0xe4 EndDevice_Stk600_Atmega128rfa1_8Mhz_Gcc/Obj/WSNCommandHandler.o
 .bss           0x0080049b      0x11c EndDevice_Stk600_Atmega128rfa1_8Mhz_Gcc/Obj/WSNDemoApp.o
 .bss           0x008005b7        0x8 EndDevice_Stk600_Atmega128rfa1_8Mhz_Gcc/Obj/pdsWriteData.o
 .bss           0x008005bf       0x1a EndDevice_Stk600_Atmega128rfa1_8Mhz_Gcc/Obj/buttons.o
 .bss           0x008005d9        0x1 EndDevice_Stk600_Atmega128rfa1_8Mhz_Gcc/Obj/bspTaskManager.o
                0x008005d9                bspTaskFlags
 .bss           0x008005da        0x2 ./../../../../../../Atmel_lib/BitCloud_MEGARF_1_14_0/BitCloud/lib/libHAL_AtmlStk600_Atmega128rfa1_8Mhz_Gcc.a(appTimer.o)
 .bss           0x008005dc        0x1 ./../../../../../../Atmel_lib/BitCloud_MEGARF_1_14_0/BitCloud/lib/libHAL_AtmlStk600_Atmega128rfa1_8Mhz_Gcc.a(eeprom.o)
                0x008005dc                halEepromState
 .bss           0x008005dd        0x9 ./../../../../../../Atmel_lib/BitCloud_MEGARF_1_14_0/BitCloud/lib/libHAL_AtmlStk600_Atmega128rfa1_8Mhz_Gcc.a(halSleepTimerClock.o)
                0x008005dd                halSleepTimerOvfw
 .bss           0x008005e6        0x6 ./../../../../../../Atmel_lib/BitCloud_MEGARF_1_14_0/BitCloud/lib/libHAL_AtmlStk600_Atmega128rfa1_8Mhz_Gcc.a(halAppClock.o)
                0x008005e6                halAppTimeOvfw
 .bss           0x008005ec       0x10 ./../../../../../../Atmel_lib/BitCloud_MEGARF_1_14_0/BitCloud/lib/libHAL_AtmlStk600_Atmega128rfa1_8Mhz_Gcc.a(halIrq.o)
                0x008005ec                IrqCallbackList
 .bss           0x008005fc        0x4 ./../../../../../../Atmel_lib/BitCloud_MEGARF_1_14_0/BitCloud/lib/libHAL_AtmlStk600_Atmega128rfa1_8Mhz_Gcc.a(halSleep.o)
 .bss           0x00800600        0x5 ./../../../../../../Atmel_lib/BitCloud_MEGARF_1_14_0/BitCloud/lib/libHAL_AtmlStk600_Atmega128rfa1_8Mhz_Gcc.a(halTaskManager.o)
                0x00800600                halTaskFlags0
                0x00800601                halTaskFlags1
                0x00800602                halTaskFlags2
                0x00800603                halTaskFlags3
                0x00800604                halTaskFlags4
 .bss           0x00800605        0x8 ./../../../../../../Atmel_lib/BitCloud_MEGARF_1_14_0/BitCloud/lib/libHAL_AtmlStk600_Atmega128rfa1_8Mhz_Gcc.a(usart.o)
                0x00800605                halPointDescrip
                0x00800609                halEnableDtrWakeUp
                0x0080060a                dtrWakeUpCallback
 .bss           0x0080060d        0x2 ./../../../../../../Atmel_lib/BitCloud_MEGARF_1_14_0/BitCloud/lib/libHAL_AtmlStk600_Atmega128rfa1_8Mhz_Gcc.a(i2cPacket.o)
 .bss           0x0080060f        0x2 ./../../../../../../Atmel_lib/BitCloud_MEGARF_1_14_0/BitCloud/lib/libHAL_AtmlStk600_Atmega128rfa1_8Mhz_Gcc.a(adc.o)
                0x0080060f                adcDesc
 .bss           0x00800611       0x10 ./../../../../../../Atmel_lib/BitCloud_MEGARF_1_14_0/BitCloud/lib/libHAL_AtmlStk600_Atmega128rfa1_8Mhz_Gcc.a(sleep.o)
                0x00800611                halSleepControl
 .bss           0x00800621        0x2 ./../../../../../../Atmel_lib/BitCloud_MEGARF_1_14_0/BitCloud/lib/libHAL_AtmlStk600_Atmega128rfa1_8Mhz_Gcc.a(halSecurityModule.o)
 .bss           0x00800623        0x1 ./../../../../../../Atmel_lib/BitCloud_MEGARF_1_14_0/BitCloud/lib/libHAL_AtmlStk600_Atmega128rfa1_8Mhz_Gcc.a(halClkCtrl.o)
 .bss           0x00800624        0x2 ./../../../../../../Atmel_lib/BitCloud_MEGARF_1_14_0/BitCloud/lib/libHAL_AtmlStk600_Atmega128rfa1_8Mhz_Gcc.a(halSpi.o)
                0x00800624                halRealSpiDescripPointer
 .bss           0x00800626       0x36 ./../../../../../../Atmel_lib/BitCloud_MEGARF_1_14_0/BitCloud/lib/libBc_EndDevice_Atmega128rfa1_Atmega128rfa1_Gcc.a(aps.o)
                0x00800626                apsState
 .bss           0x0080065c        0x1 ./../../../../../../Atmel_lib/BitCloud_MEGARF_1_14_0/BitCloud/lib/libBc_EndDevice_Atmega128rfa1_Atmega128rfa1_Gcc.a(phyStateMachine.o)
                0x0080065c                __wasRequest
 .bss           0x0080065d        0x6 ./../../../../../../Atmel_lib/BitCloud_MEGARF_1_14_0/BitCloud/lib/libBc_EndDevice_Atmega128rfa1_Atmega128rfa1_Gcc.a(sysEvents.o)
 .bss           0x00800663        0x2 ./../../../../../../Atmel_lib/BitCloud_MEGARF_1_14_0/BitCloud/lib/libBc_EndDevice_Atmega128rfa1_Atmega128rfa1_Gcc.a(taskManager.o)
                0x00800663                SYS_taskFlag
 .bss           0x00800665        0x4 ./../../../../../../Atmel_lib/BitCloud_MEGARF_1_14_0/BitCloud/lib/libBc_EndDevice_Atmega128rfa1_Atmega128rfa1_Gcc.a(machwdManager.o)
                0x00800665                __wasPostTask
 .bss           0x00800669        0x1 ./../../../../../../Atmel_lib/BitCloud_MEGARF_1_14_0/BitCloud/lib/libBc_EndDevice_Atmega128rfa1_Atmega128rfa1_Gcc.a(machwdRegAccessHandler.o)
 .bss           0x0080066a        0x1 ./../../../../../../Atmel_lib/BitCloud_MEGARF_1_14_0/BitCloud/lib/libBc_EndDevice_Atmega128rfa1_Atmega128rfa1_Gcc.a(machwdRndHandler.o)
 .bss           0x0080066b        0x4 ./../../../../../../Atmel_lib/BitCloud_MEGARF_1_14_0/BitCloud/lib/libBc_EndDevice_Atmega128rfa1_Atmega128rfa1_Gcc.a(machwdSetHandler.o)
 .bss           0x0080066f        0x1 ./../../../../../../Atmel_lib/BitCloud_MEGARF_1_14_0/BitCloud/lib/libBc_EndDevice_Atmega128rfa1_Atmega128rfa1_Gcc.a(machwdTrxHandler.o)
 .bss           0x00800670        0x2 ./../../../../../../Atmel_lib/BitCloud_MEGARF_1_14_0/BitCloud/lib/libBc_EndDevice_Atmega128rfa1_Atmega128rfa1_Gcc.a(machwdTxFrameHandler.o)
 .bss           0x00800672        0x1 ./../../../../../../Atmel_lib/BitCloud_MEGARF_1_14_0/BitCloud/lib/libBc_EndDevice_Atmega128rfa1_Atmega128rfa1_Gcc.a(machwiScanHandler.o)
 .bss           0x00800673        0x1 ./../../../../../../Atmel_lib/BitCloud_MEGARF_1_14_0/BitCloud/lib/libBc_EndDevice_Atmega128rfa1_Atmega128rfa1_Gcc.a(phyRfIrqDispatcher.o)
 .bss           0x00800674        0x1 ./../../../../../../Atmel_lib/BitCloud_MEGARF_1_14_0/BitCloud/lib/libBc_EndDevice_Atmega128rfa1_Atmega128rfa1_Gcc.a(phySet.o)
 .bss           0x00800675        0x1 ./../../../../../../Atmel_lib/BitCloud_MEGARF_1_14_0/BitCloud/lib/libBc_EndDevice_Atmega128rfa1_Atmega128rfa1_Gcc.a(machwdCalibHandler.o)
 .bss           0x00800676        0x1 ./../../../../../../Atmel_lib/BitCloud_MEGARF_1_14_0/BitCloud/lib/libBc_EndDevice_Atmega128rfa1_Atmega128rfa1_Gcc.a(machwdEdHandler.o)
 .bss           0x00800677        0x4 ./../../../../../../Atmel_lib/BitCloud_MEGARF_1_14_0/BitCloud/lib/libBc_EndDevice_Atmega128rfa1_Atmega128rfa1_Gcc.a(machwdHandlerCtrl.o)
                0x00800677                __handlers
                0x00800679                __macRequest
 .bss           0x0080067b        0x8 ./../../../../../../Atmel_lib/BitCloud_MEGARF_1_14_0/BitCloud/lib/libHAL_AtmlStk600_Atmega128rfa1_8Mhz_Gcc.a(halUid.o)
 *(COMMON)
 COMMON         0x00800683       0x2e EndDevice_Stk600_Atmega128rfa1_8Mhz_Gcc/Obj/pdsMem.o
                0x00800683                pdsMem
 COMMON         0x008006b1        0x6 EndDevice_Stk600_Atmega128rfa1_8Mhz_Gcc/Obj/fakeBSP.o
                0x008006b1                readBatteryDataCallback
                0x008006b3                readTemperatureDataCallback
                0x008006b5                readLightDataCallback
 COMMON         0x008006b7      0x866 EndDevice_Stk600_Atmega128rfa1_8Mhz_Gcc/Obj/csMem.o
                0x008006b7                stackBuffers
                0x00800df8                csAIB
                0x00800dfa                csZIB
                0x00800e29                csPIB
                0x00800e5b                csSIB
                0x00800e97                csNIB
 COMMON         0x00800f1d        0x8 ./../../../../../../Atmel_lib/BitCloud_MEGARF_1_14_0/BitCloud/lib/libHAL_AtmlStk600_Atmega128rfa1_8Mhz_Gcc.a(eeprom.o)
                0x00800f1d                halEepromParams
                0x00800f23                halEepromDone
 COMMON         0x00800f25        0x2 ./../../../../../../Atmel_lib/BitCloud_MEGARF_1_14_0/BitCloud/lib/libHAL_AtmlStk600_Atmega128rfa1_8Mhz_Gcc.a(halTaskManager.o)
                0x00800f25                extHandler
 COMMON         0x00800f27        0xa ./../../../../../../Atmel_lib/BitCloud_MEGARF_1_14_0/BitCloud/lib/libHAL_AtmlStk600_Atmega128rfa1_8Mhz_Gcc.a(halSpi.o)
                0x00800f27                rxSlaveBuffer
 COMMON         0x00800f31       0xbc ./../../../../../../Atmel_lib/BitCloud_MEGARF_1_14_0/BitCloud/lib/libBc_EndDevice_Atmega128rfa1_Atmega128rfa1_Gcc.a(aps.o)
                0x00800f31                apsMem
 COMMON         0x00800fed       0xfc ./../../../../../../Atmel_lib/BitCloud_MEGARF_1_14_0/BitCloud/lib/libBc_EndDevice_Atmega128rfa1_Atmega128rfa1_Gcc.a(nwk.o)
                0x00800fed                nwkMem
 COMMON         0x008010e9      0x3bd ./../../../../../../Atmel_lib/BitCloud_MEGARF_1_14_0/BitCloud/lib/libBc_EndDevice_Atmega128rfa1_Atmega128rfa1_Gcc.a(zdo.o)
                0x008010e9                zdoMem
 COMMON         0x008014a6       0x73 ./../../../../../../Atmel_lib/BitCloud_MEGARF_1_14_0/BitCloud/lib/libBc_EndDevice_Atmega128rfa1_Atmega128rfa1_Gcc.a(macMem.o)
                0x008014a6                macMem
 COMMON         0x00801519        0x1 ./../../../../../../Atmel_lib/BitCloud_MEGARF_1_14_0/BitCloud/lib/libBc_EndDevice_Atmega128rfa1_Atmega128rfa1_Gcc.a(machwdTrxCtrl.o)
                0x00801519                __sourceHandler
 COMMON         0x0080151a        0x1 ./../../../../../../Atmel_lib/BitCloud_MEGARF_1_14_0/BitCloud/lib/libBc_EndDevice_Atmega128rfa1_Atmega128rfa1_Gcc.a(machwdEdHandler.o)
                0x0080151a                __energyLevel
 COMMON         0x0080151b       0x21 ./../../../../../../Atmel_lib/BitCloud_MEGARF_1_14_0/BitCloud/lib/libBc_EndDevice_Atmega128rfa1_Atmega128rfa1_Gcc.a(machwdFrameRoutine.o)
                0x0080151b                txBuffer
 COMMON         0x0080153c        0x5 ./../../../../../../Atmel_lib/BitCloud_MEGARF_1_14_0/BitCloud/lib/libHAL_AtmlStk600_Atmega128rfa1_8Mhz_Gcc.a(halMacIsr.o)
                0x0080153c                __rtimer
                0x00801541                PROVIDE (__bss_end, .)

.noinit         0x00801541        0x1 load address 0x00013593
 *(.noinit*)
 .noinit        0x00801541        0x1 ./../../../../../../Atmel_lib/BitCloud_MEGARF_1_14_0/BitCloud/lib/WdtInitatmega128rfa1_Gcc.o
                0x00801541                halResetReason
                0x00801542                PROVIDE (__heap_start, .)
                0x00801542                __stack_start = .
                0x00012252                __data_load_start = LOADADDR (.data)
                0x000122f8                __data_load_end = (__data_load_start + SIZEOF (.data))

.eeprom         0x00810000     0x1000
 FILL mask 0xff
                0x00810000        0x1 BYTE 0xff
                0x00811000                . = ((. + 0x1000) - 0x1)
 *fill*         0x00810001      0xfff ff

/DISCARD/
 *(.init9)
 *(.fini*)
Address of section .data set to 0x800200
LOAD EndDevice_Stk600_Atmega128rfa1_8Mhz_Gcc/Obj/WSNSensorManager.o
LOAD EndDevice_Stk600_Atmega128rfa1_8Mhz_Gcc/Obj/WSNVisualizer.o
LOAD EndDevice_Stk600_Atmega128rfa1_8Mhz_Gcc/Obj/WSNEndDevice.o
LOAD EndDevice_Stk600_Atmega128rfa1_8Mhz_Gcc/Obj/WSNCoord.o
LOAD EndDevice_Stk600_Atmega128rfa1_8Mhz_Gcc/Obj/WSNMessageSender.o
LOAD EndDevice_Stk600_Atmega128rfa1_8Mhz_Gcc/Obj/WSNCommandHandler.o
LOAD EndDevice_Stk600_Atmega128rfa1_8Mhz_Gcc/Obj/WSNRouter.o
LOAD EndDevice_Stk600_Atmega128rfa1_8Mhz_Gcc/Obj/WSNDemoApp.o
LOAD EndDevice_Stk600_Atmega128rfa1_8Mhz_Gcc/Obj/WSNUARTManager.o
LOAD EndDevice_Stk600_Atmega128rfa1_8Mhz_Gcc/Obj/pdsMem.o
LOAD EndDevice_Stk600_Atmega128rfa1_8Mhz_Gcc/Obj/pdsWriteData.o
LOAD EndDevice_Stk600_Atmega128rfa1_8Mhz_Gcc/Obj/pdsDataServer.o
LOAD EndDevice_Stk600_Atmega128rfa1_8Mhz_Gcc/Obj/pdsInit.o
LOAD EndDevice_Stk600_Atmega128rfa1_8Mhz_Gcc/Obj/pdsTimer.o
LOAD EndDevice_Stk600_Atmega128rfa1_8Mhz_Gcc/Obj/pdsEvents.o
LOAD EndDevice_Stk600_Atmega128rfa1_8Mhz_Gcc/Obj/pdsMemAccess.o
LOAD EndDevice_Stk600_Atmega128rfa1_8Mhz_Gcc/Obj/pdsCrcService.o
LOAD EndDevice_Stk600_Atmega128rfa1_8Mhz_Gcc/Obj/fakeBSP.o
LOAD EndDevice_Stk600_Atmega128rfa1_8Mhz_Gcc/Obj/buttons.o
LOAD EndDevice_Stk600_Atmega128rfa1_8Mhz_Gcc/Obj/leds.o
LOAD EndDevice_Stk600_Atmega128rfa1_8Mhz_Gcc/Obj/bspTaskManager.o
LOAD EndDevice_Stk600_Atmega128rfa1_8Mhz_Gcc/Obj/csPersistentMem.o
LOAD EndDevice_Stk600_Atmega128rfa1_8Mhz_Gcc/Obj/csMem.o
LOAD EndDevice_Stk600_Atmega128rfa1_8Mhz_Gcc/Obj/configServer.o
START GROUP
LOAD ./../../../../../../Atmel_lib/BitCloud_MEGARF_1_14_0/BitCloud/lib/libHAL_AtmlStk600_Atmega128rfa1_8Mhz_Gcc.a
LOAD ./../../../../../../Atmel_lib/BitCloud_MEGARF_1_14_0/BitCloud/lib/libBc_EndDevice_Atmega128rfa1_Atmega128rfa1_Gcc.a
LOAD ./../../../../../../Atmel_lib/BitCloud_MEGARF_1_14_0/BitCloud/lib/WdtInitatmega128rfa1_Gcc.o
END GROUP
LOAD c:/program files (x86)/atmel/avr tools/avr toolchain/bin/../lib/gcc/avr/4.5.1/avr51\libgcc.a
LOAD c:/program files (x86)/atmel/avr tools/avr toolchain/bin/../lib/gcc/avr/4.5.1/../../../../avr/lib/avr51\libc.a
LOAD c:/program files (x86)/atmel/avr tools/avr toolchain/bin/../lib/gcc/avr/4.5.1/avr51\libgcc.a
OUTPUT(EndDevice_Stk600_Atmega128rfa1_8Mhz_Gcc/Exe/WSNDemo.elf elf32-avr)
LOAD linker stubs

.stab           0x00000000      0x9d8
 .stab          0x00000000      0x6cc c:/program files (x86)/atmel/avr tools/avr toolchain/bin/../lib/gcc/avr/4.5.1/../../../../avr/lib/avr51/crtm128rfa1.o
 .stab          0x000006cc       0x84 c:/program files (x86)/atmel/avr tools/avr toolchain/bin/../lib/gcc/avr/4.5.1/../../../../avr/lib/avr51\libc.a(memcpy_P.o)
                                 0x90 (size before relaxing)
 .stab          0x00000750       0xb4 c:/program files (x86)/atmel/avr tools/avr toolchain/bin/../lib/gcc/avr/4.5.1/../../../../avr/lib/avr51\libc.a(memcmp.o)
                                 0xc0 (size before relaxing)
 .stab          0x00000804       0x84 c:/program files (x86)/atmel/avr tools/avr toolchain/bin/../lib/gcc/avr/4.5.1/../../../../avr/lib/avr51\libc.a(memcpy.o)
                                 0x90 (size before relaxing)
 .stab          0x00000888       0xe4 c:/program files (x86)/atmel/avr tools/avr toolchain/bin/../lib/gcc/avr/4.5.1/../../../../avr/lib/avr51\libc.a(memmove.o)
                                 0xf0 (size before relaxing)
 .stab          0x0000096c       0x6c c:/program files (x86)/atmel/avr tools/avr toolchain/bin/../lib/gcc/avr/4.5.1/../../../../avr/lib/avr51\libc.a(memset.o)
                                 0x78 (size before relaxing)

.stabstr        0x00000000      0x2e0
 .stabstr       0x00000000      0x2e0 c:/program files (x86)/atmel/avr tools/avr toolchain/bin/../lib/gcc/avr/4.5.1/../../../../avr/lib/avr51/crtm128rfa1.o

.debug_abbrev   0x00000000     0x2652
 .debug_abbrev  0x00000000      0x142 EndDevice_Stk600_Atmega128rfa1_8Mhz_Gcc/Obj/WSNSensorManager.o
 .debug_abbrev  0x00000142       0xa7 EndDevice_Stk600_Atmega128rfa1_8Mhz_Gcc/Obj/WSNVisualizer.o
 .debug_abbrev  0x000001e9      0x232 EndDevice_Stk600_Atmega128rfa1_8Mhz_Gcc/Obj/WSNEndDevice.o
 .debug_abbrev  0x0000041b        0x1 EndDevice_Stk600_Atmega128rfa1_8Mhz_Gcc/Obj/WSNCoord.o
 .debug_abbrev  0x0000041c      0x293 EndDevice_Stk600_Atmega128rfa1_8Mhz_Gcc/Obj/WSNMessageSender.o
 .debug_abbrev  0x000006af      0x1f1 EndDevice_Stk600_Atmega128rfa1_8Mhz_Gcc/Obj/WSNCommandHandler.o
 .debug_abbrev  0x000008a0        0x1 EndDevice_Stk600_Atmega128rfa1_8Mhz_Gcc/Obj/WSNRouter.o
 .debug_abbrev  0x000008a1      0x3a7 EndDevice_Stk600_Atmega128rfa1_8Mhz_Gcc/Obj/WSNDemoApp.o
 .debug_abbrev  0x00000c48        0x1 EndDevice_Stk600_Atmega128rfa1_8Mhz_Gcc/Obj/WSNUARTManager.o
 .debug_abbrev  0x00000c49       0xe0 EndDevice_Stk600_Atmega128rfa1_8Mhz_Gcc/Obj/pdsMem.o
 .debug_abbrev  0x00000d29      0x222 EndDevice_Stk600_Atmega128rfa1_8Mhz_Gcc/Obj/pdsWriteData.o
 .debug_abbrev  0x00000f4b      0x1dd EndDevice_Stk600_Atmega128rfa1_8Mhz_Gcc/Obj/pdsDataServer.o
 .debug_abbrev  0x00001128      0x179 EndDevice_Stk600_Atmega128rfa1_8Mhz_Gcc/Obj/pdsInit.o
 .debug_abbrev  0x000012a1      0x130 EndDevice_Stk600_Atmega128rfa1_8Mhz_Gcc/Obj/pdsTimer.o
 .debug_abbrev  0x000013d1      0x161 EndDevice_Stk600_Atmega128rfa1_8Mhz_Gcc/Obj/pdsEvents.o
 .debug_abbrev  0x00001532      0x1d1 EndDevice_Stk600_Atmega128rfa1_8Mhz_Gcc/Obj/pdsMemAccess.o
 .debug_abbrev  0x00001703      0x14d EndDevice_Stk600_Atmega128rfa1_8Mhz_Gcc/Obj/pdsCrcService.o
 .debug_abbrev  0x00001850      0x1e7 EndDevice_Stk600_Atmega128rfa1_8Mhz_Gcc/Obj/fakeBSP.o
 .debug_abbrev  0x00001a37      0x23b EndDevice_Stk600_Atmega128rfa1_8Mhz_Gcc/Obj/buttons.o
 .debug_abbrev  0x00001c72       0xd6 EndDevice_Stk600_Atmega128rfa1_8Mhz_Gcc/Obj/leds.o
 .debug_abbrev  0x00001d48      0x116 EndDevice_Stk600_Atmega128rfa1_8Mhz_Gcc/Obj/bspTaskManager.o
 .debug_abbrev  0x00001e5e      0x1e0 EndDevice_Stk600_Atmega128rfa1_8Mhz_Gcc/Obj/csPersistentMem.o
 .debug_abbrev  0x0000203e      0x1eb EndDevice_Stk600_Atmega128rfa1_8Mhz_Gcc/Obj/csMem.o
 .debug_abbrev  0x00002229      0x26c EndDevice_Stk600_Atmega128rfa1_8Mhz_Gcc/Obj/configServer.o
 .debug_abbrev  0x00002495       0xf0 c:/program files (x86)/atmel/avr tools/avr toolchain/bin/../lib/gcc/avr/4.5.1/avr51\libgcc.a(_ashldi3.o)
 .debug_abbrev  0x00002585       0xcd c:/program files (x86)/atmel/avr tools/avr toolchain/bin/../lib/gcc/avr/4.5.1/../../../../avr/lib/avr51\libc.a(rand.o)

.debug_info     0x00000000    0x1465e
 .debug_info    0x00000000      0x64a EndDevice_Stk600_Atmega128rfa1_8Mhz_Gcc/Obj/WSNSensorManager.o
 .debug_info    0x0000064a      0x482 EndDevice_Stk600_Atmega128rfa1_8Mhz_Gcc/Obj/WSNVisualizer.o
 .debug_info    0x00000acc     0x11d7 EndDevice_Stk600_Atmega128rfa1_8Mhz_Gcc/Obj/WSNEndDevice.o
 .debug_info    0x00001ca3        0x0 EndDevice_Stk600_Atmega128rfa1_8Mhz_Gcc/Obj/WSNCoord.o
 .debug_info    0x00001ca3      0xf7c EndDevice_Stk600_Atmega128rfa1_8Mhz_Gcc/Obj/WSNMessageSender.o
 .debug_info    0x00002c1f      0x917 EndDevice_Stk600_Atmega128rfa1_8Mhz_Gcc/Obj/WSNCommandHandler.o
 .debug_info    0x00003536        0x0 EndDevice_Stk600_Atmega128rfa1_8Mhz_Gcc/Obj/WSNRouter.o
 .debug_info    0x00003536     0x2b8f EndDevice_Stk600_Atmega128rfa1_8Mhz_Gcc/Obj/WSNDemoApp.o
 .debug_info    0x000060c5        0x0 EndDevice_Stk600_Atmega128rfa1_8Mhz_Gcc/Obj/WSNUARTManager.o
 .debug_info    0x000060c5      0x4e1 EndDevice_Stk600_Atmega128rfa1_8Mhz_Gcc/Obj/pdsMem.o
 .debug_info    0x000065a6      0x98c EndDevice_Stk600_Atmega128rfa1_8Mhz_Gcc/Obj/pdsWriteData.o
 .debug_info    0x00006f32      0xb9e EndDevice_Stk600_Atmega128rfa1_8Mhz_Gcc/Obj/pdsDataServer.o
 .debug_info    0x00007ad0      0x6ee EndDevice_Stk600_Atmega128rfa1_8Mhz_Gcc/Obj/pdsInit.o
 .debug_info    0x000081be      0x57e EndDevice_Stk600_Atmega128rfa1_8Mhz_Gcc/Obj/pdsTimer.o
 .debug_info    0x0000873c      0x77a EndDevice_Stk600_Atmega128rfa1_8Mhz_Gcc/Obj/pdsEvents.o
 .debug_info    0x00008eb6      0x88d EndDevice_Stk600_Atmega128rfa1_8Mhz_Gcc/Obj/pdsMemAccess.o
 .debug_info    0x00009743      0x733 EndDevice_Stk600_Atmega128rfa1_8Mhz_Gcc/Obj/pdsCrcService.o
 .debug_info    0x00009e76      0x5ed EndDevice_Stk600_Atmega128rfa1_8Mhz_Gcc/Obj/fakeBSP.o
 .debug_info    0x0000a463      0x5df EndDevice_Stk600_Atmega128rfa1_8Mhz_Gcc/Obj/buttons.o
 .debug_info    0x0000aa42      0x2d8 EndDevice_Stk600_Atmega128rfa1_8Mhz_Gcc/Obj/leds.o
 .debug_info    0x0000ad1a      0x237 EndDevice_Stk600_Atmega128rfa1_8Mhz_Gcc/Obj/bspTaskManager.o
 .debug_info    0x0000af51     0x31a7 EndDevice_Stk600_Atmega128rfa1_8Mhz_Gcc/Obj/csPersistentMem.o
 .debug_info    0x0000e0f8     0x30c2 EndDevice_Stk600_Atmega128rfa1_8Mhz_Gcc/Obj/csMem.o
 .debug_info    0x000111ba     0x3200 EndDevice_Stk600_Atmega128rfa1_8Mhz_Gcc/Obj/configServer.o
 .debug_info    0x000143ba      0x184 c:/program files (x86)/atmel/avr tools/avr toolchain/bin/../lib/gcc/avr/4.5.1/avr51\libgcc.a(_ashldi3.o)
 .debug_info    0x0001453e      0x120 c:/program files (x86)/atmel/avr tools/avr toolchain/bin/../lib/gcc/avr/4.5.1/../../../../avr/lib/avr51\libc.a(rand.o)

.debug_line     0x00000000     0x8178
 .debug_line    0x00000000      0x43f EndDevice_Stk600_Atmega128rfa1_8Mhz_Gcc/Obj/WSNSensorManager.o
 .debug_line    0x0000043f      0x450 EndDevice_Stk600_Atmega128rfa1_8Mhz_Gcc/Obj/WSNVisualizer.o
 .debug_line    0x0000088f      0x797 EndDevice_Stk600_Atmega128rfa1_8Mhz_Gcc/Obj/WSNEndDevice.o
 .debug_line    0x00001026       0x24 EndDevice_Stk600_Atmega128rfa1_8Mhz_Gcc/Obj/WSNCoord.o
 .debug_line    0x0000104a      0x698 EndDevice_Stk600_Atmega128rfa1_8Mhz_Gcc/Obj/WSNMessageSender.o
 .debug_line    0x000016e2      0x46b EndDevice_Stk600_Atmega128rfa1_8Mhz_Gcc/Obj/WSNCommandHandler.o
 .debug_line    0x00001b4d       0x24 EndDevice_Stk600_Atmega128rfa1_8Mhz_Gcc/Obj/WSNRouter.o
 .debug_line    0x00001b71      0xc64 EndDevice_Stk600_Atmega128rfa1_8Mhz_Gcc/Obj/WSNDemoApp.o
 .debug_line    0x000027d5       0x24 EndDevice_Stk600_Atmega128rfa1_8Mhz_Gcc/Obj/WSNUARTManager.o
 .debug_line    0x000027f9      0x327 EndDevice_Stk600_Atmega128rfa1_8Mhz_Gcc/Obj/pdsMem.o
 .debug_line    0x00002b20      0x741 EndDevice_Stk600_Atmega128rfa1_8Mhz_Gcc/Obj/pdsWriteData.o
 .debug_line    0x00003261      0x802 EndDevice_Stk600_Atmega128rfa1_8Mhz_Gcc/Obj/pdsDataServer.o
 .debug_line    0x00003a63      0x47c EndDevice_Stk600_Atmega128rfa1_8Mhz_Gcc/Obj/pdsInit.o
 .debug_line    0x00003edf      0x433 EndDevice_Stk600_Atmega128rfa1_8Mhz_Gcc/Obj/pdsTimer.o
 .debug_line    0x00004312      0x490 EndDevice_Stk600_Atmega128rfa1_8Mhz_Gcc/Obj/pdsEvents.o
 .debug_line    0x000047a2      0x61b EndDevice_Stk600_Atmega128rfa1_8Mhz_Gcc/Obj/pdsMemAccess.o
 .debug_line    0x00004dbd      0x48c EndDevice_Stk600_Atmega128rfa1_8Mhz_Gcc/Obj/pdsCrcService.o
 .debug_line    0x00005249      0x57d EndDevice_Stk600_Atmega128rfa1_8Mhz_Gcc/Obj/fakeBSP.o
 .debug_line    0x000057c6      0x6aa EndDevice_Stk600_Atmega128rfa1_8Mhz_Gcc/Obj/buttons.o
 .debug_line    0x00005e70      0x34d EndDevice_Stk600_Atmega128rfa1_8Mhz_Gcc/Obj/leds.o
 .debug_line    0x000061bd      0x323 EndDevice_Stk600_Atmega128rfa1_8Mhz_Gcc/Obj/bspTaskManager.o
 .debug_line    0x000064e0      0x812 EndDevice_Stk600_Atmega128rfa1_8Mhz_Gcc/Obj/csPersistentMem.o
 .debug_line    0x00006cf2      0x809 EndDevice_Stk600_Atmega128rfa1_8Mhz_Gcc/Obj/csMem.o
 .debug_line    0x000074fb      0xa07 EndDevice_Stk600_Atmega128rfa1_8Mhz_Gcc/Obj/configServer.o
 .debug_line    0x00007f02      0x113 c:/program files (x86)/atmel/avr tools/avr toolchain/bin/../lib/gcc/avr/4.5.1/avr51\libgcc.a(_ashldi3.o)
 .debug_line    0x00008015      0x163 c:/program files (x86)/atmel/avr tools/avr toolchain/bin/../lib/gcc/avr/4.5.1/../../../../avr/lib/avr51\libc.a(rand.o)

.debug_frame    0x00000000      0xa60
 .debug_frame   0x00000000       0x70 EndDevice_Stk600_Atmega128rfa1_8Mhz_Gcc/Obj/WSNSensorManager.o
 .debug_frame   0x00000070       0xd0 EndDevice_Stk600_Atmega128rfa1_8Mhz_Gcc/Obj/WSNVisualizer.o
 .debug_frame   0x00000140       0xb0 EndDevice_Stk600_Atmega128rfa1_8Mhz_Gcc/Obj/WSNEndDevice.o
 .debug_frame   0x000001f0       0x70 EndDevice_Stk600_Atmega128rfa1_8Mhz_Gcc/Obj/WSNMessageSender.o
 .debug_frame   0x00000260       0x50 EndDevice_Stk600_Atmega128rfa1_8Mhz_Gcc/Obj/WSNCommandHandler.o
 .debug_frame   0x000002b0      0x170 EndDevice_Stk600_Atmega128rfa1_8Mhz_Gcc/Obj/WSNDemoApp.o
 .debug_frame   0x00000420       0x90 EndDevice_Stk600_Atmega128rfa1_8Mhz_Gcc/Obj/pdsWriteData.o
 .debug_frame   0x000004b0       0xf0 EndDevice_Stk600_Atmega128rfa1_8Mhz_Gcc/Obj/pdsDataServer.o
 .debug_frame   0x000005a0       0x20 EndDevice_Stk600_Atmega128rfa1_8Mhz_Gcc/Obj/pdsInit.o
 .debug_frame   0x000005c0       0x60 EndDevice_Stk600_Atmega128rfa1_8Mhz_Gcc/Obj/pdsTimer.o
 .debug_frame   0x00000620       0x30 EndDevice_Stk600_Atmega128rfa1_8Mhz_Gcc/Obj/pdsEvents.o
 .debug_frame   0x00000650       0x70 EndDevice_Stk600_Atmega128rfa1_8Mhz_Gcc/Obj/pdsMemAccess.o
 .debug_frame   0x000006c0       0x40 EndDevice_Stk600_Atmega128rfa1_8Mhz_Gcc/Obj/pdsCrcService.o
 .debug_frame   0x00000700      0x110 EndDevice_Stk600_Atmega128rfa1_8Mhz_Gcc/Obj/fakeBSP.o
 .debug_frame   0x00000810       0xd0 EndDevice_Stk600_Atmega128rfa1_8Mhz_Gcc/Obj/buttons.o
 .debug_frame   0x000008e0       0x60 EndDevice_Stk600_Atmega128rfa1_8Mhz_Gcc/Obj/leds.o
 .debug_frame   0x00000940       0x20 EndDevice_Stk600_Atmega128rfa1_8Mhz_Gcc/Obj/bspTaskManager.o
 .debug_frame   0x00000960       0x20 EndDevice_Stk600_Atmega128rfa1_8Mhz_Gcc/Obj/csMem.o
 .debug_frame   0x00000980       0x70 EndDevice_Stk600_Atmega128rfa1_8Mhz_Gcc/Obj/configServer.o
 .debug_frame   0x000009f0       0x20 c:/program files (x86)/atmel/avr tools/avr toolchain/bin/../lib/gcc/avr/4.5.1/avr51\libgcc.a(_ashldi3.o)
 .debug_frame   0x00000a10       0x50 c:/program files (x86)/atmel/avr tools/avr toolchain/bin/../lib/gcc/avr/4.5.1/../../../../avr/lib/avr51\libc.a(rand.o)

.debug_loc      0x00000000     0x18ce
 .debug_loc     0x00000000       0x95 EndDevice_Stk600_Atmega128rfa1_8Mhz_Gcc/Obj/WSNSensorManager.o
 .debug_loc     0x00000095       0xbc EndDevice_Stk600_Atmega128rfa1_8Mhz_Gcc/Obj/WSNEndDevice.o
 .debug_loc     0x00000151      0x2a2 EndDevice_Stk600_Atmega128rfa1_8Mhz_Gcc/Obj/WSNMessageSender.o
 .debug_loc     0x000003f3      0x124 EndDevice_Stk600_Atmega128rfa1_8Mhz_Gcc/Obj/WSNCommandHandler.o
 .debug_loc     0x00000517      0x308 EndDevice_Stk600_Atmega128rfa1_8Mhz_Gcc/Obj/WSNDemoApp.o
 .debug_loc     0x0000081f      0x206 EndDevice_Stk600_Atmega128rfa1_8Mhz_Gcc/Obj/pdsWriteData.o
 .debug_loc     0x00000a25      0x299 EndDevice_Stk600_Atmega128rfa1_8Mhz_Gcc/Obj/pdsDataServer.o
 .debug_loc     0x00000cbe      0x112 EndDevice_Stk600_Atmega128rfa1_8Mhz_Gcc/Obj/pdsInit.o
 .debug_loc     0x00000dd0       0x69 EndDevice_Stk600_Atmega128rfa1_8Mhz_Gcc/Obj/pdsTimer.o
 .debug_loc     0x00000e39       0x76 EndDevice_Stk600_Atmega128rfa1_8Mhz_Gcc/Obj/pdsEvents.o
 .debug_loc     0x00000eaf      0x36d EndDevice_Stk600_Atmega128rfa1_8Mhz_Gcc/Obj/pdsMemAccess.o
 .debug_loc     0x0000121c      0x161 EndDevice_Stk600_Atmega128rfa1_8Mhz_Gcc/Obj/pdsCrcService.o
 .debug_loc     0x0000137d       0x8d EndDevice_Stk600_Atmega128rfa1_8Mhz_Gcc/Obj/fakeBSP.o
 .debug_loc     0x0000140a      0x1c8 EndDevice_Stk600_Atmega128rfa1_8Mhz_Gcc/Obj/buttons.o
 .debug_loc     0x000015d2       0x29 EndDevice_Stk600_Atmega128rfa1_8Mhz_Gcc/Obj/leds.o
 .debug_loc     0x000015fb       0x3c EndDevice_Stk600_Atmega128rfa1_8Mhz_Gcc/Obj/bspTaskManager.o
 .debug_loc     0x00001637      0x116 EndDevice_Stk600_Atmega128rfa1_8Mhz_Gcc/Obj/configServer.o
 .debug_loc     0x0000174d       0x6d c:/program files (x86)/atmel/avr tools/avr toolchain/bin/../lib/gcc/avr/4.5.1/avr51\libgcc.a(_ashldi3.o)
 .debug_loc     0x000017ba      0x114 c:/program files (x86)/atmel/avr tools/avr toolchain/bin/../lib/gcc/avr/4.5.1/../../../../avr/lib/avr51\libc.a(rand.o)

.debug_pubnames
                0x00000000      0xe42
 .debug_pubnames
                0x00000000       0x5a EndDevice_Stk600_Atmega128rfa1_8Mhz_Gcc/Obj/WSNSensorManager.o
 .debug_pubnames
                0x0000005a      0x12c EndDevice_Stk600_Atmega128rfa1_8Mhz_Gcc/Obj/WSNVisualizer.o
 .debug_pubnames
                0x00000186       0x91 EndDevice_Stk600_Atmega128rfa1_8Mhz_Gcc/Obj/WSNEndDevice.o
 .debug_pubnames
                0x00000217       0x62 EndDevice_Stk600_Atmega128rfa1_8Mhz_Gcc/Obj/WSNMessageSender.o
 .debug_pubnames
                0x00000279       0x65 EndDevice_Stk600_Atmega128rfa1_8Mhz_Gcc/Obj/WSNCommandHandler.o
 .debug_pubnames
                0x000002de      0x172 EndDevice_Stk600_Atmega128rfa1_8Mhz_Gcc/Obj/WSNDemoApp.o
 .debug_pubnames
                0x00000450       0x1d EndDevice_Stk600_Atmega128rfa1_8Mhz_Gcc/Obj/pdsMem.o
 .debug_pubnames
                0x0000046d       0xab EndDevice_Stk600_Atmega128rfa1_8Mhz_Gcc/Obj/pdsWriteData.o
 .debug_pubnames
                0x00000518       0xfb EndDevice_Stk600_Atmega128rfa1_8Mhz_Gcc/Obj/pdsDataServer.o
 .debug_pubnames
                0x00000613       0x1f EndDevice_Stk600_Atmega128rfa1_8Mhz_Gcc/Obj/pdsInit.o
 .debug_pubnames
                0x00000632       0x51 EndDevice_Stk600_Atmega128rfa1_8Mhz_Gcc/Obj/pdsTimer.o
 .debug_pubnames
                0x00000683       0x28 EndDevice_Stk600_Atmega128rfa1_8Mhz_Gcc/Obj/pdsEvents.o
 .debug_pubnames
                0x000006ab       0xa9 EndDevice_Stk600_Atmega128rfa1_8Mhz_Gcc/Obj/pdsMemAccess.o
 .debug_pubnames
                0x00000754       0x52 EndDevice_Stk600_Atmega128rfa1_8Mhz_Gcc/Obj/pdsCrcService.o
 .debug_pubnames
                0x000007a6      0x203 EndDevice_Stk600_Atmega128rfa1_8Mhz_Gcc/Obj/fakeBSP.o
 .debug_pubnames
                0x000009a9       0x6a EndDevice_Stk600_Atmega128rfa1_8Mhz_Gcc/Obj/buttons.o
 .debug_pubnames
                0x00000a13       0x64 EndDevice_Stk600_Atmega128rfa1_8Mhz_Gcc/Obj/leds.o
 .debug_pubnames
                0x00000a77       0x37 EndDevice_Stk600_Atmega128rfa1_8Mhz_Gcc/Obj/bspTaskManager.o
 .debug_pubnames
                0x00000aae      0x209 EndDevice_Stk600_Atmega128rfa1_8Mhz_Gcc/Obj/csPersistentMem.o
 .debug_pubnames
                0x00000cb7       0xca EndDevice_Stk600_Atmega128rfa1_8Mhz_Gcc/Obj/csMem.o
 .debug_pubnames
                0x00000d81       0x71 EndDevice_Stk600_Atmega128rfa1_8Mhz_Gcc/Obj/configServer.o
 .debug_pubnames
                0x00000df2       0x20 c:/program files (x86)/atmel/avr tools/avr toolchain/bin/../lib/gcc/avr/4.5.1/avr51\libgcc.a(_ashldi3.o)
 .debug_pubnames
                0x00000e12       0x30 c:/program files (x86)/atmel/avr tools/avr toolchain/bin/../lib/gcc/avr/4.5.1/../../../../avr/lib/avr51\libc.a(rand.o)

.debug_pubtypes
                0x00000000     0x4e22
 .debug_pubtypes
                0x00000000      0x16b EndDevice_Stk600_Atmega128rfa1_8Mhz_Gcc/Obj/WSNSensorManager.o
 .debug_pubtypes
                0x0000016b       0xb8 EndDevice_Stk600_Atmega128rfa1_8Mhz_Gcc/Obj/WSNVisualizer.o
 .debug_pubtypes
                0x00000223      0x3ca EndDevice_Stk600_Atmega128rfa1_8Mhz_Gcc/Obj/WSNEndDevice.o
 .debug_pubtypes
                0x000005ed      0x38a EndDevice_Stk600_Atmega128rfa1_8Mhz_Gcc/Obj/WSNMessageSender.o
 .debug_pubtypes
                0x00000977      0x2b4 EndDevice_Stk600_Atmega128rfa1_8Mhz_Gcc/Obj/WSNCommandHandler.o
 .debug_pubtypes
                0x00000c2b      0x910 EndDevice_Stk600_Atmega128rfa1_8Mhz_Gcc/Obj/WSNDemoApp.o
 .debug_pubtypes
                0x0000153b      0x16b EndDevice_Stk600_Atmega128rfa1_8Mhz_Gcc/Obj/pdsMem.o
 .debug_pubtypes
                0x000016a6      0x210 EndDevice_Stk600_Atmega128rfa1_8Mhz_Gcc/Obj/pdsWriteData.o
 .debug_pubtypes
                0x000018b6      0x255 EndDevice_Stk600_Atmega128rfa1_8Mhz_Gcc/Obj/pdsDataServer.o
 .debug_pubtypes
                0x00001b0b      0x1b5 EndDevice_Stk600_Atmega128rfa1_8Mhz_Gcc/Obj/pdsInit.o
 .debug_pubtypes
                0x00001cc0      0x16b EndDevice_Stk600_Atmega128rfa1_8Mhz_Gcc/Obj/pdsTimer.o
 .debug_pubtypes
                0x00001e2b      0x230 EndDevice_Stk600_Atmega128rfa1_8Mhz_Gcc/Obj/pdsEvents.o
 .debug_pubtypes
                0x0000205b      0x1ec EndDevice_Stk600_Atmega128rfa1_8Mhz_Gcc/Obj/pdsMemAccess.o
 .debug_pubtypes
                0x00002247      0x210 EndDevice_Stk600_Atmega128rfa1_8Mhz_Gcc/Obj/pdsCrcService.o
 .debug_pubtypes
                0x00002457       0x7a EndDevice_Stk600_Atmega128rfa1_8Mhz_Gcc/Obj/fakeBSP.o
 .debug_pubtypes
                0x000024d1       0xda EndDevice_Stk600_Atmega128rfa1_8Mhz_Gcc/Obj/buttons.o
 .debug_pubtypes
                0x000025ab       0x2b EndDevice_Stk600_Atmega128rfa1_8Mhz_Gcc/Obj/leds.o
 .debug_pubtypes
                0x000025d6       0x49 EndDevice_Stk600_Atmega128rfa1_8Mhz_Gcc/Obj/bspTaskManager.o
 .debug_pubtypes
                0x0000261f      0xd28 EndDevice_Stk600_Atmega128rfa1_8Mhz_Gcc/Obj/csPersistentMem.o
 .debug_pubtypes
                0x00003347      0xd55 EndDevice_Stk600_Atmega128rfa1_8Mhz_Gcc/Obj/csMem.o
 .debug_pubtypes
                0x0000409c      0xd12 EndDevice_Stk600_Atmega128rfa1_8Mhz_Gcc/Obj/configServer.o
 .debug_pubtypes
                0x00004dae       0x62 c:/program files (x86)/atmel/avr tools/avr toolchain/bin/../lib/gcc/avr/4.5.1/avr51\libgcc.a(_ashldi3.o)
 .debug_pubtypes
                0x00004e10       0x12 c:/program files (x86)/atmel/avr tools/avr toolchain/bin/../lib/gcc/avr/4.5.1/../../../../avr/lib/avr51\libc.a(rand.o)

.debug_aranges  0x00000000      0x680
 .debug_aranges
                0x00000000       0x48 EndDevice_Stk600_Atmega128rfa1_8Mhz_Gcc/Obj/WSNSensorManager.o
 .debug_aranges
                0x00000048       0x78 EndDevice_Stk600_Atmega128rfa1_8Mhz_Gcc/Obj/WSNVisualizer.o
 .debug_aranges
                0x000000c0       0x68 EndDevice_Stk600_Atmega128rfa1_8Mhz_Gcc/Obj/WSNEndDevice.o
 .debug_aranges
                0x00000128       0x48 EndDevice_Stk600_Atmega128rfa1_8Mhz_Gcc/Obj/WSNMessageSender.o
 .debug_aranges
                0x00000170       0x38 EndDevice_Stk600_Atmega128rfa1_8Mhz_Gcc/Obj/WSNCommandHandler.o
 .debug_aranges
                0x000001a8       0xc8 EndDevice_Stk600_Atmega128rfa1_8Mhz_Gcc/Obj/WSNDemoApp.o
 .debug_aranges
                0x00000270       0x58 EndDevice_Stk600_Atmega128rfa1_8Mhz_Gcc/Obj/pdsWriteData.o
 .debug_aranges
                0x000002c8       0x88 EndDevice_Stk600_Atmega128rfa1_8Mhz_Gcc/Obj/pdsDataServer.o
 .debug_aranges
                0x00000350       0x20 EndDevice_Stk600_Atmega128rfa1_8Mhz_Gcc/Obj/pdsInit.o
 .debug_aranges
                0x00000370       0x40 EndDevice_Stk600_Atmega128rfa1_8Mhz_Gcc/Obj/pdsTimer.o
 .debug_aranges
                0x000003b0       0x28 EndDevice_Stk600_Atmega128rfa1_8Mhz_Gcc/Obj/pdsEvents.o
 .debug_aranges
                0x000003d8       0x48 EndDevice_Stk600_Atmega128rfa1_8Mhz_Gcc/Obj/pdsMemAccess.o
 .debug_aranges
                0x00000420       0x30 EndDevice_Stk600_Atmega128rfa1_8Mhz_Gcc/Obj/pdsCrcService.o
 .debug_aranges
                0x00000450       0x98 EndDevice_Stk600_Atmega128rfa1_8Mhz_Gcc/Obj/fakeBSP.o
 .debug_aranges
                0x000004e8       0x78 EndDevice_Stk600_Atmega128rfa1_8Mhz_Gcc/Obj/buttons.o
 .debug_aranges
                0x00000560       0x40 EndDevice_Stk600_Atmega128rfa1_8Mhz_Gcc/Obj/leds.o
 .debug_aranges
                0x000005a0       0x20 EndDevice_Stk600_Atmega128rfa1_8Mhz_Gcc/Obj/bspTaskManager.o
 .debug_aranges
                0x000005c0       0x20 EndDevice_Stk600_Atmega128rfa1_8Mhz_Gcc/Obj/csMem.o
 .debug_aranges
                0x000005e0       0x48 EndDevice_Stk600_Atmega128rfa1_8Mhz_Gcc/Obj/configServer.o
 .debug_aranges
                0x00000628       0x20 c:/program files (x86)/atmel/avr tools/avr toolchain/bin/../lib/gcc/avr/4.5.1/avr51\libgcc.a(_ashldi3.o)
 .debug_aranges
                0x00000648       0x38 c:/program files (x86)/atmel/avr tools/avr toolchain/bin/../lib/gcc/avr/4.5.1/../../../../avr/lib/avr51\libc.a(rand.o)

.debug_ranges   0x00000000      0x5b0
 .debug_ranges  0x00000000       0x38 EndDevice_Stk600_Atmega128rfa1_8Mhz_Gcc/Obj/WSNSensorManager.o
 .debug_ranges  0x00000038       0x68 EndDevice_Stk600_Atmega128rfa1_8Mhz_Gcc/Obj/WSNVisualizer.o
 .debug_ranges  0x000000a0       0x58 EndDevice_Stk600_Atmega128rfa1_8Mhz_Gcc/Obj/WSNEndDevice.o
 .debug_ranges  0x000000f8       0x38 EndDevice_Stk600_Atmega128rfa1_8Mhz_Gcc/Obj/WSNMessageSender.o
 .debug_ranges  0x00000130       0x28 EndDevice_Stk600_Atmega128rfa1_8Mhz_Gcc/Obj/WSNCommandHandler.o
 .debug_ranges  0x00000158       0xd0 EndDevice_Stk600_Atmega128rfa1_8Mhz_Gcc/Obj/WSNDemoApp.o
 .debug_ranges  0x00000228       0x78 EndDevice_Stk600_Atmega128rfa1_8Mhz_Gcc/Obj/pdsWriteData.o
 .debug_ranges  0x000002a0       0x90 EndDevice_Stk600_Atmega128rfa1_8Mhz_Gcc/Obj/pdsDataServer.o
 .debug_ranges  0x00000330       0x10 EndDevice_Stk600_Atmega128rfa1_8Mhz_Gcc/Obj/pdsInit.o
 .debug_ranges  0x00000340       0x30 EndDevice_Stk600_Atmega128rfa1_8Mhz_Gcc/Obj/pdsTimer.o
 .debug_ranges  0x00000370       0x18 EndDevice_Stk600_Atmega128rfa1_8Mhz_Gcc/Obj/pdsEvents.o
 .debug_ranges  0x00000388       0x68 EndDevice_Stk600_Atmega128rfa1_8Mhz_Gcc/Obj/pdsMemAccess.o
 .debug_ranges  0x000003f0       0x20 EndDevice_Stk600_Atmega128rfa1_8Mhz_Gcc/Obj/pdsCrcService.o
 .debug_ranges  0x00000410       0x88 EndDevice_Stk600_Atmega128rfa1_8Mhz_Gcc/Obj/fakeBSP.o
 .debug_ranges  0x00000498       0x68 EndDevice_Stk600_Atmega128rfa1_8Mhz_Gcc/Obj/buttons.o
 .debug_ranges  0x00000500       0x30 EndDevice_Stk600_Atmega128rfa1_8Mhz_Gcc/Obj/leds.o
 .debug_ranges  0x00000530       0x10 EndDevice_Stk600_Atmega128rfa1_8Mhz_Gcc/Obj/bspTaskManager.o
 .debug_ranges  0x00000540       0x10 EndDevice_Stk600_Atmega128rfa1_8Mhz_Gcc/Obj/csMem.o
 .debug_ranges  0x00000550       0x38 EndDevice_Stk600_Atmega128rfa1_8Mhz_Gcc/Obj/configServer.o
 .debug_ranges  0x00000588       0x28 c:/program files (x86)/atmel/avr tools/avr toolchain/bin/../lib/gcc/avr/4.5.1/../../../../avr/lib/avr51\libc.a(rand.o)

.debug_str      0x00000000     0x7c32
 .debug_str     0x00000000      0x4b0 EndDevice_Stk600_Atmega128rfa1_8Mhz_Gcc/Obj/WSNSensorManager.o
                                0x54b (size before relaxing)
 .debug_str     0x000004b0      0x106 EndDevice_Stk600_Atmega128rfa1_8Mhz_Gcc/Obj/WSNVisualizer.o
                                0x459 (size before relaxing)
 .debug_str     0x000005b6     0x1b53 EndDevice_Stk600_Atmega128rfa1_8Mhz_Gcc/Obj/WSNEndDevice.o
                               0x2074 (size before relaxing)
 .debug_str     0x00002109      0x2c5 EndDevice_Stk600_Atmega128rfa1_8Mhz_Gcc/Obj/WSNMessageSender.o
                               0x1325 (size before relaxing)
 .debug_str     0x000023ce       0xf2 EndDevice_Stk600_Atmega128rfa1_8Mhz_Gcc/Obj/WSNCommandHandler.o
                                0x75b (size before relaxing)
 .debug_str     0x000024c0     0x14bf EndDevice_Stk600_Atmega128rfa1_8Mhz_Gcc/Obj/WSNDemoApp.o
                               0x32c1 (size before relaxing)
 .debug_str     0x0000397f      0x6f5 EndDevice_Stk600_Atmega128rfa1_8Mhz_Gcc/Obj/pdsMem.o
                                0x8fe (size before relaxing)
 .debug_str     0x00004074      0x48c EndDevice_Stk600_Atmega128rfa1_8Mhz_Gcc/Obj/pdsWriteData.o
                                0xd58 (size before relaxing)
 .debug_str     0x00004500      0x1af EndDevice_Stk600_Atmega128rfa1_8Mhz_Gcc/Obj/pdsDataServer.o
                                0xd14 (size before relaxing)
 .debug_str     0x000046af      0x12d EndDevice_Stk600_Atmega128rfa1_8Mhz_Gcc/Obj/pdsInit.o
                                0xa26 (size before relaxing)
 .debug_str     0x000047dc       0xa7 EndDevice_Stk600_Atmega128rfa1_8Mhz_Gcc/Obj/pdsTimer.o
                                0x947 (size before relaxing)
 .debug_str     0x00004883      0x159 EndDevice_Stk600_Atmega128rfa1_8Mhz_Gcc/Obj/pdsEvents.o
                                0xc65 (size before relaxing)
 .debug_str     0x000049dc      0x164 EndDevice_Stk600_Atmega128rfa1_8Mhz_Gcc/Obj/pdsMemAccess.o
                                0xaf1 (size before relaxing)
 .debug_str     0x00004b40       0xb5 EndDevice_Stk600_Atmega128rfa1_8Mhz_Gcc/Obj/pdsCrcService.o
                                0xa80 (size before relaxing)
 .debug_str     0x00004bf5      0x2cd EndDevice_Stk600_Atmega128rfa1_8Mhz_Gcc/Obj/fakeBSP.o
                                0x4c2 (size before relaxing)
 .debug_str     0x00004ec2      0x26f EndDevice_Stk600_Atmega128rfa1_8Mhz_Gcc/Obj/buttons.o
                                0x4d6 (size before relaxing)
 .debug_str     0x00005131      0x183 EndDevice_Stk600_Atmega128rfa1_8Mhz_Gcc/Obj/leds.o
                                0x279 (size before relaxing)
 .debug_str     0x000052b4       0x7e EndDevice_Stk600_Atmega128rfa1_8Mhz_Gcc/Obj/bspTaskManager.o
                                0x2aa (size before relaxing)
 .debug_str     0x00005332     0x22c1 EndDevice_Stk600_Atmega128rfa1_8Mhz_Gcc/Obj/csPersistentMem.o
                               0x41dc (size before relaxing)
 .debug_str     0x000075f3      0x35b EndDevice_Stk600_Atmega128rfa1_8Mhz_Gcc/Obj/csMem.o
                               0x3d60 (size before relaxing)
 .debug_str     0x0000794e      0x146 EndDevice_Stk600_Atmega128rfa1_8Mhz_Gcc/Obj/configServer.o
                               0x43d3 (size before relaxing)
 .debug_str     0x00007a94      0x122 c:/program files (x86)/atmel/avr tools/avr toolchain/bin/../lib/gcc/avr/4.5.1/avr51\libgcc.a(_ashldi3.o)
                                0x1a7 (size before relaxing)
 .debug_str     0x00007bb6       0x7c c:/program files (x86)/atmel/avr tools/avr toolchain/bin/../lib/gcc/avr/4.5.1/../../../../avr/lib/avr51\libc.a(rand.o)
                                 0xba (size before relaxing)
